---
triple:          'arm64-apple-darwin'
binary-path:     '/Users/ryanmchale/Documents/GitHub/gengen/gengen'
relocations:
  - { offsetInCU: 0x26, offset: 0x26, size: 0x8, addend: 0x0, symName: __ZN6CameraC2EN3glm3vecILi3EfLNS0_9qualifierE0EEES3_ff, symObjAddr: 0x0, symBinAddr: 0x10000272C, symSize: 0xB8 }
  - { offsetInCU: 0x17FE, offset: 0x17FE, size: 0x8, addend: 0x0, symName: __ZN3glm6lookAtIfLNS_9qualifierE0EEENS_3matILi4ELi4ET_XT0_EEERKNS_3vecILi3ES3_XT0_EEES8_S8_, symObjAddr: 0x460, symBinAddr: 0x100002B8C, symSize: 0x34 }
  - { offsetInCU: 0x1859, offset: 0x1859, size: 0x8, addend: 0x0, symName: __ZN3glmplIfLNS_9qualifierE0EEENS_3vecILi3ET_XT0_EEERKS4_S6_, symObjAddr: 0x494, symBinAddr: 0x100002BC0, symSize: 0x70 }
  - { offsetInCU: 0x18A9, offset: 0x18A9, size: 0x8, addend: 0x0, symName: __ZN3glmmlIfLNS_9qualifierE0EEENS_3vecILi3ET_XT0_EEERKS4_S3_, symObjAddr: 0x688, symBinAddr: 0x100002DB4, symSize: 0x64 }
  - { offsetInCU: 0x18F9, offset: 0x18F9, size: 0x8, addend: 0x0, symName: __ZN3glm7radiansIfEET_S1_, symObjAddr: 0x938, symBinAddr: 0x100003064, symSize: 0x24 }
  - { offsetInCU: 0x192E, offset: 0x192E, size: 0x8, addend: 0x0, symName: __ZN3glm9normalizeILi3EfLNS_9qualifierE0EEENS_3vecIXT_ET0_XT1_EEERKS4_, symObjAddr: 0x980, symBinAddr: 0x1000030AC, symSize: 0x3C }
  - { offsetInCU: 0x1977, offset: 0x1977, size: 0x8, addend: 0x0, symName: __ZN3glm5crossIfLNS_9qualifierE0EEENS_3vecILi3ET_XT0_EEERKS4_S6_, symObjAddr: 0x9BC, symBinAddr: 0x1000030E8, symSize: 0x44 }
  - { offsetInCU: 0x19C4, offset: 0x19C4, size: 0x8, addend: 0x0, symName: __ZN3glm8lookAtRHIfLNS_9qualifierE0EEENS_3matILi4ELi4ET_XT0_EEERKNS_3vecILi3ES3_XT0_EEES8_S8_, symObjAddr: 0xA38, symBinAddr: 0x100003164, symSize: 0x2E4 }
  - { offsetInCU: 0x1A59, offset: 0x1A59, size: 0x8, addend: 0x0, symName: __ZN3glmmiIfLNS_9qualifierE0EEENS_3vecILi3ET_XT0_EEERKS4_S6_, symObjAddr: 0xD1C, symBinAddr: 0x100003448, symSize: 0x70 }
  - { offsetInCU: 0x1AA9, offset: 0x1AA9, size: 0x8, addend: 0x0, symName: __ZN3glm3dotILi3EfLNS_9qualifierE0EEET0_RKNS_3vecIXT_ES2_XT1_EEES6_, symObjAddr: 0xF20, symBinAddr: 0x10000364C, symSize: 0x2C }
  - { offsetInCU: 0x1BCD, offset: 0x1BCD, size: 0x8, addend: 0x0, symName: __ZN3glmmlIfLNS_9qualifierE0EEENS_3vecILi3ET_XT0_EEERKS4_S6_, symObjAddr: 0xFA8, symBinAddr: 0x1000036D4, symSize: 0x70 }
  - { offsetInCU: 0x1C1D, offset: 0x1C1D, size: 0x8, addend: 0x0, symName: __ZN3glm11inversesqrtIfEET_S1_, symObjAddr: 0x106C, symBinAddr: 0x100003798, symSize: 0x30 }
  - { offsetInCU: 0x4D2D, offset: 0x4D2D, size: 0x8, addend: 0x0, symName: __ZN6CameraC2EN3glm3vecILi3EfLNS0_9qualifierE0EEES3_ff, symObjAddr: 0x0, symBinAddr: 0x10000272C, symSize: 0xB8 }
  - { offsetInCU: 0x4D8F, offset: 0x4D8F, size: 0x8, addend: 0x0, symName: __ZN3glm3vecILi3EfLNS_9qualifierE0EEC1Efff, symObjAddr: 0xB8, symBinAddr: 0x1000027E4, symSize: 0x44 }
  - { offsetInCU: 0x4DE3, offset: 0x4DE3, size: 0x8, addend: 0x0, symName: __ZN6Camera19updateCameraVectorsEv, symObjAddr: 0xFC, symBinAddr: 0x100002828, symSize: 0x14C }
  - { offsetInCU: 0x4E17, offset: 0x4E17, size: 0x8, addend: 0x0, symName: __ZN6CameraC1EN3glm3vecILi3EfLNS0_9qualifierE0EEES3_ff, symObjAddr: 0x248, symBinAddr: 0x100002974, symSize: 0x6C }
  - { offsetInCU: 0x4E79, offset: 0x4E79, size: 0x8, addend: 0x0, symName: __ZN6CameraC2Effffffff, symObjAddr: 0x2B4, symBinAddr: 0x1000029E0, symSize: 0xE8 }
  - { offsetInCU: 0x4F13, offset: 0x4F13, size: 0x8, addend: 0x0, symName: __ZN6CameraC1Effffffff, symObjAddr: 0x39C, symBinAddr: 0x100002AC8, symSize: 0x6C }
  - { offsetInCU: 0x4FAD, offset: 0x4FAD, size: 0x8, addend: 0x0, symName: __ZN6Camera13GetViewMatrixEv, symObjAddr: 0x408, symBinAddr: 0x100002B34, symSize: 0x58 }
  - { offsetInCU: 0x4FD3, offset: 0x4FD3, size: 0x8, addend: 0x0, symName: __ZN6Camera15ProcessKeyboardE15Camera_Movementf, symObjAddr: 0x504, symBinAddr: 0x100002C30, symSize: 0x184 }
  - { offsetInCU: 0x5023, offset: 0x5023, size: 0x8, addend: 0x0, symName: __ZN3glm3vecILi3EfLNS_9qualifierE0EEpLIfEERS2_RKNS0_ILi3ET_LS1_0EEE, symObjAddr: 0x6EC, symBinAddr: 0x100002E18, symSize: 0x54 }
  - { offsetInCU: 0x5060, offset: 0x5060, size: 0x8, addend: 0x0, symName: __ZN3glm3vecILi3EfLNS_9qualifierE0EEmIIfEERS2_RKNS0_ILi3ET_LS1_0EEE, symObjAddr: 0x740, symBinAddr: 0x100002E6C, symSize: 0x54 }
  - { offsetInCU: 0x509E, offset: 0x509E, size: 0x8, addend: 0x0, symName: __ZN6Camera20ProcessMouseMovementEffh, symObjAddr: 0x794, symBinAddr: 0x100002EC0, symSize: 0xF8 }
  - { offsetInCU: 0x50EE, offset: 0x50EE, size: 0x8, addend: 0x0, symName: __ZN6Camera18ProcessMouseScrollEf, symObjAddr: 0x88C, symBinAddr: 0x100002FB8, symSize: 0x88 }
  - { offsetInCU: 0x5122, offset: 0x5122, size: 0x8, addend: 0x0, symName: __Z3cosB7v160006f, symObjAddr: 0x914, symBinAddr: 0x100003040, symSize: 0x24 }
  - { offsetInCU: 0x5150, offset: 0x5150, size: 0x8, addend: 0x0, symName: __Z3sinB7v160006f, symObjAddr: 0x95C, symBinAddr: 0x100003088, symSize: 0x24 }
  - { offsetInCU: 0x517E, offset: 0x517E, size: 0x8, addend: 0x0, symName: __ZN3glm3vecILi3EfLNS_9qualifierE0EEC2Efff, symObjAddr: 0xA00, symBinAddr: 0x10000312C, symSize: 0x38 }
  - { offsetInCU: 0x51D2, offset: 0x51D2, size: 0x8, addend: 0x0, symName: __ZN3glm3matILi4ELi4EfLNS_9qualifierE0EEixEi, symObjAddr: 0xD8C, symBinAddr: 0x1000034B8, symSize: 0x78 }
  - { offsetInCU: 0x5207, offset: 0x5207, size: 0x8, addend: 0x0, symName: __ZN3glm3vecILi4EfLNS_9qualifierE0EEixEi, symObjAddr: 0xE04, symBinAddr: 0x100003530, symSize: 0x10C }
  - { offsetInCU: 0x523C, offset: 0x523C, size: 0x8, addend: 0x0, symName: __ZN3glm3matILi4ELi4EfLNS_9qualifierE0EE6lengthEv, symObjAddr: 0xF4C, symBinAddr: 0x100003678, symSize: 0x8 }
  - { offsetInCU: 0x524F, offset: 0x524F, size: 0x8, addend: 0x0, symName: __ZN3glm3vecILi4EfLNS_9qualifierE0EE6lengthEv, symObjAddr: 0xF54, symBinAddr: 0x100003680, symSize: 0x8 }
  - { offsetInCU: 0x5262, offset: 0x5262, size: 0x8, addend: 0x0, symName: __ZN3glm6detail11compute_dotINS_3vecILi3EfLNS_9qualifierE0EEEfLb0EE4callERKS4_S7_, symObjAddr: 0xF5C, symBinAddr: 0x100003688, symSize: 0x4C }
  - { offsetInCU: 0x52A0, offset: 0x52A0, size: 0x8, addend: 0x0, symName: __ZN3glm6detail17compute_normalizeILi3EfLNS_9qualifierE0ELb0EE4callERKNS_3vecILi3EfLS2_0EEE, symObjAddr: 0x1018, symBinAddr: 0x100003744, symSize: 0x54 }
  - { offsetInCU: 0x52C2, offset: 0x52C2, size: 0x8, addend: 0x0, symName: __Z4sqrtB7v160006f, symObjAddr: 0x109C, symBinAddr: 0x1000037C8, symSize: 0x18 }
  - { offsetInCU: 0x52F0, offset: 0x52F0, size: 0x8, addend: 0x0, symName: __ZN3glm6detail13compute_crossIfLNS_9qualifierE0ELb0EE4callERKNS_3vecILi3EfLS2_0EEES7_, symObjAddr: 0x10B4, symBinAddr: 0x1000037E0, symSize: 0xAC }
  - { offsetInCU: 0x26, offset: 0x535A, size: 0x8, addend: 0x0, symName: __ZN12IntersectionC2Ev, symObjAddr: 0x0, symBinAddr: 0x10000388C, symSize: 0x18 }
  - { offsetInCU: 0xF5A, offset: 0x628E, size: 0x8, addend: 0x0, symName: __ZN12IntersectionC2Ev, symObjAddr: 0x0, symBinAddr: 0x10000388C, symSize: 0x18 }
  - { offsetInCU: 0xF84, offset: 0x62B8, size: 0x8, addend: 0x0, symName: __ZN12IntersectionC1Ev, symObjAddr: 0x18, symBinAddr: 0x1000038A4, symSize: 0x2C }
  - { offsetInCU: 0xFAE, offset: 0x62E2, size: 0x8, addend: 0x0, symName: __ZN12IntersectionC2Eb, symObjAddr: 0x44, symBinAddr: 0x1000038D0, symSize: 0x2C }
  - { offsetInCU: 0xFE6, offset: 0x631A, size: 0x8, addend: 0x0, symName: __ZN12IntersectionC1Eb, symObjAddr: 0x70, symBinAddr: 0x1000038FC, symSize: 0x40 }
  - { offsetInCU: 0x101E, offset: 0x6352, size: 0x8, addend: 0x0, symName: __ZN12IntersectionC2EN3glm3vecILi2EfLNS0_9qualifierE0EEE, symObjAddr: 0xB0, symBinAddr: 0x10000393C, symSize: 0x2C }
  - { offsetInCU: 0x1056, offset: 0x638A, size: 0x8, addend: 0x0, symName: __ZN12IntersectionC1EN3glm3vecILi2EfLNS0_9qualifierE0EEE, symObjAddr: 0xDC, symBinAddr: 0x100003968, symSize: 0x3C }
  - { offsetInCU: 0x108E, offset: 0x63C2, size: 0x8, addend: 0x0, symName: __ZN12IntersectionC2EbN3glm3vecILi2EfLNS0_9qualifierE0EEE, symObjAddr: 0x118, symBinAddr: 0x1000039A4, symSize: 0x3C }
  - { offsetInCU: 0x10D4, offset: 0x6408, size: 0x8, addend: 0x0, symName: __ZN12IntersectionC1EbN3glm3vecILi2EfLNS0_9qualifierE0EEE, symObjAddr: 0x154, symBinAddr: 0x1000039E0, symSize: 0x50 }
  - { offsetInCU: 0x111A, offset: 0x644E, size: 0x8, addend: 0x0, symName: __ZN12Intersection5printEv, symObjAddr: 0x1A4, symBinAddr: 0x100003A30, symSize: 0x70 }
  - { offsetInCU: 0x21A, offset: 0x6693, size: 0x8, addend: 0x0, symName: __ZN3glmmlIfLNS_9qualifierE0EEENS_3vecILi2ET_XT0_EEERKS4_S3_, symObjAddr: 0xFFC, symBinAddr: 0x100004A9C, symSize: 0x50 }
  - { offsetInCU: 0xC2B3, offset: 0x1272C, size: 0x8, addend: 0x0, symName: __ZNSt3__1neB7v160006IP4MeshEEbRKNS_11__wrap_iterIT_EES7_, symObjAddr: 0x8A0, symBinAddr: 0x100004340, symSize: 0x34 }
  - { offsetInCU: 0xC2F6, offset: 0x1276F, size: 0x8, addend: 0x0, symName: __ZNSt3__119__debug_db_insert_cB7v160006INS_6vectorI6VertexNS_9allocatorIS2_EEEEEEvPT_, symObjAddr: 0x11BC, symBinAddr: 0x100004C5C, symSize: 0x10 }
  - { offsetInCU: 0xC327, offset: 0x127A0, size: 0x8, addend: 0x0, symName: __ZNSt3__119__debug_db_insert_cB7v160006INS_6vectorIjNS_9allocatorIjEEEEEEvPT_, symObjAddr: 0x1328, symBinAddr: 0x100004DC8, symSize: 0x10 }
  - { offsetInCU: 0xC358, offset: 0x127D1, size: 0x8, addend: 0x0, symName: __ZNSt3__119__debug_db_insert_cB7v160006INS_6vectorI7TextureNS_9allocatorIS2_EEEEEEvPT_, symObjAddr: 0x1494, symBinAddr: 0x100004F34, symSize: 0x10 }
  - { offsetInCU: 0xC389, offset: 0x12802, size: 0x8, addend: 0x0, symName: __ZNSt3__115__debug_db_swapB7v160006INS_6vectorI6VertexNS_9allocatorIS2_EEEEEEvPT_S7_, symObjAddr: 0x1794, symBinAddr: 0x100005234, symSize: 0x14 }
  - { offsetInCU: 0xC3C8, offset: 0x12841, size: 0x8, addend: 0x0, symName: __ZNSt3__125__debug_db_invalidate_allB7v160006INS_6vectorI6VertexNS_9allocatorIS2_EEEEEEvPT_, symObjAddr: 0x19B8, symBinAddr: 0x100005458, symSize: 0x10 }
  - { offsetInCU: 0xC3F9, offset: 0x12872, size: 0x8, addend: 0x0, symName: __ZNSt3__112__to_addressB7v160006I6VertexEEPT_S3_, symObjAddr: 0x1A80, symBinAddr: 0x100005520, symSize: 0x14 }
  - { offsetInCU: 0xC42E, offset: 0x128A7, size: 0x8, addend: 0x0, symName: __ZNSt3__119__libcpp_deallocateB7v160006EPvmm, symObjAddr: 0x1B34, symBinAddr: 0x1000055D4, symSize: 0x60 }
  - { offsetInCU: 0xC493, offset: 0x1290C, size: 0x8, addend: 0x0, symName: __ZNSt3__124__is_overaligned_for_newB7v160006Em, symObjAddr: 0x1B94, symBinAddr: 0x100005634, symSize: 0x20 }
  - { offsetInCU: 0xC4C1, offset: 0x1293A, size: 0x8, addend: 0x0, symName: __ZNSt3__127__do_deallocate_handle_sizeB7v160006IJSt11align_val_tEEEvPvmDpT_, symObjAddr: 0x1BB4, symBinAddr: 0x100005654, symSize: 0x30 }
  - { offsetInCU: 0xC514, offset: 0x1298D, size: 0x8, addend: 0x0, symName: __ZNSt3__127__do_deallocate_handle_sizeB7v160006IJEEEvPvmDpT_, symObjAddr: 0x1BE4, symBinAddr: 0x100005684, symSize: 0x28 }
  - { offsetInCU: 0xC552, offset: 0x129CB, size: 0x8, addend: 0x0, symName: __ZNSt3__124__libcpp_operator_deleteB7v160006IJPvSt11align_val_tEEEvDpT_, symObjAddr: 0x1C0C, symBinAddr: 0x1000056AC, symSize: 0x2C }
  - { offsetInCU: 0xC59B, offset: 0x12A14, size: 0x8, addend: 0x0, symName: __ZNSt3__124__libcpp_operator_deleteB7v160006IJPvEEEvDpT_, symObjAddr: 0x1C38, symBinAddr: 0x1000056D8, symSize: 0x24 }
  - { offsetInCU: 0xC5D0, offset: 0x12A49, size: 0x8, addend: 0x0, symName: __ZNSt3__115__debug_db_swapB7v160006INS_6vectorIjNS_9allocatorIjEEEEEEvPT_S6_, symObjAddr: 0x1EF0, symBinAddr: 0x100005990, symSize: 0x14 }
  - { offsetInCU: 0xC60F, offset: 0x12A88, size: 0x8, addend: 0x0, symName: __ZNSt3__125__debug_db_invalidate_allB7v160006INS_6vectorIjNS_9allocatorIjEEEEEEvPT_, symObjAddr: 0x20F8, symBinAddr: 0x100005B98, symSize: 0x10 }
  - { offsetInCU: 0xC640, offset: 0x12AB9, size: 0x8, addend: 0x0, symName: __ZNSt3__112__to_addressB7v160006IjEEPT_S2_, symObjAddr: 0x21C0, symBinAddr: 0x100005C60, symSize: 0x14 }
  - { offsetInCU: 0xC675, offset: 0x12AEE, size: 0x8, addend: 0x0, symName: __ZNSt3__115__debug_db_swapB7v160006INS_6vectorI7TextureNS_9allocatorIS2_EEEEEEvPT_S7_, symObjAddr: 0x2504, symBinAddr: 0x100005FA4, symSize: 0x14 }
  - { offsetInCU: 0xC6B4, offset: 0x12B2D, size: 0x8, addend: 0x0, symName: __ZNSt3__125__debug_db_invalidate_allB7v160006INS_6vectorI7TextureNS_9allocatorIS2_EEEEEEvPT_, symObjAddr: 0x2728, symBinAddr: 0x1000061C8, symSize: 0x10 }
  - { offsetInCU: 0xC6E5, offset: 0x12B5E, size: 0x8, addend: 0x0, symName: __ZNSt3__112__to_addressB7v160006I7TextureEEPT_S3_, symObjAddr: 0x27F0, symBinAddr: 0x100006290, symSize: 0x14 }
  - { offsetInCU: 0xC71A, offset: 0x12B93, size: 0x8, addend: 0x0, symName: __ZNSt3__118__debug_db_erase_cB7v160006INS_6vectorI7TextureNS_9allocatorIS2_EEEEEEvPT_, symObjAddr: 0x2CA0, symBinAddr: 0x100006740, symSize: 0x10 }
  - { offsetInCU: 0xC74B, offset: 0x12BC4, size: 0x8, addend: 0x0, symName: __ZNSt3__1eqB7v160006IP4MeshEEbRKNS_11__wrap_iterIT_EES7_, symObjAddr: 0x2CB0, symBinAddr: 0x100006750, symSize: 0x48 }
  - { offsetInCU: 0xC78E, offset: 0x12C07, size: 0x8, addend: 0x0, symName: __ZNSt3__118__debug_db_erase_cB7v160006INS_6vectorI4MeshNS_9allocatorIS2_EEEEEEvPT_, symObjAddr: 0x2F88, symBinAddr: 0x100006A28, symSize: 0x10 }
  - { offsetInCU: 0xC7BF, offset: 0x12C38, size: 0x8, addend: 0x0, symName: __ZNSt3__112__to_addressB7v160006I4MeshEEPT_S3_, symObjAddr: 0x30CC, symBinAddr: 0x100006B6C, symSize: 0x14 }
  - { offsetInCU: 0xC7F4, offset: 0x12C6D, size: 0x8, addend: 0x0, symName: __ZNSt3__118__debug_db_erase_cB7v160006INS_6vectorI6VertexNS_9allocatorIS2_EEEEEEvPT_, symObjAddr: 0x3540, symBinAddr: 0x100006FE0, symSize: 0x10 }
  - { offsetInCU: 0xC825, offset: 0x12C9E, size: 0x8, addend: 0x0, symName: __ZNSt3__118__debug_db_erase_cB7v160006INS_6vectorIjNS_9allocatorIjEEEEEEvPT_, symObjAddr: 0x373C, symBinAddr: 0x1000071DC, symSize: 0x10 }
  - { offsetInCU: 0xC856, offset: 0x12CCF, size: 0x8, addend: 0x0, symName: __ZNSt3__119__debug_db_insert_cB7v160006INS_12basic_stringIcNS_11char_traitsIcEENS_9allocatorIcEEEEEEvPT_, symObjAddr: 0x381C, symBinAddr: 0x1000072BC, symSize: 0x10 }
  - { offsetInCU: 0xC887, offset: 0x12D00, size: 0x8, addend: 0x0, symName: __ZNSt3__118__constexpr_strlenB7v160006EPKc, symObjAddr: 0x38E8, symBinAddr: 0x100007388, symSize: 0x24 }
  - { offsetInCU: 0xC8B3, offset: 0x12D2C, size: 0x8, addend: 0x0, symName: __ZNSt3__119__debug_db_insert_cB7v160006INS_6vectorIP4MeshNS_9allocatorIS3_EEEEEEvPT_, symObjAddr: 0x39A0, symBinAddr: 0x100007440, symSize: 0x10 }
  - { offsetInCU: 0xC8E4, offset: 0x12D5D, size: 0x8, addend: 0x0, symName: __ZNSt3__118__debug_db_erase_cB7v160006INS_6vectorIP4MeshNS_9allocatorIS3_EEEEEEvPT_, symObjAddr: 0x3C64, symBinAddr: 0x100007704, symSize: 0x10 }
  - { offsetInCU: 0xC915, offset: 0x12D8E, size: 0x8, addend: 0x0, symName: __ZNSt3__112__to_addressB7v160006IP4MeshEEPT_S4_, symObjAddr: 0x3DA8, symBinAddr: 0x100007848, symSize: 0x14 }
  - { offsetInCU: 0xC94A, offset: 0x12DC3, size: 0x8, addend: 0x0, symName: __ZNSt3__122__make_exception_guardB7v160006INS_6vectorINS_12basic_stringIcNS_11char_traitsIcEENS_9allocatorIcEEEENS5_IS7_EEE16__destroy_vectorEEENS_28__exception_guard_exceptionsIT_EESC_, symObjAddr: 0x40C0, symBinAddr: 0x100007B60, symSize: 0x40 }
  - { offsetInCU: 0xC97F, offset: 0x12DF8, size: 0x8, addend: 0x0, symName: __ZNSt3__119__debug_db_insert_cB7v160006INS_6vectorINS_12basic_stringIcNS_11char_traitsIcEENS_9allocatorIcEEEENS5_IS7_EEEEEEvPT_, symObjAddr: 0x4134, symBinAddr: 0x100007BD4, symSize: 0x10 }
  - { offsetInCU: 0xC9B0, offset: 0x12E29, size: 0x8, addend: 0x0, symName: __ZNSt3__119__allocate_at_leastB7v160006INS_9allocatorINS_12basic_stringIcNS_11char_traitsIcEENS1_IcEEEEEEEENS_19__allocation_resultINS_16allocator_traitsIT_E7pointerEEERSA_m, symObjAddr: 0x44E0, symBinAddr: 0x100007F80, symSize: 0x40 }
  - { offsetInCU: 0xC9F3, offset: 0x12E6C, size: 0x8, addend: 0x0, symName: __ZNSt3__13minB7v160006ImEERKT_S3_S3_, symObjAddr: 0x4638, symBinAddr: 0x1000080D8, symSize: 0x2C }
  - { offsetInCU: 0xCC20, offset: 0x13099, size: 0x8, addend: 0x0, symName: __ZNSt3__13minB7v160006ImNS_6__lessImmEEEERKT_S5_S5_T0_, symObjAddr: 0x46C4, symBinAddr: 0x100008164, symSize: 0x54 }
  - { offsetInCU: 0xCCB5, offset: 0x1312E, size: 0x8, addend: 0x0, symName: __ZNSt3__120__throw_length_errorB7v160006EPKc, symObjAddr: 0x47A4, symBinAddr: 0x100008244, symSize: 0x64 }
  - { offsetInCU: 0xCCDD, offset: 0x13156, size: 0x8, addend: 0x0, symName: __ZNSt3__117__libcpp_allocateB7v160006Emm, symObjAddr: 0x4918, symBinAddr: 0x1000083B8, symSize: 0x60 }
  - { offsetInCU: 0xCD37, offset: 0x131B0, size: 0x8, addend: 0x0, symName: __ZNSt3__121__libcpp_operator_newB7v160006IJmSt11align_val_tEEEPvDpT_, symObjAddr: 0x4978, symBinAddr: 0x100008418, symSize: 0x2C }
  - { offsetInCU: 0xCD84, offset: 0x131FD, size: 0x8, addend: 0x0, symName: __ZNSt3__121__libcpp_operator_newB7v160006IJmEEEPvDpT_, symObjAddr: 0x49A4, symBinAddr: 0x100008444, symSize: 0x24 }
  - { offsetInCU: 0xCDBD, offset: 0x13236, size: 0x8, addend: 0x0, symName: __ZNSt3__112__to_addressB7v160006INS_12basic_stringIcNS_11char_traitsIcEENS_9allocatorIcEEEEEEPT_S8_, symObjAddr: 0x4AC0, symBinAddr: 0x100008560, symSize: 0x14 }
  - { offsetInCU: 0xCDF2, offset: 0x1326B, size: 0x8, addend: 0x0, symName: __ZNSt3__130__uninitialized_allocator_copyB7v160006INS_9allocatorINS_12basic_stringIcNS_11char_traitsIcEENS1_IcEEEEEEPKS6_S9_PS6_EET2_RT_T0_T1_SB_, symObjAddr: 0x4B70, symBinAddr: 0x100008610, symSize: 0xF4 }
  - { offsetInCU: 0xCE90, offset: 0x13309, size: 0x8, addend: 0x0, symName: __ZNSt3__122__make_exception_guardB7v160006INS_29_AllocatorDestroyRangeReverseINS_9allocatorINS_12basic_stringIcNS_11char_traitsIcEENS2_IcEEEEEEPS7_EEEENS_28__exception_guard_exceptionsIT_EESC_, symObjAddr: 0x4CDC, symBinAddr: 0x10000877C, symSize: 0x4C }
  - { offsetInCU: 0xCEC6, offset: 0x1333F, size: 0x8, addend: 0x0, symName: __ZNSt3__119__allocator_destroyB7v160006INS_9allocatorINS_12basic_stringIcNS_11char_traitsIcEENS1_IcEEEEEENS_16reverse_iteratorIPS6_EESA_EEvRT_T0_T1_, symObjAddr: 0x4F6C, symBinAddr: 0x100008A0C, symSize: 0x70 }
  - { offsetInCU: 0xCF29, offset: 0x133A2, size: 0x8, addend: 0x0, symName: __ZNSt3__1neB7v160006IPNS_12basic_stringIcNS_11char_traitsIcEENS_9allocatorIcEEEES7_EEbRKNS_16reverse_iteratorIT_EERKNS8_IT0_EE, symObjAddr: 0x5010, symBinAddr: 0x100008AB0, symSize: 0x48 }
  - { offsetInCU: 0xCF75, offset: 0x133EE, size: 0x8, addend: 0x0, symName: __ZNSt3__112__to_addressB7v160006INS_16reverse_iteratorIPNS_12basic_stringIcNS_11char_traitsIcEENS_9allocatorIcEEEEEEvEENS_5decayIDTclsr19__to_address_helperIT_EE6__callclsr3stdE7declvalIRKSB_EEEEE4typeESD_, symObjAddr: 0x5084, symBinAddr: 0x100008B24, symSize: 0x24 }
  - { offsetInCU: 0xCFD4, offset: 0x1344D, size: 0x8, addend: 0x0, symName: __ZNSt3__118__debug_db_erase_cB7v160006INS_6vectorINS_12basic_stringIcNS_11char_traitsIcEENS_9allocatorIcEEEENS5_IS7_EEEEEEvPT_, symObjAddr: 0x5394, symBinAddr: 0x100008E34, symSize: 0x10 }
  - { offsetInCU: 0xD005, offset: 0x1347E, size: 0x8, addend: 0x0, symName: __ZNSt3__122__make_exception_guardB7v160006INS_6vectorI6VertexNS_9allocatorIS2_EEE16__destroy_vectorEEENS_28__exception_guard_exceptionsIT_EES8_, symObjAddr: 0x56C0, symBinAddr: 0x100009160, symSize: 0x40 }
  - { offsetInCU: 0xD03A, offset: 0x134B3, size: 0x8, addend: 0x0, symName: __ZNSt3__119__allocate_at_leastB7v160006INS_9allocatorI6VertexEEEENS_19__allocation_resultINS_16allocator_traitsIT_E7pointerEEERS6_m, symObjAddr: 0x59F0, symBinAddr: 0x100009490, symSize: 0x40 }
  - { offsetInCU: 0xD07D, offset: 0x134F6, size: 0x8, addend: 0x0, symName: __ZNSt3__130__uninitialized_allocator_copyB7v160006INS_9allocatorI6VertexEEPS2_S4_S4_EET2_RT_T0_T1_S5_, symObjAddr: 0x5BD4, symBinAddr: 0x100009674, symSize: 0xF4 }
  - { offsetInCU: 0xD11B, offset: 0x13594, size: 0x8, addend: 0x0, symName: __ZNSt3__122__make_exception_guardB7v160006INS_29_AllocatorDestroyRangeReverseINS_9allocatorI6VertexEEPS3_EEEENS_28__exception_guard_exceptionsIT_EES8_, symObjAddr: 0x5D40, symBinAddr: 0x1000097E0, symSize: 0x4C }
  - { offsetInCU: 0xD151, offset: 0x135CA, size: 0x8, addend: 0x0, symName: __ZNSt3__119__allocator_destroyB7v160006INS_9allocatorI6VertexEENS_16reverse_iteratorIPS2_EES6_EEvRT_T0_T1_, symObjAddr: 0x5FD4, symBinAddr: 0x100009A74, symSize: 0x70 }
  - { offsetInCU: 0xD1B4, offset: 0x1362D, size: 0x8, addend: 0x0, symName: __ZNSt3__1neB7v160006IP6VertexS2_EEbRKNS_16reverse_iteratorIT_EERKNS3_IT0_EE, symObjAddr: 0x6078, symBinAddr: 0x100009B18, symSize: 0x48 }
  - { offsetInCU: 0xD200, offset: 0x13679, size: 0x8, addend: 0x0, symName: __ZNSt3__112__to_addressB7v160006INS_16reverse_iteratorIP6VertexEEvEENS_5decayIDTclsr19__to_address_helperIT_EE6__callclsr3stdE7declvalIRKS6_EEEEE4typeES8_, symObjAddr: 0x60C0, symBinAddr: 0x100009B60, symSize: 0x24 }
  - { offsetInCU: 0xD25F, offset: 0x136D8, size: 0x8, addend: 0x0, symName: __ZNSt3__122__make_exception_guardB7v160006INS_6vectorIjNS_9allocatorIjEEE16__destroy_vectorEEENS_28__exception_guard_exceptionsIT_EES7_, symObjAddr: 0x63BC, symBinAddr: 0x100009E5C, symSize: 0x40 }
  - { offsetInCU: 0xD294, offset: 0x1370D, size: 0x8, addend: 0x0, symName: __ZNSt3__119__allocate_at_leastB7v160006INS_9allocatorIjEEEENS_19__allocation_resultINS_16allocator_traitsIT_E7pointerEEERS5_m, symObjAddr: 0x66E4, symBinAddr: 0x10000A184, symSize: 0x40 }
  - { offsetInCU: 0xD2D7, offset: 0x13750, size: 0x8, addend: 0x0, symName: __ZNSt3__130__uninitialized_allocator_copyB7v160006INS_9allocatorIjEEPjS3_S3_EET2_RT_T0_T1_S4_, symObjAddr: 0x689C, symBinAddr: 0x10000A33C, symSize: 0xF4 }
  - { offsetInCU: 0xD375, offset: 0x137EE, size: 0x8, addend: 0x0, symName: __ZNSt3__122__make_exception_guardB7v160006INS_29_AllocatorDestroyRangeReverseINS_9allocatorIjEEPjEEEENS_28__exception_guard_exceptionsIT_EES7_, symObjAddr: 0x6A00, symBinAddr: 0x10000A4A0, symSize: 0x4C }
  - { offsetInCU: 0xD3AB, offset: 0x13824, size: 0x8, addend: 0x0, symName: __ZNSt3__119__allocator_destroyB7v160006INS_9allocatorIjEENS_16reverse_iteratorIPjEES5_EEvRT_T0_T1_, symObjAddr: 0x6C88, symBinAddr: 0x10000A728, symSize: 0x70 }
  - { offsetInCU: 0xD40E, offset: 0x13887, size: 0x8, addend: 0x0, symName: __ZNSt3__1neB7v160006IPjS1_EEbRKNS_16reverse_iteratorIT_EERKNS2_IT0_EE, symObjAddr: 0x6D2C, symBinAddr: 0x10000A7CC, symSize: 0x48 }
  - { offsetInCU: 0xD45A, offset: 0x138D3, size: 0x8, addend: 0x0, symName: __ZNSt3__112__to_addressB7v160006INS_16reverse_iteratorIPjEEvEENS_5decayIDTclsr19__to_address_helperIT_EE6__callclsr3stdE7declvalIRKS5_EEEEE4typeES7_, symObjAddr: 0x6D74, symBinAddr: 0x10000A814, symSize: 0x24 }
  - { offsetInCU: 0xD4B9, offset: 0x13932, size: 0x8, addend: 0x0, symName: __ZNSt3__130__uninitialized_allocator_copyB7v160006INS_9allocatorINS_12basic_stringIcNS_11char_traitsIcEENS1_IcEEEEEEPS6_S8_S8_EET2_RT_T0_T1_S9_, symObjAddr: 0x7130, symBinAddr: 0x10000ABD0, symSize: 0xF4 }
  - { offsetInCU: 0xD557, offset: 0x139D0, size: 0x8, addend: 0x0, symName: __ZNSt3__13maxB7v160006ImEERKT_S3_S3_, symObjAddr: 0x78C4, symBinAddr: 0x10000B364, symSize: 0x2C }
  - { offsetInCU: 0xD59A, offset: 0x13A13, size: 0x8, addend: 0x0, symName: __ZNSt3__13maxB7v160006ImNS_6__lessImmEEEERKT_S5_S5_T0_, symObjAddr: 0x7988, symBinAddr: 0x10000B428, symSize: 0x54 }
  - { offsetInCU: 0xD5F4, offset: 0x13A6D, size: 0x8, addend: 0x0, symName: __ZNSt3__119__allocate_at_leastB7v160006INS_9allocatorIP4MeshEEEENS_19__allocation_resultINS_16allocator_traitsIT_E7pointerEEERS7_m, symObjAddr: 0x7AEC, symBinAddr: 0x10000B58C, symSize: 0x40 }
  - { offsetInCU: 0xD637, offset: 0x13AB0, size: 0x8, addend: 0x0, symName: __ZNSt3__142__uninitialized_allocator_move_if_noexceptB7v160006INS_9allocatorIP4MeshEENS_16reverse_iteratorIPS3_EES7_S3_vEET1_RT_T0_SB_S8_, symObjAddr: 0x7CA0, symBinAddr: 0x10000B740, symSize: 0x78 }
  - { offsetInCU: 0xD6B4, offset: 0x13B2D, size: 0x8, addend: 0x0, symName: __ZNSt3__14swapB7v160006IPP4MeshEENS_9enable_ifIXaasr21is_move_constructibleIT_EE5valuesr18is_move_assignableIS5_EE5valueEvE4typeERS5_S8_, symObjAddr: 0x7D64, symBinAddr: 0x10000B804, symSize: 0x3C }
  - { offsetInCU: 0xD705, offset: 0x13B7E, size: 0x8, addend: 0x0, symName: __ZNSt3__125__debug_db_invalidate_allB7v160006INS_6vectorIP4MeshNS_9allocatorIS3_EEEEEEvPT_, symObjAddr: 0x7E4C, symBinAddr: 0x10000B8EC, symSize: 0x10 }
  - { offsetInCU: 0xD736, offset: 0x13BAF, size: 0x8, addend: 0x0, symName: __ZNSt3__14moveB7v160006INS_16reverse_iteratorIPP4MeshEES5_EET0_T_S7_S6_, symObjAddr: 0x7E5C, symBinAddr: 0x10000B8FC, symSize: 0x78 }
  - { offsetInCU: 0xD790, offset: 0x13C09, size: 0x8, addend: 0x0, symName: __ZNSt3__16__moveB7v160006INS_17_ClassicAlgPolicyENS_16reverse_iteratorIPP4MeshEES6_S6_EENS_4pairIT0_T2_EES8_T1_S9_, symObjAddr: 0x7ED4, symBinAddr: 0x10000B974, symSize: 0x64 }
  - { offsetInCU: 0xD7FC, offset: 0x13C75, size: 0x8, addend: 0x0, symName: __ZNSt3__123__dispatch_copy_or_moveB7v160006INS_17_ClassicAlgPolicyENS_11__move_loopIS1_EENS_14__move_trivialENS_16reverse_iteratorIPP4MeshEES9_S9_EENS_4pairIT2_T4_EESB_T3_SC_, symObjAddr: 0x7F38, symBinAddr: 0x10000B9D8, symSize: 0x64 }
  - { offsetInCU: 0xD87A, offset: 0x13CF3, size: 0x8, addend: 0x0, symName: __ZNSt3__121__unwrap_and_dispatchB7v160006INS_10__overloadINS_11__move_loopINS_17_ClassicAlgPolicyEEENS_14__move_trivialEEENS_16reverse_iteratorIPP4MeshEESB_SB_Li0EEENS_4pairIT0_T2_EESD_T1_SE_, symObjAddr: 0x7F9C, symBinAddr: 0x10000BA3C, symSize: 0x12C }
  - { offsetInCU: 0xD90A, offset: 0x13D83, size: 0x8, addend: 0x0, symName: __ZNSt3__114__unwrap_rangeB7v160006INS_16reverse_iteratorIPP4MeshEES5_EENS_4pairIT0_S7_EET_S9_, symObjAddr: 0x80C8, symBinAddr: 0x10000BB68, symSize: 0x84 }
  - { offsetInCU: 0xDA85, offset: 0x13EFE, size: 0x8, addend: 0x0, symName: __ZNSt3__113__unwrap_iterB7v160006INS_16reverse_iteratorIPP4MeshEENS_18__unwrap_iter_implIS5_Lb0EEELi0EEEDTclsrT0_8__unwrapclsr3stdE7declvalIT_EEEES9_, symObjAddr: 0x81EC, symBinAddr: 0x10000BC8C, symSize: 0x44 }
  - { offsetInCU: 0xDAC9, offset: 0x13F42, size: 0x8, addend: 0x0, symName: __ZNSt3__19make_pairB7v160006INS_16reverse_iteratorIPP4MeshEES5_EENS_4pairINS_18__unwrap_ref_decayIT_E4typeENS7_IT0_E4typeEEEOS8_OSB_, symObjAddr: 0x8230, symBinAddr: 0x10000BCD0, symSize: 0x38 }
  - { offsetInCU: 0xDB18, offset: 0x13F91, size: 0x8, addend: 0x0, symName: __ZNSt3__114__rewrap_rangeB7v160006INS_16reverse_iteratorIPP4MeshEES5_EET_S6_T0_, symObjAddr: 0x8268, symBinAddr: 0x10000BD08, symSize: 0x5C }
  - { offsetInCU: 0xDB64, offset: 0x13FDD, size: 0x8, addend: 0x0, symName: __ZNSt3__113__rewrap_iterB7v160006INS_16reverse_iteratorIPP4MeshEES5_NS_18__unwrap_iter_implIS5_Lb0EEEEET_S8_T0_, symObjAddr: 0x82C4, symBinAddr: 0x10000BD64, symSize: 0x74 }
  - { offsetInCU: 0xDBB9, offset: 0x14032, size: 0x8, addend: 0x0, symName: __ZNSt3__1neB7v160006IPP4MeshS3_EEbRKNS_16reverse_iteratorIT_EERKNS4_IT0_EE, symObjAddr: 0x8338, symBinAddr: 0x10000BDD8, symSize: 0x48 }
  - { offsetInCU: 0xE2AF, offset: 0x14728, size: 0x8, addend: 0x0, symName: __ZSt28__throw_bad_array_new_lengthB7v160006v, symObjAddr: 0x48E4, symBinAddr: 0x100008384, symSize: 0x34 }
  - { offsetInCU: 0xF289, offset: 0x15702, size: 0x8, addend: 0x0, symName: __ZNSt3__16vectorIP4MeshNS_9allocatorIS2_EEE26__swap_out_circular_bufferERNS_14__split_bufferIS2_RS4_EE, symObjAddr: 0x7704, symBinAddr: 0x10000B1A4, symSize: 0x118 }
  - { offsetInCU: 0x13E80, offset: 0x1A2F9, size: 0x8, addend: 0x0, symName: __ZN3MapC2Ev, symObjAddr: 0x0, symBinAddr: 0x100003AA0, symSize: 0x598 }
  - { offsetInCU: 0x13F7A, offset: 0x1A3F3, size: 0x8, addend: 0x0, symName: __ZN4MeshC1Ev, symObjAddr: 0x598, symBinAddr: 0x100004038, symSize: 0x2C }
  - { offsetInCU: 0x13FA8, offset: 0x1A421, size: 0x8, addend: 0x0, symName: __ZNSt3__112basic_stringIcNS_11char_traitsIcEENS_9allocatorIcEEEC1B7v160006IDnEEPKc, symObjAddr: 0x5C4, symBinAddr: 0x100004064, symSize: 0x34 }
  - { offsetInCU: 0x13FE5, offset: 0x1A45E, size: 0x8, addend: 0x0, symName: __ZNSt3__16vectorIP4MeshNS_9allocatorIS2_EEEC1B7v160006Ev, symObjAddr: 0x5F8, symBinAddr: 0x100004098, symSize: 0x2C }
  - { offsetInCU: 0x1400E, offset: 0x1A487, size: 0x8, addend: 0x0, symName: __ZNSt3__16vectorINS_12basic_stringIcNS_11char_traitsIcEENS_9allocatorIcEEEENS4_IS6_EEEC1B7v160006ESt16initializer_listIS6_E, symObjAddr: 0x624, symBinAddr: 0x1000040C4, symSize: 0x3C }
  - { offsetInCU: 0x14048, offset: 0x1A4C1, size: 0x8, addend: 0x0, symName: __ZNSt3__16vectorI4MeshNS_9allocatorIS1_EEEixB7v160006Em, symObjAddr: 0x660, symBinAddr: 0x100004100, symSize: 0x2C }
  - { offsetInCU: 0x1407E, offset: 0x1A4F7, size: 0x8, addend: 0x0, symName: __ZNSt3__16vectorI6VertexNS_9allocatorIS1_EEEC1ERKS4_, symObjAddr: 0x68C, symBinAddr: 0x10000412C, symSize: 0x34 }
  - { offsetInCU: 0x140B8, offset: 0x1A531, size: 0x8, addend: 0x0, symName: __ZNSt3__16vectorIjNS_9allocatorIjEEEC1ERKS3_, symObjAddr: 0x6C0, symBinAddr: 0x100004160, symSize: 0x34 }
  - { offsetInCU: 0x140F2, offset: 0x1A56B, size: 0x8, addend: 0x0, symName: __ZNSt3__16vectorINS_12basic_stringIcNS_11char_traitsIcEENS_9allocatorIcEEEENS4_IS6_EEEC1ERKS8_, symObjAddr: 0x6F4, symBinAddr: 0x100004194, symSize: 0x34 }
  - { offsetInCU: 0x14132, offset: 0x1A5AB, size: 0x8, addend: 0x0, symName: __ZN4MeshaSEOS_, symObjAddr: 0x728, symBinAddr: 0x1000041C8, symSize: 0x68 }
  - { offsetInCU: 0x14161, offset: 0x1A5DA, size: 0x8, addend: 0x0, symName: __ZN4MeshD1Ev, symObjAddr: 0x790, symBinAddr: 0x100004230, symSize: 0x2C }
  - { offsetInCU: 0x1418B, offset: 0x1A604, size: 0x8, addend: 0x0, symName: __ZNSt3__16vectorINS_12basic_stringIcNS_11char_traitsIcEENS_9allocatorIcEEEENS4_IS6_EEED1B7v160006Ev, symObjAddr: 0x7BC, symBinAddr: 0x10000425C, symSize: 0x2C }
  - { offsetInCU: 0x141B4, offset: 0x1A62D, size: 0x8, addend: 0x0, symName: __ZNSt3__16vectorIjNS_9allocatorIjEEED1B7v160006Ev, symObjAddr: 0x7E8, symBinAddr: 0x100004288, symSize: 0x2C }
  - { offsetInCU: 0x141DD, offset: 0x1A656, size: 0x8, addend: 0x0, symName: __ZNSt3__16vectorI6VertexNS_9allocatorIS1_EEED1B7v160006Ev, symObjAddr: 0x814, symBinAddr: 0x1000042B4, symSize: 0x2C }
  - { offsetInCU: 0x14205, offset: 0x1A67E, size: 0x8, addend: 0x0, symName: __ZNSt3__16vectorI4MeshNS_9allocatorIS1_EEE5beginB7v160006Ev, symObjAddr: 0x840, symBinAddr: 0x1000042E0, symSize: 0x30 }
  - { offsetInCU: 0x1422C, offset: 0x1A6A5, size: 0x8, addend: 0x0, symName: __ZNSt3__16vectorI4MeshNS_9allocatorIS1_EEE3endB7v160006Ev, symObjAddr: 0x870, symBinAddr: 0x100004310, symSize: 0x30 }
  - { offsetInCU: 0x14254, offset: 0x1A6CD, size: 0x8, addend: 0x0, symName: __ZNKSt3__111__wrap_iterIP4MeshEdeB7v160006Ev, symObjAddr: 0x8D4, symBinAddr: 0x100004374, symSize: 0x18 }
  - { offsetInCU: 0x14278, offset: 0x1A6F1, size: 0x8, addend: 0x0, symName: __ZNSt3__16vectorIP4MeshNS_9allocatorIS2_EEE9push_backB7v160006EOS2_, symObjAddr: 0x8EC, symBinAddr: 0x10000438C, symSize: 0x6C }
  - { offsetInCU: 0x142AF, offset: 0x1A728, size: 0x8, addend: 0x0, symName: __ZNSt3__111__wrap_iterIP4MeshEppB7v160006Ev, symObjAddr: 0x958, symBinAddr: 0x1000043F8, symSize: 0x20 }
  - { offsetInCU: 0x142D4, offset: 0x1A74D, size: 0x8, addend: 0x0, symName: __ZN5ModelD1Ev, symObjAddr: 0x978, symBinAddr: 0x100004418, symSize: 0x2C }
  - { offsetInCU: 0x142FE, offset: 0x1A777, size: 0x8, addend: 0x0, symName: __ZNSt3__16vectorIP4MeshNS_9allocatorIS2_EEED1B7v160006Ev, symObjAddr: 0x9A4, symBinAddr: 0x100004444, symSize: 0x2C }
  - { offsetInCU: 0x14327, offset: 0x1A7A0, size: 0x8, addend: 0x0, symName: __ZN3MapC1Ev, symObjAddr: 0x9D0, symBinAddr: 0x100004470, symSize: 0x2C }
  - { offsetInCU: 0x14351, offset: 0x1A7CA, size: 0x8, addend: 0x0, symName: __ZN3Map4drawER6ShaderN3glm3vecILi2EfLNS2_9qualifierE0EEE, symObjAddr: 0x9FC, symBinAddr: 0x10000449C, symSize: 0x5C4 }
  - { offsetInCU: 0x143CE, offset: 0x1A847, size: 0x8, addend: 0x0, symName: __ZN3glm3vecILi2EfLNS_9qualifierE0EEC1IiiEET_T0_, symObjAddr: 0xFC0, symBinAddr: 0x100004A60, symSize: 0x3C }
  - { offsetInCU: 0x14426, offset: 0x1A89F, size: 0x8, addend: 0x0, symName: __ZN4MeshC2Ev, symObjAddr: 0x104C, symBinAddr: 0x100004AEC, symSize: 0x4C }
  - { offsetInCU: 0x1444F, offset: 0x1A8C8, size: 0x8, addend: 0x0, symName: __ZNSt3__16vectorI6VertexNS_9allocatorIS1_EEEC1B7v160006Ev, symObjAddr: 0x1098, symBinAddr: 0x100004B38, symSize: 0x2C }
  - { offsetInCU: 0x14478, offset: 0x1A8F1, size: 0x8, addend: 0x0, symName: __ZNSt3__16vectorIjNS_9allocatorIjEEEC1B7v160006Ev, symObjAddr: 0x10C4, symBinAddr: 0x100004B64, symSize: 0x2C }
  - { offsetInCU: 0x144A1, offset: 0x1A91A, size: 0x8, addend: 0x0, symName: __ZNSt3__16vectorI7TextureNS_9allocatorIS1_EEEC1B7v160006Ev, symObjAddr: 0x10F0, symBinAddr: 0x100004B90, symSize: 0x2C }
  - { offsetInCU: 0x144CA, offset: 0x1A943, size: 0x8, addend: 0x0, symName: __ZNSt3__16vectorI6VertexNS_9allocatorIS1_EEEC2B7v160006Ev, symObjAddr: 0x111C, symBinAddr: 0x100004BBC, symSize: 0x58 }
  - { offsetInCU: 0x144FF, offset: 0x1A978, size: 0x8, addend: 0x0, symName: __ZNSt3__117__compressed_pairIP6VertexNS_9allocatorIS1_EEEC1B7v160006IDnNS_18__default_init_tagEEEOT_OT0_, symObjAddr: 0x1174, symBinAddr: 0x100004C14, symSize: 0x3C }
  - { offsetInCU: 0x14556, offset: 0x1A9CF, size: 0x8, addend: 0x0, symName: __ZNSt3__117__compressed_pairIP6VertexNS_9allocatorIS1_EEEC2B7v160006IDnNS_18__default_init_tagEEEOT_OT0_, symObjAddr: 0x11CC, symBinAddr: 0x100004C6C, symSize: 0x40 }
  - { offsetInCU: 0x145AD, offset: 0x1AA26, size: 0x8, addend: 0x0, symName: __ZNSt3__122__compressed_pair_elemIP6VertexLi0ELb0EEC2B7v160006IDnvEEOT_, symObjAddr: 0x120C, symBinAddr: 0x100004CAC, symSize: 0x1C }
  - { offsetInCU: 0x145EE, offset: 0x1AA67, size: 0x8, addend: 0x0, symName: __ZNSt3__122__compressed_pair_elemINS_9allocatorI6VertexEELi1ELb1EEC2B7v160006ENS_18__default_init_tagE, symObjAddr: 0x1228, symBinAddr: 0x100004CC8, symSize: 0x2C }
  - { offsetInCU: 0x14622, offset: 0x1AA9B, size: 0x8, addend: 0x0, symName: __ZNSt3__19allocatorI6VertexEC2B7v160006Ev, symObjAddr: 0x1254, symBinAddr: 0x100004CF4, symSize: 0x2C }
  - { offsetInCU: 0x1464B, offset: 0x1AAC4, size: 0x8, addend: 0x0, symName: __ZNSt3__116__non_trivial_ifILb1ENS_9allocatorI6VertexEEEC2B7v160006Ev, symObjAddr: 0x1280, symBinAddr: 0x100004D20, symSize: 0x14 }
  - { offsetInCU: 0x14674, offset: 0x1AAED, size: 0x8, addend: 0x0, symName: __ZNSt3__16vectorIjNS_9allocatorIjEEEC2B7v160006Ev, symObjAddr: 0x1294, symBinAddr: 0x100004D34, symSize: 0x58 }
  - { offsetInCU: 0x1469D, offset: 0x1AB16, size: 0x8, addend: 0x0, symName: __ZNSt3__117__compressed_pairIPjNS_9allocatorIjEEEC1B7v160006IDnNS_18__default_init_tagEEEOT_OT0_, symObjAddr: 0x12EC, symBinAddr: 0x100004D8C, symSize: 0x3C }
  - { offsetInCU: 0x146F4, offset: 0x1AB6D, size: 0x8, addend: 0x0, symName: __ZNSt3__117__compressed_pairIPjNS_9allocatorIjEEEC2B7v160006IDnNS_18__default_init_tagEEEOT_OT0_, symObjAddr: 0x1338, symBinAddr: 0x100004DD8, symSize: 0x40 }
  - { offsetInCU: 0x1474B, offset: 0x1ABC4, size: 0x8, addend: 0x0, symName: __ZNSt3__122__compressed_pair_elemIPjLi0ELb0EEC2B7v160006IDnvEEOT_, symObjAddr: 0x1378, symBinAddr: 0x100004E18, symSize: 0x1C }
  - { offsetInCU: 0x1478C, offset: 0x1AC05, size: 0x8, addend: 0x0, symName: __ZNSt3__122__compressed_pair_elemINS_9allocatorIjEELi1ELb1EEC2B7v160006ENS_18__default_init_tagE, symObjAddr: 0x1394, symBinAddr: 0x100004E34, symSize: 0x2C }
  - { offsetInCU: 0x147C0, offset: 0x1AC39, size: 0x8, addend: 0x0, symName: __ZNSt3__19allocatorIjEC2B7v160006Ev, symObjAddr: 0x13C0, symBinAddr: 0x100004E60, symSize: 0x2C }
  - { offsetInCU: 0x147E9, offset: 0x1AC62, size: 0x8, addend: 0x0, symName: __ZNSt3__116__non_trivial_ifILb1ENS_9allocatorIjEEEC2B7v160006Ev, symObjAddr: 0x13EC, symBinAddr: 0x100004E8C, symSize: 0x14 }
  - { offsetInCU: 0x14812, offset: 0x1AC8B, size: 0x8, addend: 0x0, symName: __ZNSt3__16vectorI7TextureNS_9allocatorIS1_EEEC2B7v160006Ev, symObjAddr: 0x1400, symBinAddr: 0x100004EA0, symSize: 0x58 }
  - { offsetInCU: 0x1483B, offset: 0x1ACB4, size: 0x8, addend: 0x0, symName: __ZNSt3__117__compressed_pairIP7TextureNS_9allocatorIS1_EEEC1B7v160006IDnNS_18__default_init_tagEEEOT_OT0_, symObjAddr: 0x1458, symBinAddr: 0x100004EF8, symSize: 0x3C }
  - { offsetInCU: 0x14892, offset: 0x1AD0B, size: 0x8, addend: 0x0, symName: __ZNSt3__117__compressed_pairIP7TextureNS_9allocatorIS1_EEEC2B7v160006IDnNS_18__default_init_tagEEEOT_OT0_, symObjAddr: 0x14A4, symBinAddr: 0x100004F44, symSize: 0x40 }
  - { offsetInCU: 0x148E9, offset: 0x1AD62, size: 0x8, addend: 0x0, symName: __ZNSt3__122__compressed_pair_elemIP7TextureLi0ELb0EEC2B7v160006IDnvEEOT_, symObjAddr: 0x14E4, symBinAddr: 0x100004F84, symSize: 0x1C }
  - { offsetInCU: 0x1492A, offset: 0x1ADA3, size: 0x8, addend: 0x0, symName: __ZNSt3__122__compressed_pair_elemINS_9allocatorI7TextureEELi1ELb1EEC2B7v160006ENS_18__default_init_tagE, symObjAddr: 0x1500, symBinAddr: 0x100004FA0, symSize: 0x2C }
  - { offsetInCU: 0x1495E, offset: 0x1ADD7, size: 0x8, addend: 0x0, symName: __ZNSt3__19allocatorI7TextureEC2B7v160006Ev, symObjAddr: 0x152C, symBinAddr: 0x100004FCC, symSize: 0x2C }
  - { offsetInCU: 0x14987, offset: 0x1AE00, size: 0x8, addend: 0x0, symName: __ZNSt3__116__non_trivial_ifILb1ENS_9allocatorI7TextureEEEC2B7v160006Ev, symObjAddr: 0x1558, symBinAddr: 0x100004FF8, symSize: 0x14 }
  - { offsetInCU: 0x149AF, offset: 0x1AE28, size: 0x8, addend: 0x0, symName: __ZNSt3__16vectorI6VertexNS_9allocatorIS1_EEEaSB7v160006EOS4_, symObjAddr: 0x156C, symBinAddr: 0x10000500C, symSize: 0x34 }
  - { offsetInCU: 0x149E5, offset: 0x1AE5E, size: 0x8, addend: 0x0, symName: __ZNSt3__16vectorIjNS_9allocatorIjEEEaSB7v160006EOS3_, symObjAddr: 0x15A0, symBinAddr: 0x100005040, symSize: 0x34 }
  - { offsetInCU: 0x14A1B, offset: 0x1AE94, size: 0x8, addend: 0x0, symName: __ZNSt3__16vectorI7TextureNS_9allocatorIS1_EEEaSB7v160006EOS4_, symObjAddr: 0x15D4, symBinAddr: 0x100005074, symSize: 0x34 }
  - { offsetInCU: 0x14A51, offset: 0x1AECA, size: 0x8, addend: 0x0, symName: __ZNSt3__16vectorI6VertexNS_9allocatorIS1_EEE13__move_assignERS4_NS_17integral_constantIbLb1EEE, symObjAddr: 0x1608, symBinAddr: 0x1000050A8, symSize: 0xAC }
  - { offsetInCU: 0x14A92, offset: 0x1AF0B, size: 0x8, addend: 0x0, symName: __ZNSt3__16vectorI6VertexNS_9allocatorIS1_EEE13__vdeallocateEv, symObjAddr: 0x16B4, symBinAddr: 0x100005154, symSize: 0x8C }
  - { offsetInCU: 0x14ABA, offset: 0x1AF33, size: 0x8, addend: 0x0, symName: __ZNSt3__16vectorI6VertexNS_9allocatorIS1_EEE19__move_assign_allocB7v160006ERS4_, symObjAddr: 0x1740, symBinAddr: 0x1000051E0, symSize: 0x2C }
  - { offsetInCU: 0x14AEE, offset: 0x1AF67, size: 0x8, addend: 0x0, symName: __ZNSt3__16vectorI6VertexNS_9allocatorIS1_EEE9__end_capB7v160006Ev, symObjAddr: 0x176C, symBinAddr: 0x10000520C, symSize: 0x28 }
  - { offsetInCU: 0x14B13, offset: 0x1AF8C, size: 0x8, addend: 0x0, symName: __ZNSt3__16vectorI6VertexNS_9allocatorIS1_EEE5clearB7v160006Ev, symObjAddr: 0x17A8, symBinAddr: 0x100005248, symSize: 0x54 }
  - { offsetInCU: 0x14B47, offset: 0x1AFC0, size: 0x8, addend: 0x0, symName: __ZNSt3__116allocator_traitsINS_9allocatorI6VertexEEE10deallocateB7v160006ERS3_PS2_m, symObjAddr: 0x17FC, symBinAddr: 0x10000529C, symSize: 0x34 }
  - { offsetInCU: 0x14B88, offset: 0x1B001, size: 0x8, addend: 0x0, symName: __ZNSt3__16vectorI6VertexNS_9allocatorIS1_EEE7__allocB7v160006Ev, symObjAddr: 0x1830, symBinAddr: 0x1000052D0, symSize: 0x28 }
  - { offsetInCU: 0x14BAD, offset: 0x1B026, size: 0x8, addend: 0x0, symName: __ZNKSt3__16vectorI6VertexNS_9allocatorIS1_EEE8capacityB7v160006Ev, symObjAddr: 0x1858, symBinAddr: 0x1000052F8, symSize: 0x40 }
  - { offsetInCU: 0x14BD2, offset: 0x1B04B, size: 0x8, addend: 0x0, symName: __ZNKSt3__16vectorI6VertexNS_9allocatorIS1_EEE4sizeB7v160006Ev, symObjAddr: 0x1898, symBinAddr: 0x100005338, symSize: 0x28 }
  - { offsetInCU: 0x14BF7, offset: 0x1B070, size: 0x8, addend: 0x0, symName: __ZNSt3__16vectorI6VertexNS_9allocatorIS1_EEE7__clearB7v160006Ev, symObjAddr: 0x18C0, symBinAddr: 0x100005360, symSize: 0x28 }
  - { offsetInCU: 0x14C1C, offset: 0x1B095, size: 0x8, addend: 0x0, symName: __ZNKSt3__16vectorI6VertexNS_9allocatorIS1_EEE17__annotate_shrinkB7v160006Em, symObjAddr: 0x18E8, symBinAddr: 0x100005388, symSize: 0xD0 }
  - { offsetInCU: 0x14C50, offset: 0x1B0C9, size: 0x8, addend: 0x0, symName: __ZNSt3__16vectorI6VertexNS_9allocatorIS1_EEE22__base_destruct_at_endB7v160006EPS1_, symObjAddr: 0x19C8, symBinAddr: 0x100005468, symSize: 0x8C }
  - { offsetInCU: 0x14C93, offset: 0x1B10C, size: 0x8, addend: 0x0, symName: __ZNSt3__116allocator_traitsINS_9allocatorI6VertexEEE7destroyB7v160006IS2_vEEvRS3_PT_, symObjAddr: 0x1A54, symBinAddr: 0x1000054F4, symSize: 0x2C }
  - { offsetInCU: 0x14CCF, offset: 0x1B148, size: 0x8, addend: 0x0, symName: __ZNSt3__19allocatorI6VertexE7destroyB7v160006EPS1_, symObjAddr: 0x1A94, symBinAddr: 0x100005534, symSize: 0x14 }
  - { offsetInCU: 0x14D02, offset: 0x1B17B, size: 0x8, addend: 0x0, symName: __ZNKSt3__16vectorI6VertexNS_9allocatorIS1_EEE31__annotate_contiguous_containerB7v160006EPKvS6_S6_S6_, symObjAddr: 0x1AA8, symBinAddr: 0x100005548, symSize: 0x20 }
  - { offsetInCU: 0x14D53, offset: 0x1B1CC, size: 0x8, addend: 0x0, symName: __ZNKSt3__16vectorI6VertexNS_9allocatorIS1_EEE4dataB7v160006Ev, symObjAddr: 0x1AC8, symBinAddr: 0x100005568, symSize: 0x28 }
  - { offsetInCU: 0x14D78, offset: 0x1B1F1, size: 0x8, addend: 0x0, symName: __ZNSt3__19allocatorI6VertexE10deallocateB7v160006EPS1_m, symObjAddr: 0x1AF0, symBinAddr: 0x100005590, symSize: 0x44 }
  - { offsetInCU: 0x14DB9, offset: 0x1B232, size: 0x8, addend: 0x0, symName: __ZNSt3__117__compressed_pairIP6VertexNS_9allocatorIS1_EEE6secondB7v160006Ev, symObjAddr: 0x1C5C, symBinAddr: 0x1000056FC, symSize: 0x24 }
  - { offsetInCU: 0x14DDE, offset: 0x1B257, size: 0x8, addend: 0x0, symName: __ZNSt3__122__compressed_pair_elemINS_9allocatorI6VertexEELi1ELb1EE5__getB7v160006Ev, symObjAddr: 0x1C80, symBinAddr: 0x100005720, symSize: 0x14 }
  - { offsetInCU: 0x14E03, offset: 0x1B27C, size: 0x8, addend: 0x0, symName: __ZNKSt3__16vectorI6VertexNS_9allocatorIS1_EEE9__end_capB7v160006Ev, symObjAddr: 0x1C94, symBinAddr: 0x100005734, symSize: 0x28 }
  - { offsetInCU: 0x14E28, offset: 0x1B2A1, size: 0x8, addend: 0x0, symName: __ZNKSt3__117__compressed_pairIP6VertexNS_9allocatorIS1_EEE5firstB7v160006Ev, symObjAddr: 0x1CBC, symBinAddr: 0x10000575C, symSize: 0x24 }
  - { offsetInCU: 0x14E4D, offset: 0x1B2C6, size: 0x8, addend: 0x0, symName: __ZNKSt3__122__compressed_pair_elemIP6VertexLi0ELb0EE5__getB7v160006Ev, symObjAddr: 0x1CE0, symBinAddr: 0x100005780, symSize: 0x14 }
  - { offsetInCU: 0x14E72, offset: 0x1B2EB, size: 0x8, addend: 0x0, symName: __ZNSt3__16vectorI6VertexNS_9allocatorIS1_EEE19__move_assign_allocB7v160006ERS4_NS_17integral_constantIbLb1EEE, symObjAddr: 0x1CF4, symBinAddr: 0x100005794, symSize: 0x38 }
  - { offsetInCU: 0x14EB1, offset: 0x1B32A, size: 0x8, addend: 0x0, symName: __ZNSt3__117__compressed_pairIP6VertexNS_9allocatorIS1_EEE5firstB7v160006Ev, symObjAddr: 0x1D2C, symBinAddr: 0x1000057CC, symSize: 0x24 }
  - { offsetInCU: 0x14ED6, offset: 0x1B34F, size: 0x8, addend: 0x0, symName: __ZNSt3__122__compressed_pair_elemIP6VertexLi0ELb0EE5__getB7v160006Ev, symObjAddr: 0x1D50, symBinAddr: 0x1000057F0, symSize: 0x14 }
  - { offsetInCU: 0x14EFA, offset: 0x1B373, size: 0x8, addend: 0x0, symName: __ZNSt3__16vectorIjNS_9allocatorIjEEE13__move_assignERS3_NS_17integral_constantIbLb1EEE, symObjAddr: 0x1D64, symBinAddr: 0x100005804, symSize: 0xAC }
  - { offsetInCU: 0x14F3B, offset: 0x1B3B4, size: 0x8, addend: 0x0, symName: __ZNSt3__16vectorIjNS_9allocatorIjEEE13__vdeallocateEv, symObjAddr: 0x1E10, symBinAddr: 0x1000058B0, symSize: 0x8C }
  - { offsetInCU: 0x14F63, offset: 0x1B3DC, size: 0x8, addend: 0x0, symName: __ZNSt3__16vectorIjNS_9allocatorIjEEE19__move_assign_allocB7v160006ERS3_, symObjAddr: 0x1E9C, symBinAddr: 0x10000593C, symSize: 0x2C }
  - { offsetInCU: 0x14F97, offset: 0x1B410, size: 0x8, addend: 0x0, symName: __ZNSt3__16vectorIjNS_9allocatorIjEEE9__end_capB7v160006Ev, symObjAddr: 0x1EC8, symBinAddr: 0x100005968, symSize: 0x28 }
  - { offsetInCU: 0x14FBC, offset: 0x1B435, size: 0x8, addend: 0x0, symName: __ZNSt3__16vectorIjNS_9allocatorIjEEE5clearB7v160006Ev, symObjAddr: 0x1F04, symBinAddr: 0x1000059A4, symSize: 0x54 }
  - { offsetInCU: 0x14FF0, offset: 0x1B469, size: 0x8, addend: 0x0, symName: __ZNSt3__116allocator_traitsINS_9allocatorIjEEE10deallocateB7v160006ERS2_Pjm, symObjAddr: 0x1F58, symBinAddr: 0x1000059F8, symSize: 0x34 }
  - { offsetInCU: 0x15031, offset: 0x1B4AA, size: 0x8, addend: 0x0, symName: __ZNSt3__16vectorIjNS_9allocatorIjEEE7__allocB7v160006Ev, symObjAddr: 0x1F8C, symBinAddr: 0x100005A2C, symSize: 0x28 }
  - { offsetInCU: 0x15056, offset: 0x1B4CF, size: 0x8, addend: 0x0, symName: __ZNKSt3__16vectorIjNS_9allocatorIjEEE8capacityB7v160006Ev, symObjAddr: 0x1FB4, symBinAddr: 0x100005A54, symSize: 0x40 }
  - { offsetInCU: 0x1507B, offset: 0x1B4F4, size: 0x8, addend: 0x0, symName: __ZNKSt3__16vectorIjNS_9allocatorIjEEE4sizeB7v160006Ev, symObjAddr: 0x1FF4, symBinAddr: 0x100005A94, symSize: 0x28 }
  - { offsetInCU: 0x150A0, offset: 0x1B519, size: 0x8, addend: 0x0, symName: __ZNSt3__16vectorIjNS_9allocatorIjEEE7__clearB7v160006Ev, symObjAddr: 0x201C, symBinAddr: 0x100005ABC, symSize: 0x28 }
  - { offsetInCU: 0x150C5, offset: 0x1B53E, size: 0x8, addend: 0x0, symName: __ZNKSt3__16vectorIjNS_9allocatorIjEEE17__annotate_shrinkB7v160006Em, symObjAddr: 0x2044, symBinAddr: 0x100005AE4, symSize: 0xB4 }
  - { offsetInCU: 0x150F9, offset: 0x1B572, size: 0x8, addend: 0x0, symName: __ZNSt3__16vectorIjNS_9allocatorIjEEE22__base_destruct_at_endB7v160006EPj, symObjAddr: 0x2108, symBinAddr: 0x100005BA8, symSize: 0x8C }
  - { offsetInCU: 0x1513C, offset: 0x1B5B5, size: 0x8, addend: 0x0, symName: __ZNSt3__116allocator_traitsINS_9allocatorIjEEE7destroyB7v160006IjvEEvRS2_PT_, symObjAddr: 0x2194, symBinAddr: 0x100005C34, symSize: 0x2C }
  - { offsetInCU: 0x15178, offset: 0x1B5F1, size: 0x8, addend: 0x0, symName: __ZNSt3__19allocatorIjE7destroyB7v160006EPj, symObjAddr: 0x21D4, symBinAddr: 0x100005C74, symSize: 0x14 }
  - { offsetInCU: 0x151AB, offset: 0x1B624, size: 0x8, addend: 0x0, symName: __ZNKSt3__16vectorIjNS_9allocatorIjEEE31__annotate_contiguous_containerB7v160006EPKvS5_S5_S5_, symObjAddr: 0x21E8, symBinAddr: 0x100005C88, symSize: 0x20 }
  - { offsetInCU: 0x151FC, offset: 0x1B675, size: 0x8, addend: 0x0, symName: __ZNKSt3__16vectorIjNS_9allocatorIjEEE4dataB7v160006Ev, symObjAddr: 0x2208, symBinAddr: 0x100005CA8, symSize: 0x28 }
  - { offsetInCU: 0x15221, offset: 0x1B69A, size: 0x8, addend: 0x0, symName: __ZNSt3__19allocatorIjE10deallocateB7v160006EPjm, symObjAddr: 0x2230, symBinAddr: 0x100005CD0, symSize: 0x40 }
  - { offsetInCU: 0x15262, offset: 0x1B6DB, size: 0x8, addend: 0x0, symName: __ZNSt3__117__compressed_pairIPjNS_9allocatorIjEEE6secondB7v160006Ev, symObjAddr: 0x2270, symBinAddr: 0x100005D10, symSize: 0x24 }
  - { offsetInCU: 0x15287, offset: 0x1B700, size: 0x8, addend: 0x0, symName: __ZNSt3__122__compressed_pair_elemINS_9allocatorIjEELi1ELb1EE5__getB7v160006Ev, symObjAddr: 0x2294, symBinAddr: 0x100005D34, symSize: 0x14 }
  - { offsetInCU: 0x152AC, offset: 0x1B725, size: 0x8, addend: 0x0, symName: __ZNKSt3__16vectorIjNS_9allocatorIjEEE9__end_capB7v160006Ev, symObjAddr: 0x22A8, symBinAddr: 0x100005D48, symSize: 0x28 }
  - { offsetInCU: 0x152D1, offset: 0x1B74A, size: 0x8, addend: 0x0, symName: __ZNKSt3__117__compressed_pairIPjNS_9allocatorIjEEE5firstB7v160006Ev, symObjAddr: 0x22D0, symBinAddr: 0x100005D70, symSize: 0x24 }
  - { offsetInCU: 0x152F6, offset: 0x1B76F, size: 0x8, addend: 0x0, symName: __ZNKSt3__122__compressed_pair_elemIPjLi0ELb0EE5__getB7v160006Ev, symObjAddr: 0x22F4, symBinAddr: 0x100005D94, symSize: 0x14 }
  - { offsetInCU: 0x1531B, offset: 0x1B794, size: 0x8, addend: 0x0, symName: __ZNSt3__16vectorIjNS_9allocatorIjEEE19__move_assign_allocB7v160006ERS3_NS_17integral_constantIbLb1EEE, symObjAddr: 0x2308, symBinAddr: 0x100005DA8, symSize: 0x38 }
  - { offsetInCU: 0x1535A, offset: 0x1B7D3, size: 0x8, addend: 0x0, symName: __ZNSt3__117__compressed_pairIPjNS_9allocatorIjEEE5firstB7v160006Ev, symObjAddr: 0x2340, symBinAddr: 0x100005DE0, symSize: 0x24 }
  - { offsetInCU: 0x1537F, offset: 0x1B7F8, size: 0x8, addend: 0x0, symName: __ZNSt3__122__compressed_pair_elemIPjLi0ELb0EE5__getB7v160006Ev, symObjAddr: 0x2364, symBinAddr: 0x100005E04, symSize: 0x14 }
  - { offsetInCU: 0x153A3, offset: 0x1B81C, size: 0x8, addend: 0x0, symName: __ZNSt3__16vectorI7TextureNS_9allocatorIS1_EEE13__move_assignERS4_NS_17integral_constantIbLb1EEE, symObjAddr: 0x2378, symBinAddr: 0x100005E18, symSize: 0xAC }
  - { offsetInCU: 0x153E4, offset: 0x1B85D, size: 0x8, addend: 0x0, symName: __ZNSt3__16vectorI7TextureNS_9allocatorIS1_EEE13__vdeallocateEv, symObjAddr: 0x2424, symBinAddr: 0x100005EC4, symSize: 0x8C }
  - { offsetInCU: 0x1540C, offset: 0x1B885, size: 0x8, addend: 0x0, symName: __ZNSt3__16vectorI7TextureNS_9allocatorIS1_EEE19__move_assign_allocB7v160006ERS4_, symObjAddr: 0x24B0, symBinAddr: 0x100005F50, symSize: 0x2C }
  - { offsetInCU: 0x15440, offset: 0x1B8B9, size: 0x8, addend: 0x0, symName: __ZNSt3__16vectorI7TextureNS_9allocatorIS1_EEE9__end_capB7v160006Ev, symObjAddr: 0x24DC, symBinAddr: 0x100005F7C, symSize: 0x28 }
  - { offsetInCU: 0x15465, offset: 0x1B8DE, size: 0x8, addend: 0x0, symName: __ZNSt3__16vectorI7TextureNS_9allocatorIS1_EEE5clearB7v160006Ev, symObjAddr: 0x2518, symBinAddr: 0x100005FB8, symSize: 0x54 }
  - { offsetInCU: 0x15499, offset: 0x1B912, size: 0x8, addend: 0x0, symName: __ZNSt3__116allocator_traitsINS_9allocatorI7TextureEEE10deallocateB7v160006ERS3_PS2_m, symObjAddr: 0x256C, symBinAddr: 0x10000600C, symSize: 0x34 }
  - { offsetInCU: 0x154DA, offset: 0x1B953, size: 0x8, addend: 0x0, symName: __ZNSt3__16vectorI7TextureNS_9allocatorIS1_EEE7__allocB7v160006Ev, symObjAddr: 0x25A0, symBinAddr: 0x100006040, symSize: 0x28 }
  - { offsetInCU: 0x154FF, offset: 0x1B978, size: 0x8, addend: 0x0, symName: __ZNKSt3__16vectorI7TextureNS_9allocatorIS1_EEE8capacityB7v160006Ev, symObjAddr: 0x25C8, symBinAddr: 0x100006068, symSize: 0x40 }
  - { offsetInCU: 0x15524, offset: 0x1B99D, size: 0x8, addend: 0x0, symName: __ZNKSt3__16vectorI7TextureNS_9allocatorIS1_EEE4sizeB7v160006Ev, symObjAddr: 0x2608, symBinAddr: 0x1000060A8, symSize: 0x28 }
  - { offsetInCU: 0x15549, offset: 0x1B9C2, size: 0x8, addend: 0x0, symName: __ZNSt3__16vectorI7TextureNS_9allocatorIS1_EEE7__clearB7v160006Ev, symObjAddr: 0x2630, symBinAddr: 0x1000060D0, symSize: 0x28 }
  - { offsetInCU: 0x1556E, offset: 0x1B9E7, size: 0x8, addend: 0x0, symName: __ZNKSt3__16vectorI7TextureNS_9allocatorIS1_EEE17__annotate_shrinkB7v160006Em, symObjAddr: 0x2658, symBinAddr: 0x1000060F8, symSize: 0xD0 }
  - { offsetInCU: 0x155A2, offset: 0x1BA1B, size: 0x8, addend: 0x0, symName: __ZNSt3__16vectorI7TextureNS_9allocatorIS1_EEE22__base_destruct_at_endB7v160006EPS1_, symObjAddr: 0x2738, symBinAddr: 0x1000061D8, symSize: 0x8C }
  - { offsetInCU: 0x155E5, offset: 0x1BA5E, size: 0x8, addend: 0x0, symName: __ZNSt3__116allocator_traitsINS_9allocatorI7TextureEEE7destroyB7v160006IS2_vEEvRS3_PT_, symObjAddr: 0x27C4, symBinAddr: 0x100006264, symSize: 0x2C }
  - { offsetInCU: 0x15621, offset: 0x1BA9A, size: 0x8, addend: 0x0, symName: __ZNSt3__19allocatorI7TextureE7destroyB7v160006EPS1_, symObjAddr: 0x2804, symBinAddr: 0x1000062A4, symSize: 0x28 }
  - { offsetInCU: 0x15659, offset: 0x1BAD2, size: 0x8, addend: 0x0, symName: __ZN7TextureD1Ev, symObjAddr: 0x282C, symBinAddr: 0x1000062CC, symSize: 0x2C }
  - { offsetInCU: 0x15683, offset: 0x1BAFC, size: 0x8, addend: 0x0, symName: __ZN7TextureD2Ev, symObjAddr: 0x2858, symBinAddr: 0x1000062F8, symSize: 0x3C }
  - { offsetInCU: 0x156AD, offset: 0x1BB26, size: 0x8, addend: 0x0, symName: __ZNKSt3__16vectorI7TextureNS_9allocatorIS1_EEE31__annotate_contiguous_containerB7v160006EPKvS6_S6_S6_, symObjAddr: 0x2894, symBinAddr: 0x100006334, symSize: 0x20 }
  - { offsetInCU: 0x156FE, offset: 0x1BB77, size: 0x8, addend: 0x0, symName: __ZNKSt3__16vectorI7TextureNS_9allocatorIS1_EEE4dataB7v160006Ev, symObjAddr: 0x28B4, symBinAddr: 0x100006354, symSize: 0x28 }
  - { offsetInCU: 0x15723, offset: 0x1BB9C, size: 0x8, addend: 0x0, symName: __ZNSt3__19allocatorI7TextureE10deallocateB7v160006EPS1_m, symObjAddr: 0x28DC, symBinAddr: 0x10000637C, symSize: 0x44 }
  - { offsetInCU: 0x15764, offset: 0x1BBDD, size: 0x8, addend: 0x0, symName: __ZNSt3__117__compressed_pairIP7TextureNS_9allocatorIS1_EEE6secondB7v160006Ev, symObjAddr: 0x2920, symBinAddr: 0x1000063C0, symSize: 0x24 }
  - { offsetInCU: 0x15789, offset: 0x1BC02, size: 0x8, addend: 0x0, symName: __ZNSt3__122__compressed_pair_elemINS_9allocatorI7TextureEELi1ELb1EE5__getB7v160006Ev, symObjAddr: 0x2944, symBinAddr: 0x1000063E4, symSize: 0x14 }
  - { offsetInCU: 0x157AE, offset: 0x1BC27, size: 0x8, addend: 0x0, symName: __ZNKSt3__16vectorI7TextureNS_9allocatorIS1_EEE9__end_capB7v160006Ev, symObjAddr: 0x2958, symBinAddr: 0x1000063F8, symSize: 0x28 }
  - { offsetInCU: 0x157D3, offset: 0x1BC4C, size: 0x8, addend: 0x0, symName: __ZNKSt3__117__compressed_pairIP7TextureNS_9allocatorIS1_EEE5firstB7v160006Ev, symObjAddr: 0x2980, symBinAddr: 0x100006420, symSize: 0x24 }
  - { offsetInCU: 0x157F8, offset: 0x1BC71, size: 0x8, addend: 0x0, symName: __ZNKSt3__122__compressed_pair_elemIP7TextureLi0ELb0EE5__getB7v160006Ev, symObjAddr: 0x29A4, symBinAddr: 0x100006444, symSize: 0x14 }
  - { offsetInCU: 0x1581D, offset: 0x1BC96, size: 0x8, addend: 0x0, symName: __ZNSt3__16vectorI7TextureNS_9allocatorIS1_EEE19__move_assign_allocB7v160006ERS4_NS_17integral_constantIbLb1EEE, symObjAddr: 0x29B8, symBinAddr: 0x100006458, symSize: 0x38 }
  - { offsetInCU: 0x1585C, offset: 0x1BCD5, size: 0x8, addend: 0x0, symName: __ZNSt3__117__compressed_pairIP7TextureNS_9allocatorIS1_EEE5firstB7v160006Ev, symObjAddr: 0x29F0, symBinAddr: 0x100006490, symSize: 0x24 }
  - { offsetInCU: 0x15881, offset: 0x1BCFA, size: 0x8, addend: 0x0, symName: __ZNSt3__122__compressed_pair_elemIP7TextureLi0ELb0EE5__getB7v160006Ev, symObjAddr: 0x2A14, symBinAddr: 0x1000064B4, symSize: 0x14 }
  - { offsetInCU: 0x158A6, offset: 0x1BD1F, size: 0x8, addend: 0x0, symName: __ZN4MeshD2Ev, symObjAddr: 0x2A28, symBinAddr: 0x1000064C8, symSize: 0x44 }
  - { offsetInCU: 0x158D0, offset: 0x1BD49, size: 0x8, addend: 0x0, symName: __ZNSt3__16vectorI7TextureNS_9allocatorIS1_EEED1B7v160006Ev, symObjAddr: 0x2A6C, symBinAddr: 0x10000650C, symSize: 0x2C }
  - { offsetInCU: 0x158F9, offset: 0x1BD72, size: 0x8, addend: 0x0, symName: __ZNSt3__16vectorI7TextureNS_9allocatorIS1_EEED2B7v160006Ev, symObjAddr: 0x2A98, symBinAddr: 0x100006538, symSize: 0x44 }
  - { offsetInCU: 0x15922, offset: 0x1BD9B, size: 0x8, addend: 0x0, symName: __ZNSt3__16vectorI7TextureNS_9allocatorIS1_EEE16__destroy_vectorC1ERS4_, symObjAddr: 0x2ADC, symBinAddr: 0x10000657C, symSize: 0x34 }
  - { offsetInCU: 0x1595A, offset: 0x1BDD3, size: 0x8, addend: 0x0, symName: __ZNSt3__16vectorI7TextureNS_9allocatorIS1_EEE16__destroy_vectorclB7v160006Ev, symObjAddr: 0x2B10, symBinAddr: 0x1000065B0, symSize: 0x9C }
  - { offsetInCU: 0x1597F, offset: 0x1BDF8, size: 0x8, addend: 0x0, symName: __ZNSt3__16vectorI7TextureNS_9allocatorIS1_EEE16__destroy_vectorC2ERS4_, symObjAddr: 0x2BAC, symBinAddr: 0x10000664C, symSize: 0x20 }
  - { offsetInCU: 0x159B7, offset: 0x1BE30, size: 0x8, addend: 0x0, symName: __ZNKSt3__16vectorI7TextureNS_9allocatorIS1_EEE17__annotate_deleteB7v160006Ev, symObjAddr: 0x2BCC, symBinAddr: 0x10000666C, symSize: 0xD4 }
  - { offsetInCU: 0x159DC, offset: 0x1BE55, size: 0x8, addend: 0x0, symName: __ZNKSt3__111__wrap_iterIP4MeshE4baseB7v160006Ev, symObjAddr: 0x2CF8, symBinAddr: 0x100006798, symSize: 0x18 }
  - { offsetInCU: 0x15A01, offset: 0x1BE7A, size: 0x8, addend: 0x0, symName: __ZN5ModelD2Ev, symObjAddr: 0x2D10, symBinAddr: 0x1000067B0, symSize: 0x44 }
  - { offsetInCU: 0x15A2B, offset: 0x1BEA4, size: 0x8, addend: 0x0, symName: __ZNSt3__16vectorI4MeshNS_9allocatorIS1_EEED1B7v160006Ev, symObjAddr: 0x2D54, symBinAddr: 0x1000067F4, symSize: 0x2C }
  - { offsetInCU: 0x15A54, offset: 0x1BECD, size: 0x8, addend: 0x0, symName: __ZNSt3__16vectorI4MeshNS_9allocatorIS1_EEED2B7v160006Ev, symObjAddr: 0x2D80, symBinAddr: 0x100006820, symSize: 0x44 }
  - { offsetInCU: 0x15A7D, offset: 0x1BEF6, size: 0x8, addend: 0x0, symName: __ZNSt3__16vectorI4MeshNS_9allocatorIS1_EEE16__destroy_vectorC1ERS4_, symObjAddr: 0x2DC4, symBinAddr: 0x100006864, symSize: 0x34 }
  - { offsetInCU: 0x15AB5, offset: 0x1BF2E, size: 0x8, addend: 0x0, symName: __ZNSt3__16vectorI4MeshNS_9allocatorIS1_EEE16__destroy_vectorclB7v160006Ev, symObjAddr: 0x2DF8, symBinAddr: 0x100006898, symSize: 0x9C }
  - { offsetInCU: 0x15ADA, offset: 0x1BF53, size: 0x8, addend: 0x0, symName: __ZNSt3__16vectorI4MeshNS_9allocatorIS1_EEE16__destroy_vectorC2ERS4_, symObjAddr: 0x2E94, symBinAddr: 0x100006934, symSize: 0x20 }
  - { offsetInCU: 0x15B12, offset: 0x1BF8B, size: 0x8, addend: 0x0, symName: __ZNKSt3__16vectorI4MeshNS_9allocatorIS1_EEE17__annotate_deleteB7v160006Ev, symObjAddr: 0x2EB4, symBinAddr: 0x100006954, symSize: 0xD4 }
  - { offsetInCU: 0x15B37, offset: 0x1BFB0, size: 0x8, addend: 0x0, symName: __ZNSt3__16vectorI4MeshNS_9allocatorIS1_EEE7__clearB7v160006Ev, symObjAddr: 0x2F98, symBinAddr: 0x100006A38, symSize: 0x28 }
  - { offsetInCU: 0x15B5C, offset: 0x1BFD5, size: 0x8, addend: 0x0, symName: __ZNSt3__116allocator_traitsINS_9allocatorI4MeshEEE10deallocateB7v160006ERS3_PS2_m, symObjAddr: 0x2FC0, symBinAddr: 0x100006A60, symSize: 0x34 }
  - { offsetInCU: 0x15B9D, offset: 0x1C016, size: 0x8, addend: 0x0, symName: __ZNSt3__16vectorI4MeshNS_9allocatorIS1_EEE7__allocB7v160006Ev, symObjAddr: 0x2FF4, symBinAddr: 0x100006A94, symSize: 0x28 }
  - { offsetInCU: 0x15BC2, offset: 0x1C03B, size: 0x8, addend: 0x0, symName: __ZNKSt3__16vectorI4MeshNS_9allocatorIS1_EEE8capacityB7v160006Ev, symObjAddr: 0x301C, symBinAddr: 0x100006ABC, symSize: 0x40 }
  - { offsetInCU: 0x15BE7, offset: 0x1C060, size: 0x8, addend: 0x0, symName: __ZNKSt3__16vectorI4MeshNS_9allocatorIS1_EEE31__annotate_contiguous_containerB7v160006EPKvS6_S6_S6_, symObjAddr: 0x305C, symBinAddr: 0x100006AFC, symSize: 0x20 }
  - { offsetInCU: 0x15C38, offset: 0x1C0B1, size: 0x8, addend: 0x0, symName: __ZNKSt3__16vectorI4MeshNS_9allocatorIS1_EEE4dataB7v160006Ev, symObjAddr: 0x307C, symBinAddr: 0x100006B1C, symSize: 0x28 }
  - { offsetInCU: 0x15C5D, offset: 0x1C0D6, size: 0x8, addend: 0x0, symName: __ZNKSt3__16vectorI4MeshNS_9allocatorIS1_EEE4sizeB7v160006Ev, symObjAddr: 0x30A4, symBinAddr: 0x100006B44, symSize: 0x28 }
  - { offsetInCU: 0x15C82, offset: 0x1C0FB, size: 0x8, addend: 0x0, symName: __ZNSt3__16vectorI4MeshNS_9allocatorIS1_EEE22__base_destruct_at_endB7v160006EPS1_, symObjAddr: 0x30E0, symBinAddr: 0x100006B80, symSize: 0x8C }
  - { offsetInCU: 0x15CC5, offset: 0x1C13E, size: 0x8, addend: 0x0, symName: __ZNSt3__116allocator_traitsINS_9allocatorI4MeshEEE7destroyB7v160006IS2_vEEvRS3_PT_, symObjAddr: 0x316C, symBinAddr: 0x100006C0C, symSize: 0x2C }
  - { offsetInCU: 0x15D01, offset: 0x1C17A, size: 0x8, addend: 0x0, symName: __ZNSt3__19allocatorI4MeshE7destroyB7v160006EPS1_, symObjAddr: 0x3198, symBinAddr: 0x100006C38, symSize: 0x28 }
  - { offsetInCU: 0x15D34, offset: 0x1C1AD, size: 0x8, addend: 0x0, symName: __ZNSt3__19allocatorI4MeshE10deallocateB7v160006EPS1_m, symObjAddr: 0x31C0, symBinAddr: 0x100006C60, symSize: 0x44 }
  - { offsetInCU: 0x15D75, offset: 0x1C1EE, size: 0x8, addend: 0x0, symName: __ZNSt3__117__compressed_pairIP4MeshNS_9allocatorIS1_EEE6secondB7v160006Ev, symObjAddr: 0x3204, symBinAddr: 0x100006CA4, symSize: 0x24 }
  - { offsetInCU: 0x15D9A, offset: 0x1C213, size: 0x8, addend: 0x0, symName: __ZNSt3__122__compressed_pair_elemINS_9allocatorI4MeshEELi1ELb1EE5__getB7v160006Ev, symObjAddr: 0x3228, symBinAddr: 0x100006CC8, symSize: 0x14 }
  - { offsetInCU: 0x15DBF, offset: 0x1C238, size: 0x8, addend: 0x0, symName: __ZNKSt3__16vectorI4MeshNS_9allocatorIS1_EEE9__end_capB7v160006Ev, symObjAddr: 0x323C, symBinAddr: 0x100006CDC, symSize: 0x28 }
  - { offsetInCU: 0x15DE4, offset: 0x1C25D, size: 0x8, addend: 0x0, symName: __ZNKSt3__117__compressed_pairIP4MeshNS_9allocatorIS1_EEE5firstB7v160006Ev, symObjAddr: 0x3264, symBinAddr: 0x100006D04, symSize: 0x24 }
  - { offsetInCU: 0x15E09, offset: 0x1C282, size: 0x8, addend: 0x0, symName: __ZNKSt3__122__compressed_pair_elemIP4MeshLi0ELb0EE5__getB7v160006Ev, symObjAddr: 0x3288, symBinAddr: 0x100006D28, symSize: 0x14 }
  - { offsetInCU: 0x15E2E, offset: 0x1C2A7, size: 0x8, addend: 0x0, symName: __ZN3glm3vecILi2EfLNS_9qualifierE0EEC2IiiEET_T0_, symObjAddr: 0x329C, symBinAddr: 0x100006D3C, symSize: 0x34 }
  - { offsetInCU: 0x15E86, offset: 0x1C2FF, size: 0x8, addend: 0x0, symName: __ZN3glm3vecILi2EfLNS_9qualifierE0EEC1Eff, symObjAddr: 0x32D0, symBinAddr: 0x100006D70, symSize: 0x3C }
  - { offsetInCU: 0x15ECC, offset: 0x1C345, size: 0x8, addend: 0x0, symName: __ZN3glm3vecILi2EfLNS_9qualifierE0EEC2Eff, symObjAddr: 0x330C, symBinAddr: 0x100006DAC, symSize: 0x2C }
  - { offsetInCU: 0x15F12, offset: 0x1C38B, size: 0x8, addend: 0x0, symName: __ZNSt3__16vectorI6VertexNS_9allocatorIS1_EEED2B7v160006Ev, symObjAddr: 0x3338, symBinAddr: 0x100006DD8, symSize: 0x44 }
  - { offsetInCU: 0x15F3B, offset: 0x1C3B4, size: 0x8, addend: 0x0, symName: __ZNSt3__16vectorI6VertexNS_9allocatorIS1_EEE16__destroy_vectorC1ERS4_, symObjAddr: 0x337C, symBinAddr: 0x100006E1C, symSize: 0x34 }
  - { offsetInCU: 0x15F73, offset: 0x1C3EC, size: 0x8, addend: 0x0, symName: __ZNSt3__16vectorI6VertexNS_9allocatorIS1_EEE16__destroy_vectorclB7v160006Ev, symObjAddr: 0x33B0, symBinAddr: 0x100006E50, symSize: 0x9C }
  - { offsetInCU: 0x15F98, offset: 0x1C411, size: 0x8, addend: 0x0, symName: __ZNSt3__16vectorI6VertexNS_9allocatorIS1_EEE16__destroy_vectorC2ERS4_, symObjAddr: 0x344C, symBinAddr: 0x100006EEC, symSize: 0x20 }
  - { offsetInCU: 0x15FD0, offset: 0x1C449, size: 0x8, addend: 0x0, symName: __ZNKSt3__16vectorI6VertexNS_9allocatorIS1_EEE17__annotate_deleteB7v160006Ev, symObjAddr: 0x346C, symBinAddr: 0x100006F0C, symSize: 0xD4 }
  - { offsetInCU: 0x15FF5, offset: 0x1C46E, size: 0x8, addend: 0x0, symName: __ZNSt3__16vectorIjNS_9allocatorIjEEED2B7v160006Ev, symObjAddr: 0x3550, symBinAddr: 0x100006FF0, symSize: 0x44 }
  - { offsetInCU: 0x1601E, offset: 0x1C497, size: 0x8, addend: 0x0, symName: __ZNSt3__16vectorIjNS_9allocatorIjEEE16__destroy_vectorC1ERS3_, symObjAddr: 0x3594, symBinAddr: 0x100007034, symSize: 0x34 }
  - { offsetInCU: 0x16056, offset: 0x1C4CF, size: 0x8, addend: 0x0, symName: __ZNSt3__16vectorIjNS_9allocatorIjEEE16__destroy_vectorclB7v160006Ev, symObjAddr: 0x35C8, symBinAddr: 0x100007068, symSize: 0x9C }
  - { offsetInCU: 0x1607B, offset: 0x1C4F4, size: 0x8, addend: 0x0, symName: __ZNSt3__16vectorIjNS_9allocatorIjEEE16__destroy_vectorC2ERS3_, symObjAddr: 0x3664, symBinAddr: 0x100007104, symSize: 0x20 }
  - { offsetInCU: 0x160B3, offset: 0x1C52C, size: 0x8, addend: 0x0, symName: __ZNKSt3__16vectorIjNS_9allocatorIjEEE17__annotate_deleteB7v160006Ev, symObjAddr: 0x3684, symBinAddr: 0x100007124, symSize: 0xB8 }
  - { offsetInCU: 0x160D8, offset: 0x1C551, size: 0x8, addend: 0x0, symName: __ZNSt3__112basic_stringIcNS_11char_traitsIcEENS_9allocatorIcEEEC2B7v160006IDnEEPKc, symObjAddr: 0x374C, symBinAddr: 0x1000071EC, symSize: 0x60 }
  - { offsetInCU: 0x16115, offset: 0x1C58E, size: 0x8, addend: 0x0, symName: __ZNSt3__117__compressed_pairINS_12basic_stringIcNS_11char_traitsIcEENS_9allocatorIcEEE5__repES5_EC1B7v160006INS_18__default_init_tagESA_EEOT_OT0_, symObjAddr: 0x37AC, symBinAddr: 0x10000724C, symSize: 0x3C }
  - { offsetInCU: 0x1616C, offset: 0x1C5E5, size: 0x8, addend: 0x0, symName: __ZNSt3__111char_traitsIcE6lengthEPKc, symObjAddr: 0x37E8, symBinAddr: 0x100007288, symSize: 0x34 }
  - { offsetInCU: 0x1618E, offset: 0x1C607, size: 0x8, addend: 0x0, symName: __ZNSt3__117__compressed_pairINS_12basic_stringIcNS_11char_traitsIcEENS_9allocatorIcEEE5__repES5_EC2B7v160006INS_18__default_init_tagESA_EEOT_OT0_, symObjAddr: 0x382C, symBinAddr: 0x1000072CC, symSize: 0x3C }
  - { offsetInCU: 0x161E5, offset: 0x1C65E, size: 0x8, addend: 0x0, symName: __ZNSt3__122__compressed_pair_elemINS_12basic_stringIcNS_11char_traitsIcEENS_9allocatorIcEEE5__repELi0ELb0EEC2B7v160006ENS_18__default_init_tagE, symObjAddr: 0x3868, symBinAddr: 0x100007308, symSize: 0x14 }
  - { offsetInCU: 0x16219, offset: 0x1C692, size: 0x8, addend: 0x0, symName: __ZNSt3__122__compressed_pair_elemINS_9allocatorIcEELi1ELb1EEC2B7v160006ENS_18__default_init_tagE, symObjAddr: 0x387C, symBinAddr: 0x10000731C, symSize: 0x2C }
  - { offsetInCU: 0x1624D, offset: 0x1C6C6, size: 0x8, addend: 0x0, symName: __ZNSt3__19allocatorIcEC2B7v160006Ev, symObjAddr: 0x38A8, symBinAddr: 0x100007348, symSize: 0x2C }
  - { offsetInCU: 0x16276, offset: 0x1C6EF, size: 0x8, addend: 0x0, symName: __ZNSt3__116__non_trivial_ifILb1ENS_9allocatorIcEEEC2B7v160006Ev, symObjAddr: 0x38D4, symBinAddr: 0x100007374, symSize: 0x14 }
  - { offsetInCU: 0x1629F, offset: 0x1C718, size: 0x8, addend: 0x0, symName: __ZNSt3__16vectorIP4MeshNS_9allocatorIS2_EEEC2B7v160006Ev, symObjAddr: 0x390C, symBinAddr: 0x1000073AC, symSize: 0x58 }
  - { offsetInCU: 0x162C8, offset: 0x1C741, size: 0x8, addend: 0x0, symName: __ZNSt3__117__compressed_pairIPP4MeshNS_9allocatorIS2_EEEC1B7v160006IDnNS_18__default_init_tagEEEOT_OT0_, symObjAddr: 0x3964, symBinAddr: 0x100007404, symSize: 0x3C }
  - { offsetInCU: 0x1631F, offset: 0x1C798, size: 0x8, addend: 0x0, symName: __ZNSt3__117__compressed_pairIPP4MeshNS_9allocatorIS2_EEEC2B7v160006IDnNS_18__default_init_tagEEEOT_OT0_, symObjAddr: 0x39B0, symBinAddr: 0x100007450, symSize: 0x40 }
  - { offsetInCU: 0x16376, offset: 0x1C7EF, size: 0x8, addend: 0x0, symName: __ZNSt3__122__compressed_pair_elemIPP4MeshLi0ELb0EEC2B7v160006IDnvEEOT_, symObjAddr: 0x39F0, symBinAddr: 0x100007490, symSize: 0x1C }
  - { offsetInCU: 0x163B7, offset: 0x1C830, size: 0x8, addend: 0x0, symName: __ZNSt3__122__compressed_pair_elemINS_9allocatorIP4MeshEELi1ELb1EEC2B7v160006ENS_18__default_init_tagE, symObjAddr: 0x3A0C, symBinAddr: 0x1000074AC, symSize: 0x2C }
  - { offsetInCU: 0x163EB, offset: 0x1C864, size: 0x8, addend: 0x0, symName: __ZNSt3__19allocatorIP4MeshEC2B7v160006Ev, symObjAddr: 0x3A38, symBinAddr: 0x1000074D8, symSize: 0x2C }
  - { offsetInCU: 0x16414, offset: 0x1C88D, size: 0x8, addend: 0x0, symName: __ZNSt3__116__non_trivial_ifILb1ENS_9allocatorIP4MeshEEEC2B7v160006Ev, symObjAddr: 0x3A64, symBinAddr: 0x100007504, symSize: 0x14 }
  - { offsetInCU: 0x1643D, offset: 0x1C8B6, size: 0x8, addend: 0x0, symName: __ZNSt3__16vectorIP4MeshNS_9allocatorIS2_EEED2B7v160006Ev, symObjAddr: 0x3A78, symBinAddr: 0x100007518, symSize: 0x44 }
  - { offsetInCU: 0x16466, offset: 0x1C8DF, size: 0x8, addend: 0x0, symName: __ZNSt3__16vectorIP4MeshNS_9allocatorIS2_EEE16__destroy_vectorC1ERS5_, symObjAddr: 0x3ABC, symBinAddr: 0x10000755C, symSize: 0x34 }
  - { offsetInCU: 0x1649E, offset: 0x1C917, size: 0x8, addend: 0x0, symName: __ZNSt3__16vectorIP4MeshNS_9allocatorIS2_EEE16__destroy_vectorclB7v160006Ev, symObjAddr: 0x3AF0, symBinAddr: 0x100007590, symSize: 0x9C }
  - { offsetInCU: 0x164C3, offset: 0x1C93C, size: 0x8, addend: 0x0, symName: __ZNSt3__16vectorIP4MeshNS_9allocatorIS2_EEE16__destroy_vectorC2ERS5_, symObjAddr: 0x3B8C, symBinAddr: 0x10000762C, symSize: 0x20 }
  - { offsetInCU: 0x164FB, offset: 0x1C974, size: 0x8, addend: 0x0, symName: __ZNKSt3__16vectorIP4MeshNS_9allocatorIS2_EEE17__annotate_deleteB7v160006Ev, symObjAddr: 0x3BAC, symBinAddr: 0x10000764C, symSize: 0xB8 }
  - { offsetInCU: 0x16520, offset: 0x1C999, size: 0x8, addend: 0x0, symName: __ZNSt3__16vectorIP4MeshNS_9allocatorIS2_EEE7__clearB7v160006Ev, symObjAddr: 0x3C74, symBinAddr: 0x100007714, symSize: 0x28 }
  - { offsetInCU: 0x16545, offset: 0x1C9BE, size: 0x8, addend: 0x0, symName: __ZNSt3__116allocator_traitsINS_9allocatorIP4MeshEEE10deallocateB7v160006ERS4_PS3_m, symObjAddr: 0x3C9C, symBinAddr: 0x10000773C, symSize: 0x34 }
  - { offsetInCU: 0x16586, offset: 0x1C9FF, size: 0x8, addend: 0x0, symName: __ZNSt3__16vectorIP4MeshNS_9allocatorIS2_EEE7__allocB7v160006Ev, symObjAddr: 0x3CD0, symBinAddr: 0x100007770, symSize: 0x28 }
  - { offsetInCU: 0x165AB, offset: 0x1CA24, size: 0x8, addend: 0x0, symName: __ZNKSt3__16vectorIP4MeshNS_9allocatorIS2_EEE8capacityB7v160006Ev, symObjAddr: 0x3CF8, symBinAddr: 0x100007798, symSize: 0x40 }
  - { offsetInCU: 0x165D0, offset: 0x1CA49, size: 0x8, addend: 0x0, symName: __ZNKSt3__16vectorIP4MeshNS_9allocatorIS2_EEE31__annotate_contiguous_containerB7v160006EPKvS7_S7_S7_, symObjAddr: 0x3D38, symBinAddr: 0x1000077D8, symSize: 0x20 }
  - { offsetInCU: 0x16621, offset: 0x1CA9A, size: 0x8, addend: 0x0, symName: __ZNKSt3__16vectorIP4MeshNS_9allocatorIS2_EEE4dataB7v160006Ev, symObjAddr: 0x3D58, symBinAddr: 0x1000077F8, symSize: 0x28 }
  - { offsetInCU: 0x16646, offset: 0x1CABF, size: 0x8, addend: 0x0, symName: __ZNKSt3__16vectorIP4MeshNS_9allocatorIS2_EEE4sizeB7v160006Ev, symObjAddr: 0x3D80, symBinAddr: 0x100007820, symSize: 0x28 }
  - { offsetInCU: 0x1666B, offset: 0x1CAE4, size: 0x8, addend: 0x0, symName: __ZNSt3__16vectorIP4MeshNS_9allocatorIS2_EEE22__base_destruct_at_endB7v160006EPS2_, symObjAddr: 0x3DBC, symBinAddr: 0x10000785C, symSize: 0x8C }
  - { offsetInCU: 0x166AE, offset: 0x1CB27, size: 0x8, addend: 0x0, symName: __ZNSt3__116allocator_traitsINS_9allocatorIP4MeshEEE7destroyB7v160006IS3_vEEvRS4_PT_, symObjAddr: 0x3E48, symBinAddr: 0x1000078E8, symSize: 0x2C }
  - { offsetInCU: 0x166EA, offset: 0x1CB63, size: 0x8, addend: 0x0, symName: __ZNSt3__19allocatorIP4MeshE7destroyB7v160006EPS2_, symObjAddr: 0x3E74, symBinAddr: 0x100007914, symSize: 0x14 }
  - { offsetInCU: 0x1671D, offset: 0x1CB96, size: 0x8, addend: 0x0, symName: __ZNSt3__19allocatorIP4MeshE10deallocateB7v160006EPS2_m, symObjAddr: 0x3E88, symBinAddr: 0x100007928, symSize: 0x40 }
  - { offsetInCU: 0x1675E, offset: 0x1CBD7, size: 0x8, addend: 0x0, symName: __ZNSt3__117__compressed_pairIPP4MeshNS_9allocatorIS2_EEE6secondB7v160006Ev, symObjAddr: 0x3EC8, symBinAddr: 0x100007968, symSize: 0x24 }
  - { offsetInCU: 0x16783, offset: 0x1CBFC, size: 0x8, addend: 0x0, symName: __ZNSt3__122__compressed_pair_elemINS_9allocatorIP4MeshEELi1ELb1EE5__getB7v160006Ev, symObjAddr: 0x3EEC, symBinAddr: 0x10000798C, symSize: 0x14 }
  - { offsetInCU: 0x167A8, offset: 0x1CC21, size: 0x8, addend: 0x0, symName: __ZNKSt3__16vectorIP4MeshNS_9allocatorIS2_EEE9__end_capB7v160006Ev, symObjAddr: 0x3F00, symBinAddr: 0x1000079A0, symSize: 0x28 }
  - { offsetInCU: 0x167CD, offset: 0x1CC46, size: 0x8, addend: 0x0, symName: __ZNKSt3__117__compressed_pairIPP4MeshNS_9allocatorIS2_EEE5firstB7v160006Ev, symObjAddr: 0x3F28, symBinAddr: 0x1000079C8, symSize: 0x24 }
  - { offsetInCU: 0x167F2, offset: 0x1CC6B, size: 0x8, addend: 0x0, symName: __ZNKSt3__122__compressed_pair_elemIPP4MeshLi0ELb0EE5__getB7v160006Ev, symObjAddr: 0x3F4C, symBinAddr: 0x1000079EC, symSize: 0x14 }
  - { offsetInCU: 0x16817, offset: 0x1CC90, size: 0x8, addend: 0x0, symName: __ZNSt3__16vectorINS_12basic_stringIcNS_11char_traitsIcEENS_9allocatorIcEEEENS4_IS6_EEEC2B7v160006ESt16initializer_listIS6_E, symObjAddr: 0x3F60, symBinAddr: 0x100007A00, symSize: 0x124 }
  - { offsetInCU: 0x16868, offset: 0x1CCE1, size: 0x8, addend: 0x0, symName: __ZNSt3__117__compressed_pairIPNS_12basic_stringIcNS_11char_traitsIcEENS_9allocatorIcEEEENS4_IS6_EEEC1B7v160006IDnNS_18__default_init_tagEEEOT_OT0_, symObjAddr: 0x4084, symBinAddr: 0x100007B24, symSize: 0x3C }
  - { offsetInCU: 0x168BF, offset: 0x1CD38, size: 0x8, addend: 0x0, symName: __ZNSt3__16vectorINS_12basic_stringIcNS_11char_traitsIcEENS_9allocatorIcEEEENS4_IS6_EEE16__destroy_vectorC1ERS8_, symObjAddr: 0x4100, symBinAddr: 0x100007BA0, symSize: 0x34 }
  - { offsetInCU: 0x168F7, offset: 0x1CD70, size: 0x8, addend: 0x0, symName: __ZNKSt16initializer_listINSt3__112basic_stringIcNS0_11char_traitsIcEENS0_9allocatorIcEEEEE4sizeB7v160006Ev, symObjAddr: 0x4144, symBinAddr: 0x100007BE4, symSize: 0x18 }
  - { offsetInCU: 0x1691C, offset: 0x1CD95, size: 0x8, addend: 0x0, symName: __ZNSt3__16vectorINS_12basic_stringIcNS_11char_traitsIcEENS_9allocatorIcEEEENS4_IS6_EEE11__vallocateB7v160006Em, symObjAddr: 0x415C, symBinAddr: 0x100007BFC, symSize: 0xB4 }
  - { offsetInCU: 0x1695E, offset: 0x1CDD7, size: 0x8, addend: 0x0, symName: __ZNSt3__16vectorINS_12basic_stringIcNS_11char_traitsIcEENS_9allocatorIcEEEENS4_IS6_EEE18__construct_at_endIPKS6_Li0EEEvT_SC_m, symObjAddr: 0x4210, symBinAddr: 0x100007CB0, symSize: 0x8C }
  - { offsetInCU: 0x169D1, offset: 0x1CE4A, size: 0x8, addend: 0x0, symName: __ZNKSt16initializer_listINSt3__112basic_stringIcNS0_11char_traitsIcEENS0_9allocatorIcEEEEE5beginB7v160006Ev, symObjAddr: 0x429C, symBinAddr: 0x100007D3C, symSize: 0x18 }
  - { offsetInCU: 0x169F6, offset: 0x1CE6F, size: 0x8, addend: 0x0, symName: __ZNKSt16initializer_listINSt3__112basic_stringIcNS0_11char_traitsIcEENS0_9allocatorIcEEEEE3endB7v160006Ev, symObjAddr: 0x42B4, symBinAddr: 0x100007D54, symSize: 0x28 }
  - { offsetInCU: 0x16A1B, offset: 0x1CE94, size: 0x8, addend: 0x0, symName: __ZNSt3__128__exception_guard_exceptionsINS_6vectorINS_12basic_stringIcNS_11char_traitsIcEENS_9allocatorIcEEEENS5_IS7_EEE16__destroy_vectorEE10__completeB7v160006Ev, symObjAddr: 0x42DC, symBinAddr: 0x100007D7C, symSize: 0x1C }
  - { offsetInCU: 0x16A40, offset: 0x1CEB9, size: 0x8, addend: 0x0, symName: __ZNSt3__128__exception_guard_exceptionsINS_6vectorINS_12basic_stringIcNS_11char_traitsIcEENS_9allocatorIcEEEENS5_IS7_EEE16__destroy_vectorEED1B7v160006Ev, symObjAddr: 0x42F8, symBinAddr: 0x100007D98, symSize: 0x2C }
  - { offsetInCU: 0x16A69, offset: 0x1CEE2, size: 0x8, addend: 0x0, symName: __ZNSt3__117__compressed_pairIPNS_12basic_stringIcNS_11char_traitsIcEENS_9allocatorIcEEEENS4_IS6_EEEC2B7v160006IDnNS_18__default_init_tagEEEOT_OT0_, symObjAddr: 0x4324, symBinAddr: 0x100007DC4, symSize: 0x40 }
  - { offsetInCU: 0x16AC0, offset: 0x1CF39, size: 0x8, addend: 0x0, symName: __ZNSt3__122__compressed_pair_elemIPNS_12basic_stringIcNS_11char_traitsIcEENS_9allocatorIcEEEELi0ELb0EEC2B7v160006IDnvEEOT_, symObjAddr: 0x4364, symBinAddr: 0x100007E04, symSize: 0x1C }
  - { offsetInCU: 0x16B01, offset: 0x1CF7A, size: 0x8, addend: 0x0, symName: __ZNSt3__122__compressed_pair_elemINS_9allocatorINS_12basic_stringIcNS_11char_traitsIcEENS1_IcEEEEEELi1ELb1EEC2B7v160006ENS_18__default_init_tagE, symObjAddr: 0x4380, symBinAddr: 0x100007E20, symSize: 0x2C }
  - { offsetInCU: 0x16B35, offset: 0x1CFAE, size: 0x8, addend: 0x0, symName: __ZNSt3__19allocatorINS_12basic_stringIcNS_11char_traitsIcEENS0_IcEEEEEC2B7v160006Ev, symObjAddr: 0x43AC, symBinAddr: 0x100007E4C, symSize: 0x2C }
  - { offsetInCU: 0x16B5E, offset: 0x1CFD7, size: 0x8, addend: 0x0, symName: __ZNSt3__116__non_trivial_ifILb1ENS_9allocatorINS_12basic_stringIcNS_11char_traitsIcEENS1_IcEEEEEEEC2B7v160006Ev, symObjAddr: 0x43D8, symBinAddr: 0x100007E78, symSize: 0x14 }
  - { offsetInCU: 0x16B87, offset: 0x1D000, size: 0x8, addend: 0x0, symName: __ZNSt3__128__exception_guard_exceptionsINS_6vectorINS_12basic_stringIcNS_11char_traitsIcEENS_9allocatorIcEEEENS5_IS7_EEE16__destroy_vectorEEC1B7v160006ESA_, symObjAddr: 0x43EC, symBinAddr: 0x100007E8C, symSize: 0x34 }
  - { offsetInCU: 0x16BBE, offset: 0x1D037, size: 0x8, addend: 0x0, symName: __ZNSt3__128__exception_guard_exceptionsINS_6vectorINS_12basic_stringIcNS_11char_traitsIcEENS_9allocatorIcEEEENS5_IS7_EEE16__destroy_vectorEEC2B7v160006ESA_, symObjAddr: 0x4420, symBinAddr: 0x100007EC0, symSize: 0x24 }
  - { offsetInCU: 0x16BF5, offset: 0x1D06E, size: 0x8, addend: 0x0, symName: __ZNSt3__16vectorINS_12basic_stringIcNS_11char_traitsIcEENS_9allocatorIcEEEENS4_IS6_EEE16__destroy_vectorC2ERS8_, symObjAddr: 0x4444, symBinAddr: 0x100007EE4, symSize: 0x20 }
  - { offsetInCU: 0x16C2C, offset: 0x1D0A5, size: 0x8, addend: 0x0, symName: __ZNKSt3__16vectorINS_12basic_stringIcNS_11char_traitsIcEENS_9allocatorIcEEEENS4_IS6_EEE8max_sizeEv, symObjAddr: 0x4464, symBinAddr: 0x100007F04, symSize: 0x60 }
  - { offsetInCU: 0x16C54, offset: 0x1D0CD, size: 0x8, addend: 0x0, symName: __ZNKSt3__16vectorINS_12basic_stringIcNS_11char_traitsIcEENS_9allocatorIcEEEENS4_IS6_EEE20__throw_length_errorB7v160006Ev, symObjAddr: 0x44C4, symBinAddr: 0x100007F64, symSize: 0x1C }
  - { offsetInCU: 0x16C79, offset: 0x1D0F2, size: 0x8, addend: 0x0, symName: __ZNSt3__16vectorINS_12basic_stringIcNS_11char_traitsIcEENS_9allocatorIcEEEENS4_IS6_EEE7__allocB7v160006Ev, symObjAddr: 0x4520, symBinAddr: 0x100007FC0, symSize: 0x28 }
  - { offsetInCU: 0x16C9E, offset: 0x1D117, size: 0x8, addend: 0x0, symName: __ZNSt3__16vectorINS_12basic_stringIcNS_11char_traitsIcEENS_9allocatorIcEEEENS4_IS6_EEE9__end_capB7v160006Ev, symObjAddr: 0x4548, symBinAddr: 0x100007FE8, symSize: 0x28 }
  - { offsetInCU: 0x16CC3, offset: 0x1D13C, size: 0x8, addend: 0x0, symName: __ZNKSt3__16vectorINS_12basic_stringIcNS_11char_traitsIcEENS_9allocatorIcEEEENS4_IS6_EEE14__annotate_newB7v160006Em, symObjAddr: 0x4570, symBinAddr: 0x100008010, symSize: 0xC8 }
  - { offsetInCU: 0x16D01, offset: 0x1D17A, size: 0x8, addend: 0x0, symName: __ZNSt3__116allocator_traitsINS_9allocatorINS_12basic_stringIcNS_11char_traitsIcEENS1_IcEEEEEEE8max_sizeB7v160006IS7_vEEmRKS7_, symObjAddr: 0x4664, symBinAddr: 0x100008104, symSize: 0x24 }
  - { offsetInCU: 0x16D2E, offset: 0x1D1A7, size: 0x8, addend: 0x0, symName: __ZNKSt3__16vectorINS_12basic_stringIcNS_11char_traitsIcEENS_9allocatorIcEEEENS4_IS6_EEE7__allocB7v160006Ev, symObjAddr: 0x4688, symBinAddr: 0x100008128, symSize: 0x28 }
  - { offsetInCU: 0x16D53, offset: 0x1D1CC, size: 0x8, addend: 0x0, symName: __ZNSt3__114numeric_limitsIlE3maxB7v160006Ev, symObjAddr: 0x46B0, symBinAddr: 0x100008150, symSize: 0x14 }
  - { offsetInCU: 0x16D7B, offset: 0x1D1F4, size: 0x8, addend: 0x0, symName: __ZNKSt3__16__lessImmEclB7v160006ERKmS3_, symObjAddr: 0x4718, symBinAddr: 0x1000081B8, symSize: 0x34 }
  - { offsetInCU: 0x16DBC, offset: 0x1D235, size: 0x8, addend: 0x0, symName: __ZNKSt3__19allocatorINS_12basic_stringIcNS_11char_traitsIcEENS0_IcEEEEE8max_sizeB7v160006Ev, symObjAddr: 0x474C, symBinAddr: 0x1000081EC, symSize: 0x18 }
  - { offsetInCU: 0x16DE1, offset: 0x1D25A, size: 0x8, addend: 0x0, symName: __ZNKSt3__117__compressed_pairIPNS_12basic_stringIcNS_11char_traitsIcEENS_9allocatorIcEEEENS4_IS6_EEE6secondB7v160006Ev, symObjAddr: 0x4764, symBinAddr: 0x100008204, symSize: 0x24 }
  - { offsetInCU: 0x16E06, offset: 0x1D27F, size: 0x8, addend: 0x0, symName: __ZNKSt3__122__compressed_pair_elemINS_9allocatorINS_12basic_stringIcNS_11char_traitsIcEENS1_IcEEEEEELi1ELb1EE5__getB7v160006Ev, symObjAddr: 0x4788, symBinAddr: 0x100008228, symSize: 0x14 }
  - { offsetInCU: 0x16E2B, offset: 0x1D2A4, size: 0x8, addend: 0x0, symName: __ZNSt3__123__libcpp_numeric_limitsIlLb1EE3maxB7v160006Ev, symObjAddr: 0x479C, symBinAddr: 0x10000823C, symSize: 0x8 }
  - { offsetInCU: 0x16E3E, offset: 0x1D2B7, size: 0x8, addend: 0x0, symName: __ZNSt12length_errorC1B7v160006EPKc, symObjAddr: 0x4808, symBinAddr: 0x1000082A8, symSize: 0x34 }
  - { offsetInCU: 0x16E75, offset: 0x1D2EE, size: 0x8, addend: 0x0, symName: __ZNSt12length_errorC2B7v160006EPKc, symObjAddr: 0x483C, symBinAddr: 0x1000082DC, symSize: 0x4C }
  - { offsetInCU: 0x16EAC, offset: 0x1D325, size: 0x8, addend: 0x0, symName: __ZNSt3__19allocatorINS_12basic_stringIcNS_11char_traitsIcEENS0_IcEEEEE8allocateB7v160006Em, symObjAddr: 0x4888, symBinAddr: 0x100008328, symSize: 0x5C }
  - { offsetInCU: 0x16EDF, offset: 0x1D358, size: 0x8, addend: 0x0, symName: __ZNSt3__117__compressed_pairIPNS_12basic_stringIcNS_11char_traitsIcEENS_9allocatorIcEEEENS4_IS6_EEE6secondB7v160006Ev, symObjAddr: 0x49C8, symBinAddr: 0x100008468, symSize: 0x24 }
  - { offsetInCU: 0x16F04, offset: 0x1D37D, size: 0x8, addend: 0x0, symName: __ZNSt3__122__compressed_pair_elemINS_9allocatorINS_12basic_stringIcNS_11char_traitsIcEENS1_IcEEEEEELi1ELb1EE5__getB7v160006Ev, symObjAddr: 0x49EC, symBinAddr: 0x10000848C, symSize: 0x14 }
  - { offsetInCU: 0x16F29, offset: 0x1D3A2, size: 0x8, addend: 0x0, symName: __ZNSt3__117__compressed_pairIPNS_12basic_stringIcNS_11char_traitsIcEENS_9allocatorIcEEEENS4_IS6_EEE5firstB7v160006Ev, symObjAddr: 0x4A00, symBinAddr: 0x1000084A0, symSize: 0x24 }
  - { offsetInCU: 0x16F4E, offset: 0x1D3C7, size: 0x8, addend: 0x0, symName: __ZNSt3__122__compressed_pair_elemIPNS_12basic_stringIcNS_11char_traitsIcEENS_9allocatorIcEEEELi0ELb0EE5__getB7v160006Ev, symObjAddr: 0x4A24, symBinAddr: 0x1000084C4, symSize: 0x14 }
  - { offsetInCU: 0x16F73, offset: 0x1D3EC, size: 0x8, addend: 0x0, symName: __ZNKSt3__16vectorINS_12basic_stringIcNS_11char_traitsIcEENS_9allocatorIcEEEENS4_IS6_EEE31__annotate_contiguous_containerB7v160006EPKvSA_SA_SA_, symObjAddr: 0x4A38, symBinAddr: 0x1000084D8, symSize: 0x20 }
  - { offsetInCU: 0x16FC4, offset: 0x1D43D, size: 0x8, addend: 0x0, symName: __ZNKSt3__16vectorINS_12basic_stringIcNS_11char_traitsIcEENS_9allocatorIcEEEENS4_IS6_EEE4dataB7v160006Ev, symObjAddr: 0x4A58, symBinAddr: 0x1000084F8, symSize: 0x28 }
  - { offsetInCU: 0x16FE9, offset: 0x1D462, size: 0x8, addend: 0x0, symName: __ZNKSt3__16vectorINS_12basic_stringIcNS_11char_traitsIcEENS_9allocatorIcEEEENS4_IS6_EEE8capacityB7v160006Ev, symObjAddr: 0x4A80, symBinAddr: 0x100008520, symSize: 0x40 }
  - { offsetInCU: 0x1700E, offset: 0x1D487, size: 0x8, addend: 0x0, symName: __ZNKSt3__16vectorINS_12basic_stringIcNS_11char_traitsIcEENS_9allocatorIcEEEENS4_IS6_EEE9__end_capB7v160006Ev, symObjAddr: 0x4AD4, symBinAddr: 0x100008574, symSize: 0x28 }
  - { offsetInCU: 0x17033, offset: 0x1D4AC, size: 0x8, addend: 0x0, symName: __ZNKSt3__117__compressed_pairIPNS_12basic_stringIcNS_11char_traitsIcEENS_9allocatorIcEEEENS4_IS6_EEE5firstB7v160006Ev, symObjAddr: 0x4AFC, symBinAddr: 0x10000859C, symSize: 0x24 }
  - { offsetInCU: 0x17058, offset: 0x1D4D1, size: 0x8, addend: 0x0, symName: __ZNKSt3__122__compressed_pair_elemIPNS_12basic_stringIcNS_11char_traitsIcEENS_9allocatorIcEEEELi0ELb0EE5__getB7v160006Ev, symObjAddr: 0x4B20, symBinAddr: 0x1000085C0, symSize: 0x14 }
  - { offsetInCU: 0x17096, offset: 0x1D50F, size: 0x8, addend: 0x0, symName: __ZNSt3__16vectorINS_12basic_stringIcNS_11char_traitsIcEENS_9allocatorIcEEEENS4_IS6_EEE21_ConstructTransactionC1B7v160006ERS8_m, symObjAddr: 0x4B34, symBinAddr: 0x1000085D4, symSize: 0x3C }
  - { offsetInCU: 0x170DD, offset: 0x1D556, size: 0x8, addend: 0x0, symName: __ZNSt3__16vectorINS_12basic_stringIcNS_11char_traitsIcEENS_9allocatorIcEEEENS4_IS6_EEE21_ConstructTransactionD1B7v160006Ev, symObjAddr: 0x4C64, symBinAddr: 0x100008704, symSize: 0x2C }
  - { offsetInCU: 0x17106, offset: 0x1D57F, size: 0x8, addend: 0x0, symName: __ZNSt3__16vectorINS_12basic_stringIcNS_11char_traitsIcEENS_9allocatorIcEEEENS4_IS6_EEE21_ConstructTransactionC2B7v160006ERS8_m, symObjAddr: 0x4C90, symBinAddr: 0x100008730, symSize: 0x4C }
  - { offsetInCU: 0x1714D, offset: 0x1D5C6, size: 0x8, addend: 0x0, symName: __ZNSt3__129_AllocatorDestroyRangeReverseINS_9allocatorINS_12basic_stringIcNS_11char_traitsIcEENS1_IcEEEEEEPS6_EC1B7v160006ERS7_RS8_SB_, symObjAddr: 0x4D28, symBinAddr: 0x1000087C8, symSize: 0x44 }
  - { offsetInCU: 0x171A3, offset: 0x1D61C, size: 0x8, addend: 0x0, symName: __ZNSt3__116allocator_traitsINS_9allocatorINS_12basic_stringIcNS_11char_traitsIcEENS1_IcEEEEEEE9constructB7v160006IS6_JRKS6_EvEEvRS7_PT_DpOT0_, symObjAddr: 0x4D6C, symBinAddr: 0x10000880C, symSize: 0x34 }
  - { offsetInCU: 0x171F9, offset: 0x1D672, size: 0x8, addend: 0x0, symName: __ZNSt3__128__exception_guard_exceptionsINS_29_AllocatorDestroyRangeReverseINS_9allocatorINS_12basic_stringIcNS_11char_traitsIcEENS2_IcEEEEEEPS7_EEE10__completeB7v160006Ev, symObjAddr: 0x4DA0, symBinAddr: 0x100008840, symSize: 0x1C }
  - { offsetInCU: 0x1721E, offset: 0x1D697, size: 0x8, addend: 0x0, symName: __ZNSt3__128__exception_guard_exceptionsINS_29_AllocatorDestroyRangeReverseINS_9allocatorINS_12basic_stringIcNS_11char_traitsIcEENS2_IcEEEEEEPS7_EEED1B7v160006Ev, symObjAddr: 0x4DBC, symBinAddr: 0x10000885C, symSize: 0x2C }
  - { offsetInCU: 0x17247, offset: 0x1D6C0, size: 0x8, addend: 0x0, symName: __ZNSt3__128__exception_guard_exceptionsINS_29_AllocatorDestroyRangeReverseINS_9allocatorINS_12basic_stringIcNS_11char_traitsIcEENS2_IcEEEEEEPS7_EEEC1B7v160006ESA_, symObjAddr: 0x4DE8, symBinAddr: 0x100008888, symSize: 0x34 }
  - { offsetInCU: 0x1727F, offset: 0x1D6F8, size: 0x8, addend: 0x0, symName: __ZNSt3__128__exception_guard_exceptionsINS_29_AllocatorDestroyRangeReverseINS_9allocatorINS_12basic_stringIcNS_11char_traitsIcEENS2_IcEEEEEEPS7_EEEC2B7v160006ESA_, symObjAddr: 0x4E1C, symBinAddr: 0x1000088BC, symSize: 0x30 }
  - { offsetInCU: 0x172B7, offset: 0x1D730, size: 0x8, addend: 0x0, symName: __ZNSt3__129_AllocatorDestroyRangeReverseINS_9allocatorINS_12basic_stringIcNS_11char_traitsIcEENS1_IcEEEEEEPS6_EC2B7v160006ERS7_RS8_SB_, symObjAddr: 0x4E4C, symBinAddr: 0x1000088EC, symSize: 0x38 }
  - { offsetInCU: 0x1730D, offset: 0x1D786, size: 0x8, addend: 0x0, symName: __ZNSt3__19allocatorINS_12basic_stringIcNS_11char_traitsIcEENS0_IcEEEEE9constructB7v160006IS5_JRKS5_EEEvPT_DpOT0_, symObjAddr: 0x4E84, symBinAddr: 0x100008924, symSize: 0x30 }
  - { offsetInCU: 0x17362, offset: 0x1D7DB, size: 0x8, addend: 0x0, symName: __ZNSt3__128__exception_guard_exceptionsINS_29_AllocatorDestroyRangeReverseINS_9allocatorINS_12basic_stringIcNS_11char_traitsIcEENS2_IcEEEEEEPS7_EEED2B7v160006Ev, symObjAddr: 0x4EB4, symBinAddr: 0x100008954, symSize: 0x50 }
  - { offsetInCU: 0x1738B, offset: 0x1D804, size: 0x8, addend: 0x0, symName: __ZNKSt3__129_AllocatorDestroyRangeReverseINS_9allocatorINS_12basic_stringIcNS_11char_traitsIcEENS1_IcEEEEEEPS6_EclB7v160006Ev, symObjAddr: 0x4F04, symBinAddr: 0x1000089A4, symSize: 0x68 }
  - { offsetInCU: 0x173B0, offset: 0x1D829, size: 0x8, addend: 0x0, symName: __ZNSt3__116reverse_iteratorIPNS_12basic_stringIcNS_11char_traitsIcEENS_9allocatorIcEEEEEC1B7v160006ES7_, symObjAddr: 0x4FDC, symBinAddr: 0x100008A7C, symSize: 0x34 }
  - { offsetInCU: 0x173E7, offset: 0x1D860, size: 0x8, addend: 0x0, symName: __ZNSt3__116allocator_traitsINS_9allocatorINS_12basic_stringIcNS_11char_traitsIcEENS1_IcEEEEEEE7destroyB7v160006IS6_vEEvRS7_PT_, symObjAddr: 0x5058, symBinAddr: 0x100008AF8, symSize: 0x2C }
  - { offsetInCU: 0x17423, offset: 0x1D89C, size: 0x8, addend: 0x0, symName: __ZNSt3__116reverse_iteratorIPNS_12basic_stringIcNS_11char_traitsIcEENS_9allocatorIcEEEEEppB7v160006Ev, symObjAddr: 0x50A8, symBinAddr: 0x100008B48, symSize: 0x20 }
  - { offsetInCU: 0x17448, offset: 0x1D8C1, size: 0x8, addend: 0x0, symName: __ZNKSt3__116reverse_iteratorIPNS_12basic_stringIcNS_11char_traitsIcEENS_9allocatorIcEEEEE4baseB7v160006Ev, symObjAddr: 0x50C8, symBinAddr: 0x100008B68, symSize: 0x18 }
  - { offsetInCU: 0x1746D, offset: 0x1D8E6, size: 0x8, addend: 0x0, symName: __ZNSt3__19allocatorINS_12basic_stringIcNS_11char_traitsIcEENS0_IcEEEEE7destroyB7v160006EPS5_, symObjAddr: 0x50E0, symBinAddr: 0x100008B80, symSize: 0x28 }
  - { offsetInCU: 0x174A5, offset: 0x1D91E, size: 0x8, addend: 0x0, symName: __ZNSt3__119__to_address_helperINS_16reverse_iteratorIPNS_12basic_stringIcNS_11char_traitsIcEENS_9allocatorIcEEEEEEvE6__callB7v160006ERKS9_, symObjAddr: 0x5108, symBinAddr: 0x100008BA8, symSize: 0x38 }
  - { offsetInCU: 0x174C7, offset: 0x1D940, size: 0x8, addend: 0x0, symName: __ZNKSt3__116reverse_iteratorIPNS_12basic_stringIcNS_11char_traitsIcEENS_9allocatorIcEEEEEptB7v160006Ev, symObjAddr: 0x5140, symBinAddr: 0x100008BE0, symSize: 0x24 }
  - { offsetInCU: 0x174EC, offset: 0x1D965, size: 0x8, addend: 0x0, symName: __ZNKSt3__116reverse_iteratorIPNS_12basic_stringIcNS_11char_traitsIcEENS_9allocatorIcEEEEEdeB7v160006Ev, symObjAddr: 0x5164, symBinAddr: 0x100008C04, symSize: 0x28 }
  - { offsetInCU: 0x1751F, offset: 0x1D998, size: 0x8, addend: 0x0, symName: __ZNSt3__116reverse_iteratorIPNS_12basic_stringIcNS_11char_traitsIcEENS_9allocatorIcEEEEEC2B7v160006ES7_, symObjAddr: 0x518C, symBinAddr: 0x100008C2C, symSize: 0x28 }
  - { offsetInCU: 0x17556, offset: 0x1D9CF, size: 0x8, addend: 0x0, symName: __ZNSt3__16vectorINS_12basic_stringIcNS_11char_traitsIcEENS_9allocatorIcEEEENS4_IS6_EEE21_ConstructTransactionD2B7v160006Ev, symObjAddr: 0x51B4, symBinAddr: 0x100008C54, symSize: 0x20 }
  - { offsetInCU: 0x1757F, offset: 0x1D9F8, size: 0x8, addend: 0x0, symName: __ZNSt3__128__exception_guard_exceptionsINS_6vectorINS_12basic_stringIcNS_11char_traitsIcEENS_9allocatorIcEEEENS5_IS7_EEE16__destroy_vectorEED2B7v160006Ev, symObjAddr: 0x51D4, symBinAddr: 0x100008C74, symSize: 0x50 }
  - { offsetInCU: 0x175A8, offset: 0x1DA21, size: 0x8, addend: 0x0, symName: __ZNSt3__16vectorINS_12basic_stringIcNS_11char_traitsIcEENS_9allocatorIcEEEENS4_IS6_EEE16__destroy_vectorclB7v160006Ev, symObjAddr: 0x5224, symBinAddr: 0x100008CC4, symSize: 0x9C }
  - { offsetInCU: 0x175CD, offset: 0x1DA46, size: 0x8, addend: 0x0, symName: __ZNKSt3__16vectorINS_12basic_stringIcNS_11char_traitsIcEENS_9allocatorIcEEEENS4_IS6_EEE17__annotate_deleteB7v160006Ev, symObjAddr: 0x52C0, symBinAddr: 0x100008D60, symSize: 0xD4 }
  - { offsetInCU: 0x175F2, offset: 0x1DA6B, size: 0x8, addend: 0x0, symName: __ZNSt3__16vectorINS_12basic_stringIcNS_11char_traitsIcEENS_9allocatorIcEEEENS4_IS6_EEE7__clearB7v160006Ev, symObjAddr: 0x53A4, symBinAddr: 0x100008E44, symSize: 0x28 }
  - { offsetInCU: 0x17617, offset: 0x1DA90, size: 0x8, addend: 0x0, symName: __ZNSt3__116allocator_traitsINS_9allocatorINS_12basic_stringIcNS_11char_traitsIcEENS1_IcEEEEEEE10deallocateB7v160006ERS7_PS6_m, symObjAddr: 0x53CC, symBinAddr: 0x100008E6C, symSize: 0x34 }
  - { offsetInCU: 0x17658, offset: 0x1DAD1, size: 0x8, addend: 0x0, symName: __ZNKSt3__16vectorINS_12basic_stringIcNS_11char_traitsIcEENS_9allocatorIcEEEENS4_IS6_EEE4sizeB7v160006Ev, symObjAddr: 0x5400, symBinAddr: 0x100008EA0, symSize: 0x28 }
  - { offsetInCU: 0x1767D, offset: 0x1DAF6, size: 0x8, addend: 0x0, symName: __ZNSt3__16vectorINS_12basic_stringIcNS_11char_traitsIcEENS_9allocatorIcEEEENS4_IS6_EEE22__base_destruct_at_endB7v160006EPS6_, symObjAddr: 0x5428, symBinAddr: 0x100008EC8, symSize: 0x8C }
  - { offsetInCU: 0x176C0, offset: 0x1DB39, size: 0x8, addend: 0x0, symName: __ZNSt3__19allocatorINS_12basic_stringIcNS_11char_traitsIcEENS0_IcEEEEE10deallocateB7v160006EPS5_m, symObjAddr: 0x54B4, symBinAddr: 0x100008F54, symSize: 0x44 }
  - { offsetInCU: 0x17701, offset: 0x1DB7A, size: 0x8, addend: 0x0, symName: __ZNSt3__16vectorINS_12basic_stringIcNS_11char_traitsIcEENS_9allocatorIcEEEENS4_IS6_EEED2B7v160006Ev, symObjAddr: 0x54F8, symBinAddr: 0x100008F98, symSize: 0x44 }
  - { offsetInCU: 0x1772A, offset: 0x1DBA3, size: 0x8, addend: 0x0, symName: __ZNSt3__16vectorI6VertexNS_9allocatorIS1_EEEC2ERKS4_, symObjAddr: 0x553C, symBinAddr: 0x100008FDC, symSize: 0x110 }
  - { offsetInCU: 0x17793, offset: 0x1DC0C, size: 0x8, addend: 0x0, symName: __ZNSt3__116allocator_traitsINS_9allocatorI6VertexEEE37select_on_container_copy_constructionB7v160006IS3_vvEES3_RKS3_, symObjAddr: 0x564C, symBinAddr: 0x1000090EC, symSize: 0x10 }
  - { offsetInCU: 0x177C2, offset: 0x1DC3B, size: 0x8, addend: 0x0, symName: __ZNKSt3__16vectorI6VertexNS_9allocatorIS1_EEE7__allocB7v160006Ev, symObjAddr: 0x565C, symBinAddr: 0x1000090FC, symSize: 0x28 }
  - { offsetInCU: 0x177ED, offset: 0x1DC66, size: 0x8, addend: 0x0, symName: __ZNSt3__117__compressed_pairIP6VertexNS_9allocatorIS1_EEEC1B7v160006IDnS4_EEOT_OT0_, symObjAddr: 0x5684, symBinAddr: 0x100009124, symSize: 0x3C }
  - { offsetInCU: 0x17844, offset: 0x1DCBD, size: 0x8, addend: 0x0, symName: __ZNSt3__16vectorI6VertexNS_9allocatorIS1_EEE11__vallocateB7v160006Em, symObjAddr: 0x5700, symBinAddr: 0x1000091A0, symSize: 0xB4 }
  - { offsetInCU: 0x17886, offset: 0x1DCFF, size: 0x8, addend: 0x0, symName: __ZNSt3__16vectorI6VertexNS_9allocatorIS1_EEE18__construct_at_endIPS1_Li0EEEvT_S7_m, symObjAddr: 0x57B4, symBinAddr: 0x100009254, symSize: 0x8C }
  - { offsetInCU: 0x178F9, offset: 0x1DD72, size: 0x8, addend: 0x0, symName: __ZNSt3__128__exception_guard_exceptionsINS_6vectorI6VertexNS_9allocatorIS2_EEE16__destroy_vectorEE10__completeB7v160006Ev, symObjAddr: 0x5840, symBinAddr: 0x1000092E0, symSize: 0x1C }
  - { offsetInCU: 0x1791E, offset: 0x1DD97, size: 0x8, addend: 0x0, symName: __ZNSt3__128__exception_guard_exceptionsINS_6vectorI6VertexNS_9allocatorIS2_EEE16__destroy_vectorEED1B7v160006Ev, symObjAddr: 0x585C, symBinAddr: 0x1000092FC, symSize: 0x2C }
  - { offsetInCU: 0x17947, offset: 0x1DDC0, size: 0x8, addend: 0x0, symName: __ZNKSt3__117__compressed_pairIP6VertexNS_9allocatorIS1_EEE6secondB7v160006Ev, symObjAddr: 0x5888, symBinAddr: 0x100009328, symSize: 0x24 }
  - { offsetInCU: 0x1796C, offset: 0x1DDE5, size: 0x8, addend: 0x0, symName: __ZNKSt3__122__compressed_pair_elemINS_9allocatorI6VertexEELi1ELb1EE5__getB7v160006Ev, symObjAddr: 0x58AC, symBinAddr: 0x10000934C, symSize: 0x14 }
  - { offsetInCU: 0x17991, offset: 0x1DE0A, size: 0x8, addend: 0x0, symName: __ZNSt3__117__compressed_pairIP6VertexNS_9allocatorIS1_EEEC2B7v160006IDnS4_EEOT_OT0_, symObjAddr: 0x58C0, symBinAddr: 0x100009360, symSize: 0x44 }
  - { offsetInCU: 0x179E8, offset: 0x1DE61, size: 0x8, addend: 0x0, symName: __ZNSt3__122__compressed_pair_elemINS_9allocatorI6VertexEELi1ELb1EEC2B7v160006IS3_vEEOT_, symObjAddr: 0x5904, symBinAddr: 0x1000093A4, symSize: 0x18 }
  - { offsetInCU: 0x17A29, offset: 0x1DEA2, size: 0x8, addend: 0x0, symName: __ZNSt3__128__exception_guard_exceptionsINS_6vectorI6VertexNS_9allocatorIS2_EEE16__destroy_vectorEEC1B7v160006ES6_, symObjAddr: 0x591C, symBinAddr: 0x1000093BC, symSize: 0x34 }
  - { offsetInCU: 0x17A60, offset: 0x1DED9, size: 0x8, addend: 0x0, symName: __ZNSt3__128__exception_guard_exceptionsINS_6vectorI6VertexNS_9allocatorIS2_EEE16__destroy_vectorEEC2B7v160006ES6_, symObjAddr: 0x5950, symBinAddr: 0x1000093F0, symSize: 0x24 }
  - { offsetInCU: 0x17A96, offset: 0x1DF0F, size: 0x8, addend: 0x0, symName: __ZNKSt3__16vectorI6VertexNS_9allocatorIS1_EEE8max_sizeEv, symObjAddr: 0x5974, symBinAddr: 0x100009414, symSize: 0x60 }
  - { offsetInCU: 0x17ABE, offset: 0x1DF37, size: 0x8, addend: 0x0, symName: __ZNKSt3__16vectorI6VertexNS_9allocatorIS1_EEE20__throw_length_errorB7v160006Ev, symObjAddr: 0x59D4, symBinAddr: 0x100009474, symSize: 0x1C }
  - { offsetInCU: 0x17AE3, offset: 0x1DF5C, size: 0x8, addend: 0x0, symName: __ZNKSt3__16vectorI6VertexNS_9allocatorIS1_EEE14__annotate_newB7v160006Em, symObjAddr: 0x5A30, symBinAddr: 0x1000094D0, symSize: 0xC8 }
  - { offsetInCU: 0x17B17, offset: 0x1DF90, size: 0x8, addend: 0x0, symName: __ZNSt3__116allocator_traitsINS_9allocatorI6VertexEEE8max_sizeB7v160006IS3_vEEmRKS3_, symObjAddr: 0x5AF8, symBinAddr: 0x100009598, symSize: 0x24 }
  - { offsetInCU: 0x17B44, offset: 0x1DFBD, size: 0x8, addend: 0x0, symName: __ZNKSt3__19allocatorI6VertexE8max_sizeB7v160006Ev, symObjAddr: 0x5B1C, symBinAddr: 0x1000095BC, symSize: 0x20 }
  - { offsetInCU: 0x17B69, offset: 0x1DFE2, size: 0x8, addend: 0x0, symName: __ZNSt3__19allocatorI6VertexE8allocateB7v160006Em, symObjAddr: 0x5B3C, symBinAddr: 0x1000095DC, symSize: 0x5C }
  - { offsetInCU: 0x17BB5, offset: 0x1E02E, size: 0x8, addend: 0x0, symName: __ZNSt3__16vectorI6VertexNS_9allocatorIS1_EEE21_ConstructTransactionC1B7v160006ERS4_m, symObjAddr: 0x5B98, symBinAddr: 0x100009638, symSize: 0x3C }
  - { offsetInCU: 0x17BFC, offset: 0x1E075, size: 0x8, addend: 0x0, symName: __ZNSt3__16vectorI6VertexNS_9allocatorIS1_EEE21_ConstructTransactionD1B7v160006Ev, symObjAddr: 0x5CC8, symBinAddr: 0x100009768, symSize: 0x2C }
  - { offsetInCU: 0x17C25, offset: 0x1E09E, size: 0x8, addend: 0x0, symName: __ZNSt3__16vectorI6VertexNS_9allocatorIS1_EEE21_ConstructTransactionC2B7v160006ERS4_m, symObjAddr: 0x5CF4, symBinAddr: 0x100009794, symSize: 0x4C }
  - { offsetInCU: 0x17C6C, offset: 0x1E0E5, size: 0x8, addend: 0x0, symName: __ZNSt3__129_AllocatorDestroyRangeReverseINS_9allocatorI6VertexEEPS2_EC1B7v160006ERS3_RS4_S7_, symObjAddr: 0x5D8C, symBinAddr: 0x10000982C, symSize: 0x44 }
  - { offsetInCU: 0x17CC2, offset: 0x1E13B, size: 0x8, addend: 0x0, symName: __ZNSt3__116allocator_traitsINS_9allocatorI6VertexEEE9constructB7v160006IS2_JRS2_EvEEvRS3_PT_DpOT0_, symObjAddr: 0x5DD0, symBinAddr: 0x100009870, symSize: 0x34 }
  - { offsetInCU: 0x17D18, offset: 0x1E191, size: 0x8, addend: 0x0, symName: __ZNSt3__128__exception_guard_exceptionsINS_29_AllocatorDestroyRangeReverseINS_9allocatorI6VertexEEPS3_EEE10__completeB7v160006Ev, symObjAddr: 0x5E04, symBinAddr: 0x1000098A4, symSize: 0x1C }
  - { offsetInCU: 0x17D3D, offset: 0x1E1B6, size: 0x8, addend: 0x0, symName: __ZNSt3__128__exception_guard_exceptionsINS_29_AllocatorDestroyRangeReverseINS_9allocatorI6VertexEEPS3_EEED1B7v160006Ev, symObjAddr: 0x5E20, symBinAddr: 0x1000098C0, symSize: 0x2C }
  - { offsetInCU: 0x17D66, offset: 0x1E1DF, size: 0x8, addend: 0x0, symName: __ZNSt3__128__exception_guard_exceptionsINS_29_AllocatorDestroyRangeReverseINS_9allocatorI6VertexEEPS3_EEEC1B7v160006ES6_, symObjAddr: 0x5E4C, symBinAddr: 0x1000098EC, symSize: 0x34 }
  - { offsetInCU: 0x17D9E, offset: 0x1E217, size: 0x8, addend: 0x0, symName: __ZNSt3__128__exception_guard_exceptionsINS_29_AllocatorDestroyRangeReverseINS_9allocatorI6VertexEEPS3_EEEC2B7v160006ES6_, symObjAddr: 0x5E80, symBinAddr: 0x100009920, symSize: 0x30 }
  - { offsetInCU: 0x17DD6, offset: 0x1E24F, size: 0x8, addend: 0x0, symName: __ZNSt3__129_AllocatorDestroyRangeReverseINS_9allocatorI6VertexEEPS2_EC2B7v160006ERS3_RS4_S7_, symObjAddr: 0x5EB0, symBinAddr: 0x100009950, symSize: 0x38 }
  - { offsetInCU: 0x17E2C, offset: 0x1E2A5, size: 0x8, addend: 0x0, symName: __ZNSt3__19allocatorI6VertexE9constructB7v160006IS1_JRS1_EEEvPT_DpOT0_, symObjAddr: 0x5EE8, symBinAddr: 0x100009988, symSize: 0x34 }
  - { offsetInCU: 0x17E81, offset: 0x1E2FA, size: 0x8, addend: 0x0, symName: __ZNSt3__128__exception_guard_exceptionsINS_29_AllocatorDestroyRangeReverseINS_9allocatorI6VertexEEPS3_EEED2B7v160006Ev, symObjAddr: 0x5F1C, symBinAddr: 0x1000099BC, symSize: 0x50 }
  - { offsetInCU: 0x17EAA, offset: 0x1E323, size: 0x8, addend: 0x0, symName: __ZNKSt3__129_AllocatorDestroyRangeReverseINS_9allocatorI6VertexEEPS2_EclB7v160006Ev, symObjAddr: 0x5F6C, symBinAddr: 0x100009A0C, symSize: 0x68 }
  - { offsetInCU: 0x17ECF, offset: 0x1E348, size: 0x8, addend: 0x0, symName: __ZNSt3__116reverse_iteratorIP6VertexEC1B7v160006ES2_, symObjAddr: 0x6044, symBinAddr: 0x100009AE4, symSize: 0x34 }
  - { offsetInCU: 0x17F06, offset: 0x1E37F, size: 0x8, addend: 0x0, symName: __ZNSt3__116reverse_iteratorIP6VertexEppB7v160006Ev, symObjAddr: 0x60E4, symBinAddr: 0x100009B84, symSize: 0x20 }
  - { offsetInCU: 0x17F2B, offset: 0x1E3A4, size: 0x8, addend: 0x0, symName: __ZNKSt3__116reverse_iteratorIP6VertexE4baseB7v160006Ev, symObjAddr: 0x6104, symBinAddr: 0x100009BA4, symSize: 0x18 }
  - { offsetInCU: 0x17F55, offset: 0x1E3CE, size: 0x8, addend: 0x0, symName: __ZNSt3__119__to_address_helperINS_16reverse_iteratorIP6VertexEEvE6__callB7v160006ERKS4_, symObjAddr: 0x611C, symBinAddr: 0x100009BBC, symSize: 0x38 }
  - { offsetInCU: 0x17F77, offset: 0x1E3F0, size: 0x8, addend: 0x0, symName: __ZNKSt3__116reverse_iteratorIP6VertexEptB7v160006Ev, symObjAddr: 0x6154, symBinAddr: 0x100009BF4, symSize: 0x24 }
  - { offsetInCU: 0x17F9C, offset: 0x1E415, size: 0x8, addend: 0x0, symName: __ZNKSt3__116reverse_iteratorIP6VertexEdeB7v160006Ev, symObjAddr: 0x6178, symBinAddr: 0x100009C18, symSize: 0x28 }
  - { offsetInCU: 0x17FCF, offset: 0x1E448, size: 0x8, addend: 0x0, symName: __ZNSt3__116reverse_iteratorIP6VertexEC2B7v160006ES2_, symObjAddr: 0x61A0, symBinAddr: 0x100009C40, symSize: 0x28 }
  - { offsetInCU: 0x18006, offset: 0x1E47F, size: 0x8, addend: 0x0, symName: __ZNSt3__16vectorI6VertexNS_9allocatorIS1_EEE21_ConstructTransactionD2B7v160006Ev, symObjAddr: 0x61C8, symBinAddr: 0x100009C68, symSize: 0x20 }
  - { offsetInCU: 0x1802F, offset: 0x1E4A8, size: 0x8, addend: 0x0, symName: __ZNSt3__128__exception_guard_exceptionsINS_6vectorI6VertexNS_9allocatorIS2_EEE16__destroy_vectorEED2B7v160006Ev, symObjAddr: 0x61E8, symBinAddr: 0x100009C88, symSize: 0x50 }
  - { offsetInCU: 0x18058, offset: 0x1E4D1, size: 0x8, addend: 0x0, symName: __ZNSt3__16vectorIjNS_9allocatorIjEEEC2ERKS3_, symObjAddr: 0x6238, symBinAddr: 0x100009CD8, symSize: 0x110 }
  - { offsetInCU: 0x180C1, offset: 0x1E53A, size: 0x8, addend: 0x0, symName: __ZNSt3__116allocator_traitsINS_9allocatorIjEEE37select_on_container_copy_constructionB7v160006IS2_vvEES2_RKS2_, symObjAddr: 0x6348, symBinAddr: 0x100009DE8, symSize: 0x10 }
  - { offsetInCU: 0x180F0, offset: 0x1E569, size: 0x8, addend: 0x0, symName: __ZNKSt3__16vectorIjNS_9allocatorIjEEE7__allocB7v160006Ev, symObjAddr: 0x6358, symBinAddr: 0x100009DF8, symSize: 0x28 }
  - { offsetInCU: 0x1811B, offset: 0x1E594, size: 0x8, addend: 0x0, symName: __ZNSt3__117__compressed_pairIPjNS_9allocatorIjEEEC1B7v160006IDnS3_EEOT_OT0_, symObjAddr: 0x6380, symBinAddr: 0x100009E20, symSize: 0x3C }
  - { offsetInCU: 0x18172, offset: 0x1E5EB, size: 0x8, addend: 0x0, symName: __ZNSt3__16vectorIjNS_9allocatorIjEEE11__vallocateB7v160006Em, symObjAddr: 0x63FC, symBinAddr: 0x100009E9C, symSize: 0xAC }
  - { offsetInCU: 0x181B4, offset: 0x1E62D, size: 0x8, addend: 0x0, symName: __ZNSt3__16vectorIjNS_9allocatorIjEEE18__construct_at_endIPjLi0EEEvT_S6_m, symObjAddr: 0x64A8, symBinAddr: 0x100009F48, symSize: 0x8C }
  - { offsetInCU: 0x18227, offset: 0x1E6A0, size: 0x8, addend: 0x0, symName: __ZNSt3__128__exception_guard_exceptionsINS_6vectorIjNS_9allocatorIjEEE16__destroy_vectorEE10__completeB7v160006Ev, symObjAddr: 0x6534, symBinAddr: 0x100009FD4, symSize: 0x1C }
  - { offsetInCU: 0x1824C, offset: 0x1E6C5, size: 0x8, addend: 0x0, symName: __ZNSt3__128__exception_guard_exceptionsINS_6vectorIjNS_9allocatorIjEEE16__destroy_vectorEED1B7v160006Ev, symObjAddr: 0x6550, symBinAddr: 0x100009FF0, symSize: 0x2C }
  - { offsetInCU: 0x18275, offset: 0x1E6EE, size: 0x8, addend: 0x0, symName: __ZNKSt3__117__compressed_pairIPjNS_9allocatorIjEEE6secondB7v160006Ev, symObjAddr: 0x657C, symBinAddr: 0x10000A01C, symSize: 0x24 }
  - { offsetInCU: 0x1829A, offset: 0x1E713, size: 0x8, addend: 0x0, symName: __ZNKSt3__122__compressed_pair_elemINS_9allocatorIjEELi1ELb1EE5__getB7v160006Ev, symObjAddr: 0x65A0, symBinAddr: 0x10000A040, symSize: 0x14 }
  - { offsetInCU: 0x182BF, offset: 0x1E738, size: 0x8, addend: 0x0, symName: __ZNSt3__117__compressed_pairIPjNS_9allocatorIjEEEC2B7v160006IDnS3_EEOT_OT0_, symObjAddr: 0x65B4, symBinAddr: 0x10000A054, symSize: 0x44 }
  - { offsetInCU: 0x18316, offset: 0x1E78F, size: 0x8, addend: 0x0, symName: __ZNSt3__122__compressed_pair_elemINS_9allocatorIjEELi1ELb1EEC2B7v160006IS2_vEEOT_, symObjAddr: 0x65F8, symBinAddr: 0x10000A098, symSize: 0x18 }
  - { offsetInCU: 0x18357, offset: 0x1E7D0, size: 0x8, addend: 0x0, symName: __ZNSt3__128__exception_guard_exceptionsINS_6vectorIjNS_9allocatorIjEEE16__destroy_vectorEEC1B7v160006ES5_, symObjAddr: 0x6610, symBinAddr: 0x10000A0B0, symSize: 0x34 }
  - { offsetInCU: 0x1838E, offset: 0x1E807, size: 0x8, addend: 0x0, symName: __ZNSt3__128__exception_guard_exceptionsINS_6vectorIjNS_9allocatorIjEEE16__destroy_vectorEEC2B7v160006ES5_, symObjAddr: 0x6644, symBinAddr: 0x10000A0E4, symSize: 0x24 }
  - { offsetInCU: 0x183C4, offset: 0x1E83D, size: 0x8, addend: 0x0, symName: __ZNKSt3__16vectorIjNS_9allocatorIjEEE8max_sizeEv, symObjAddr: 0x6668, symBinAddr: 0x10000A108, symSize: 0x60 }
  - { offsetInCU: 0x183EC, offset: 0x1E865, size: 0x8, addend: 0x0, symName: __ZNKSt3__16vectorIjNS_9allocatorIjEEE20__throw_length_errorB7v160006Ev, symObjAddr: 0x66C8, symBinAddr: 0x10000A168, symSize: 0x1C }
  - { offsetInCU: 0x18411, offset: 0x1E88A, size: 0x8, addend: 0x0, symName: __ZNKSt3__16vectorIjNS_9allocatorIjEEE14__annotate_newB7v160006Em, symObjAddr: 0x6724, symBinAddr: 0x10000A1C4, symSize: 0xAC }
  - { offsetInCU: 0x18445, offset: 0x1E8BE, size: 0x8, addend: 0x0, symName: __ZNSt3__116allocator_traitsINS_9allocatorIjEEE8max_sizeB7v160006IS2_vEEmRKS2_, symObjAddr: 0x67D0, symBinAddr: 0x10000A270, symSize: 0x24 }
  - { offsetInCU: 0x18472, offset: 0x1E8EB, size: 0x8, addend: 0x0, symName: __ZNKSt3__19allocatorIjE8max_sizeB7v160006Ev, symObjAddr: 0x67F4, symBinAddr: 0x10000A294, symSize: 0x14 }
  - { offsetInCU: 0x18497, offset: 0x1E910, size: 0x8, addend: 0x0, symName: __ZNSt3__19allocatorIjE8allocateB7v160006Em, symObjAddr: 0x6808, symBinAddr: 0x10000A2A8, symSize: 0x58 }
  - { offsetInCU: 0x184E3, offset: 0x1E95C, size: 0x8, addend: 0x0, symName: __ZNSt3__16vectorIjNS_9allocatorIjEEE21_ConstructTransactionC1B7v160006ERS3_m, symObjAddr: 0x6860, symBinAddr: 0x10000A300, symSize: 0x3C }
  - { offsetInCU: 0x1852A, offset: 0x1E9A3, size: 0x8, addend: 0x0, symName: __ZNSt3__16vectorIjNS_9allocatorIjEEE21_ConstructTransactionD1B7v160006Ev, symObjAddr: 0x6990, symBinAddr: 0x10000A430, symSize: 0x2C }
  - { offsetInCU: 0x18553, offset: 0x1E9CC, size: 0x8, addend: 0x0, symName: __ZNSt3__16vectorIjNS_9allocatorIjEEE21_ConstructTransactionC2B7v160006ERS3_m, symObjAddr: 0x69BC, symBinAddr: 0x10000A45C, symSize: 0x44 }
  - { offsetInCU: 0x1859A, offset: 0x1EA13, size: 0x8, addend: 0x0, symName: __ZNSt3__129_AllocatorDestroyRangeReverseINS_9allocatorIjEEPjEC1B7v160006ERS2_RS3_S6_, symObjAddr: 0x6A4C, symBinAddr: 0x10000A4EC, symSize: 0x44 }
  - { offsetInCU: 0x185F0, offset: 0x1EA69, size: 0x8, addend: 0x0, symName: __ZNSt3__116allocator_traitsINS_9allocatorIjEEE9constructB7v160006IjJRjEvEEvRS2_PT_DpOT0_, symObjAddr: 0x6A90, symBinAddr: 0x10000A530, symSize: 0x34 }
  - { offsetInCU: 0x18646, offset: 0x1EABF, size: 0x8, addend: 0x0, symName: __ZNSt3__128__exception_guard_exceptionsINS_29_AllocatorDestroyRangeReverseINS_9allocatorIjEEPjEEE10__completeB7v160006Ev, symObjAddr: 0x6AC4, symBinAddr: 0x10000A564, symSize: 0x1C }
  - { offsetInCU: 0x1866B, offset: 0x1EAE4, size: 0x8, addend: 0x0, symName: __ZNSt3__128__exception_guard_exceptionsINS_29_AllocatorDestroyRangeReverseINS_9allocatorIjEEPjEEED1B7v160006Ev, symObjAddr: 0x6AE0, symBinAddr: 0x10000A580, symSize: 0x2C }
  - { offsetInCU: 0x18694, offset: 0x1EB0D, size: 0x8, addend: 0x0, symName: __ZNSt3__128__exception_guard_exceptionsINS_29_AllocatorDestroyRangeReverseINS_9allocatorIjEEPjEEEC1B7v160006ES5_, symObjAddr: 0x6B0C, symBinAddr: 0x10000A5AC, symSize: 0x34 }
  - { offsetInCU: 0x186CC, offset: 0x1EB45, size: 0x8, addend: 0x0, symName: __ZNSt3__128__exception_guard_exceptionsINS_29_AllocatorDestroyRangeReverseINS_9allocatorIjEEPjEEEC2B7v160006ES5_, symObjAddr: 0x6B40, symBinAddr: 0x10000A5E0, symSize: 0x30 }
  - { offsetInCU: 0x18704, offset: 0x1EB7D, size: 0x8, addend: 0x0, symName: __ZNSt3__129_AllocatorDestroyRangeReverseINS_9allocatorIjEEPjEC2B7v160006ERS2_RS3_S6_, symObjAddr: 0x6B70, symBinAddr: 0x10000A610, symSize: 0x38 }
  - { offsetInCU: 0x1875A, offset: 0x1EBD3, size: 0x8, addend: 0x0, symName: __ZNSt3__19allocatorIjE9constructB7v160006IjJRjEEEvPT_DpOT0_, symObjAddr: 0x6BA8, symBinAddr: 0x10000A648, symSize: 0x28 }
  - { offsetInCU: 0x187AF, offset: 0x1EC28, size: 0x8, addend: 0x0, symName: __ZNSt3__128__exception_guard_exceptionsINS_29_AllocatorDestroyRangeReverseINS_9allocatorIjEEPjEEED2B7v160006Ev, symObjAddr: 0x6BD0, symBinAddr: 0x10000A670, symSize: 0x50 }
  - { offsetInCU: 0x187D8, offset: 0x1EC51, size: 0x8, addend: 0x0, symName: __ZNKSt3__129_AllocatorDestroyRangeReverseINS_9allocatorIjEEPjEclB7v160006Ev, symObjAddr: 0x6C20, symBinAddr: 0x10000A6C0, symSize: 0x68 }
  - { offsetInCU: 0x187FD, offset: 0x1EC76, size: 0x8, addend: 0x0, symName: __ZNSt3__116reverse_iteratorIPjEC1B7v160006ES1_, symObjAddr: 0x6CF8, symBinAddr: 0x10000A798, symSize: 0x34 }
  - { offsetInCU: 0x18834, offset: 0x1ECAD, size: 0x8, addend: 0x0, symName: __ZNSt3__116reverse_iteratorIPjEppB7v160006Ev, symObjAddr: 0x6D98, symBinAddr: 0x10000A838, symSize: 0x20 }
  - { offsetInCU: 0x18859, offset: 0x1ECD2, size: 0x8, addend: 0x0, symName: __ZNKSt3__116reverse_iteratorIPjE4baseB7v160006Ev, symObjAddr: 0x6DB8, symBinAddr: 0x10000A858, symSize: 0x18 }
  - { offsetInCU: 0x18883, offset: 0x1ECFC, size: 0x8, addend: 0x0, symName: __ZNSt3__119__to_address_helperINS_16reverse_iteratorIPjEEvE6__callB7v160006ERKS3_, symObjAddr: 0x6DD0, symBinAddr: 0x10000A870, symSize: 0x38 }
  - { offsetInCU: 0x188A5, offset: 0x1ED1E, size: 0x8, addend: 0x0, symName: __ZNKSt3__116reverse_iteratorIPjEptB7v160006Ev, symObjAddr: 0x6E08, symBinAddr: 0x10000A8A8, symSize: 0x24 }
  - { offsetInCU: 0x188CA, offset: 0x1ED43, size: 0x8, addend: 0x0, symName: __ZNKSt3__116reverse_iteratorIPjEdeB7v160006Ev, symObjAddr: 0x6E2C, symBinAddr: 0x10000A8CC, symSize: 0x28 }
  - { offsetInCU: 0x188FD, offset: 0x1ED76, size: 0x8, addend: 0x0, symName: __ZNSt3__116reverse_iteratorIPjEC2B7v160006ES1_, symObjAddr: 0x6E54, symBinAddr: 0x10000A8F4, symSize: 0x28 }
  - { offsetInCU: 0x18934, offset: 0x1EDAD, size: 0x8, addend: 0x0, symName: __ZNSt3__16vectorIjNS_9allocatorIjEEE21_ConstructTransactionD2B7v160006Ev, symObjAddr: 0x6E7C, symBinAddr: 0x10000A91C, symSize: 0x20 }
  - { offsetInCU: 0x1895D, offset: 0x1EDD6, size: 0x8, addend: 0x0, symName: __ZNSt3__128__exception_guard_exceptionsINS_6vectorIjNS_9allocatorIjEEE16__destroy_vectorEED2B7v160006Ev, symObjAddr: 0x6E9C, symBinAddr: 0x10000A93C, symSize: 0x50 }
  - { offsetInCU: 0x18986, offset: 0x1EDFF, size: 0x8, addend: 0x0, symName: __ZNSt3__16vectorINS_12basic_stringIcNS_11char_traitsIcEENS_9allocatorIcEEEENS4_IS6_EEEC2ERKS8_, symObjAddr: 0x6EEC, symBinAddr: 0x10000A98C, symSize: 0x110 }
  - { offsetInCU: 0x189E5, offset: 0x1EE5E, size: 0x8, addend: 0x0, symName: __ZNSt3__116allocator_traitsINS_9allocatorINS_12basic_stringIcNS_11char_traitsIcEENS1_IcEEEEEEE37select_on_container_copy_constructionB7v160006IS7_vvEES7_RKS7_, symObjAddr: 0x6FFC, symBinAddr: 0x10000AA9C, symSize: 0x10 }
  - { offsetInCU: 0x18A1A, offset: 0x1EE93, size: 0x8, addend: 0x0, symName: __ZNSt3__117__compressed_pairIPNS_12basic_stringIcNS_11char_traitsIcEENS_9allocatorIcEEEENS4_IS6_EEEC1B7v160006IDnS8_EEOT_OT0_, symObjAddr: 0x700C, symBinAddr: 0x10000AAAC, symSize: 0x3C }
  - { offsetInCU: 0x18A70, offset: 0x1EEE9, size: 0x8, addend: 0x0, symName: __ZNSt3__16vectorINS_12basic_stringIcNS_11char_traitsIcEENS_9allocatorIcEEEENS4_IS6_EEE18__construct_at_endIPS6_Li0EEEvT_SB_m, symObjAddr: 0x7048, symBinAddr: 0x10000AAE8, symSize: 0x8C }
  - { offsetInCU: 0x18AE3, offset: 0x1EF5C, size: 0x8, addend: 0x0, symName: __ZNSt3__117__compressed_pairIPNS_12basic_stringIcNS_11char_traitsIcEENS_9allocatorIcEEEENS4_IS6_EEEC2B7v160006IDnS8_EEOT_OT0_, symObjAddr: 0x70D4, symBinAddr: 0x10000AB74, symSize: 0x44 }
  - { offsetInCU: 0x18B3A, offset: 0x1EFB3, size: 0x8, addend: 0x0, symName: __ZNSt3__122__compressed_pair_elemINS_9allocatorINS_12basic_stringIcNS_11char_traitsIcEENS1_IcEEEEEELi1ELb1EEC2B7v160006IS7_vEEOT_, symObjAddr: 0x7118, symBinAddr: 0x10000ABB8, symSize: 0x18 }
  - { offsetInCU: 0x18B7B, offset: 0x1EFF4, size: 0x8, addend: 0x0, symName: __ZNSt3__116allocator_traitsINS_9allocatorINS_12basic_stringIcNS_11char_traitsIcEENS1_IcEEEEEEE9constructB7v160006IS6_JRS6_EvEEvRS7_PT_DpOT0_, symObjAddr: 0x7224, symBinAddr: 0x10000ACC4, symSize: 0x34 }
  - { offsetInCU: 0x18BD1, offset: 0x1F04A, size: 0x8, addend: 0x0, symName: __ZNSt3__19allocatorINS_12basic_stringIcNS_11char_traitsIcEENS0_IcEEEEE9constructB7v160006IS5_JRS5_EEEvPT_DpOT0_, symObjAddr: 0x7258, symBinAddr: 0x10000ACF8, symSize: 0x30 }
  - { offsetInCU: 0x18C26, offset: 0x1F09F, size: 0x8, addend: 0x0, symName: __ZNSt3__16vectorI4MeshNS_9allocatorIS1_EEE11__make_iterB7v160006EPS1_, symObjAddr: 0x7288, symBinAddr: 0x10000AD28, symSize: 0x34 }
  - { offsetInCU: 0x18C5A, offset: 0x1F0D3, size: 0x8, addend: 0x0, symName: __ZNSt3__111__wrap_iterIP4MeshEC1B7v160006EPKvS2_, symObjAddr: 0x72BC, symBinAddr: 0x10000AD5C, symSize: 0x3C }
  - { offsetInCU: 0x18C9F, offset: 0x1F118, size: 0x8, addend: 0x0, symName: __ZNSt3__111__wrap_iterIP4MeshEC2B7v160006EPKvS2_, symObjAddr: 0x72F8, symBinAddr: 0x10000AD98, symSize: 0x24 }
  - { offsetInCU: 0x18CE4, offset: 0x1F15D, size: 0x8, addend: 0x0, symName: __ZNSt3__16vectorIP4MeshNS_9allocatorIS2_EEE9__end_capB7v160006Ev, symObjAddr: 0x731C, symBinAddr: 0x10000ADBC, symSize: 0x28 }
  - { offsetInCU: 0x18D0F, offset: 0x1F188, size: 0x8, addend: 0x0, symName: __ZNSt3__16vectorIP4MeshNS_9allocatorIS2_EEE22__construct_one_at_endB7v160006IJS2_EEEvDpOT_, symObjAddr: 0x7344, symBinAddr: 0x10000ADE4, symSize: 0x90 }
  - { offsetInCU: 0x18D5C, offset: 0x1F1D5, size: 0x8, addend: 0x0, symName: __ZNSt3__16vectorIP4MeshNS_9allocatorIS2_EEE21__push_back_slow_pathIS2_EEvOT_, symObjAddr: 0x73D4, symBinAddr: 0x10000AE74, symSize: 0xD8 }
  - { offsetInCU: 0x18DBA, offset: 0x1F233, size: 0x8, addend: 0x0, symName: __ZNSt3__117__compressed_pairIPP4MeshNS_9allocatorIS2_EEE5firstB7v160006Ev, symObjAddr: 0x74AC, symBinAddr: 0x10000AF4C, symSize: 0x24 }
  - { offsetInCU: 0x18DDF, offset: 0x1F258, size: 0x8, addend: 0x0, symName: __ZNSt3__122__compressed_pair_elemIPP4MeshLi0ELb0EE5__getB7v160006Ev, symObjAddr: 0x74D0, symBinAddr: 0x10000AF70, symSize: 0x14 }
  - { offsetInCU: 0x18E1D, offset: 0x1F296, size: 0x8, addend: 0x0, symName: __ZNSt3__16vectorIP4MeshNS_9allocatorIS2_EEE21_ConstructTransactionC1B7v160006ERS5_m, symObjAddr: 0x74E4, symBinAddr: 0x10000AF84, symSize: 0x3C }
  - { offsetInCU: 0x18E64, offset: 0x1F2DD, size: 0x8, addend: 0x0, symName: __ZNSt3__116allocator_traitsINS_9allocatorIP4MeshEEE9constructB7v160006IS3_JS3_EvEEvRS4_PT_DpOT0_, symObjAddr: 0x7520, symBinAddr: 0x10000AFC0, symSize: 0x34 }
  - { offsetInCU: 0x18EBA, offset: 0x1F333, size: 0x8, addend: 0x0, symName: __ZNSt3__16vectorIP4MeshNS_9allocatorIS2_EEE21_ConstructTransactionD1B7v160006Ev, symObjAddr: 0x7554, symBinAddr: 0x10000AFF4, symSize: 0x2C }
  - { offsetInCU: 0x18EE3, offset: 0x1F35C, size: 0x8, addend: 0x0, symName: __ZNSt3__16vectorIP4MeshNS_9allocatorIS2_EEE21_ConstructTransactionC2B7v160006ERS5_m, symObjAddr: 0x7580, symBinAddr: 0x10000B020, symSize: 0x44 }
  - { offsetInCU: 0x18F2A, offset: 0x1F3A3, size: 0x8, addend: 0x0, symName: __ZNSt3__19allocatorIP4MeshE9constructB7v160006IS2_JS2_EEEvPT_DpOT0_, symObjAddr: 0x75C4, symBinAddr: 0x10000B064, symSize: 0x28 }
  - { offsetInCU: 0x18F7F, offset: 0x1F3F8, size: 0x8, addend: 0x0, symName: __ZNSt3__16vectorIP4MeshNS_9allocatorIS2_EEE21_ConstructTransactionD2B7v160006Ev, symObjAddr: 0x75EC, symBinAddr: 0x10000B08C, symSize: 0x20 }
  - { offsetInCU: 0x18FA7, offset: 0x1F420, size: 0x8, addend: 0x0, symName: __ZNKSt3__16vectorIP4MeshNS_9allocatorIS2_EEE11__recommendB7v160006Em, symObjAddr: 0x760C, symBinAddr: 0x10000B0AC, symSize: 0xB4 }
  - { offsetInCU: 0x18FFC, offset: 0x1F475, size: 0x8, addend: 0x0, symName: __ZNSt3__114__split_bufferIP4MeshRNS_9allocatorIS2_EEEC1EmmS5_, symObjAddr: 0x76C0, symBinAddr: 0x10000B160, symSize: 0x44 }
  - { offsetInCU: 0x19051, offset: 0x1F4CA, size: 0x8, addend: 0x0, symName: __ZNSt3__114__split_bufferIP4MeshRNS_9allocatorIS2_EEED1Ev, symObjAddr: 0x781C, symBinAddr: 0x10000B2BC, symSize: 0x2C }
  - { offsetInCU: 0x1907B, offset: 0x1F4F4, size: 0x8, addend: 0x0, symName: __ZNKSt3__16vectorIP4MeshNS_9allocatorIS2_EEE8max_sizeEv, symObjAddr: 0x7848, symBinAddr: 0x10000B2E8, symSize: 0x60 }
  - { offsetInCU: 0x190A3, offset: 0x1F51C, size: 0x8, addend: 0x0, symName: __ZNKSt3__16vectorIP4MeshNS_9allocatorIS2_EEE20__throw_length_errorB7v160006Ev, symObjAddr: 0x78A8, symBinAddr: 0x10000B348, symSize: 0x1C }
  - { offsetInCU: 0x190D2, offset: 0x1F54B, size: 0x8, addend: 0x0, symName: __ZNSt3__116allocator_traitsINS_9allocatorIP4MeshEEE8max_sizeB7v160006IS4_vEEmRKS4_, symObjAddr: 0x78F0, symBinAddr: 0x10000B390, symSize: 0x24 }
  - { offsetInCU: 0x190FF, offset: 0x1F578, size: 0x8, addend: 0x0, symName: __ZNKSt3__16vectorIP4MeshNS_9allocatorIS2_EEE7__allocB7v160006Ev, symObjAddr: 0x7914, symBinAddr: 0x10000B3B4, symSize: 0x28 }
  - { offsetInCU: 0x19124, offset: 0x1F59D, size: 0x8, addend: 0x0, symName: __ZNKSt3__19allocatorIP4MeshE8max_sizeB7v160006Ev, symObjAddr: 0x793C, symBinAddr: 0x10000B3DC, symSize: 0x14 }
  - { offsetInCU: 0x19149, offset: 0x1F5C2, size: 0x8, addend: 0x0, symName: __ZNKSt3__117__compressed_pairIPP4MeshNS_9allocatorIS2_EEE6secondB7v160006Ev, symObjAddr: 0x7950, symBinAddr: 0x10000B3F0, symSize: 0x24 }
  - { offsetInCU: 0x1916E, offset: 0x1F5E7, size: 0x8, addend: 0x0, symName: __ZNKSt3__122__compressed_pair_elemINS_9allocatorIP4MeshEELi1ELb1EE5__getB7v160006Ev, symObjAddr: 0x7974, symBinAddr: 0x10000B414, symSize: 0x14 }
  - { offsetInCU: 0x19193, offset: 0x1F60C, size: 0x8, addend: 0x0, symName: __ZNSt3__114__split_bufferIP4MeshRNS_9allocatorIS2_EEEC2EmmS5_, symObjAddr: 0x79DC, symBinAddr: 0x10000B47C, symSize: 0xD4 }
  - { offsetInCU: 0x19205, offset: 0x1F67E, size: 0x8, addend: 0x0, symName: __ZNSt3__117__compressed_pairIPP4MeshRNS_9allocatorIS2_EEEC1B7v160006IDnS6_EEOT_OT0_, symObjAddr: 0x7AB0, symBinAddr: 0x10000B550, symSize: 0x3C }
  - { offsetInCU: 0x1925C, offset: 0x1F6D5, size: 0x8, addend: 0x0, symName: __ZNSt3__114__split_bufferIP4MeshRNS_9allocatorIS2_EEE7__allocB7v160006Ev, symObjAddr: 0x7B2C, symBinAddr: 0x10000B5CC, symSize: 0x28 }
  - { offsetInCU: 0x19281, offset: 0x1F6FA, size: 0x8, addend: 0x0, symName: __ZNSt3__114__split_bufferIP4MeshRNS_9allocatorIS2_EEE9__end_capB7v160006Ev, symObjAddr: 0x7B54, symBinAddr: 0x10000B5F4, symSize: 0x28 }
  - { offsetInCU: 0x192A6, offset: 0x1F71F, size: 0x8, addend: 0x0, symName: __ZNSt3__117__compressed_pairIPP4MeshRNS_9allocatorIS2_EEEC2B7v160006IDnS6_EEOT_OT0_, symObjAddr: 0x7B7C, symBinAddr: 0x10000B61C, symSize: 0x48 }
  - { offsetInCU: 0x192FD, offset: 0x1F776, size: 0x8, addend: 0x0, symName: __ZNSt3__122__compressed_pair_elemIRNS_9allocatorIP4MeshEELi1ELb0EEC2B7v160006IS5_vEEOT_, symObjAddr: 0x7BC4, symBinAddr: 0x10000B664, symSize: 0x20 }
  - { offsetInCU: 0x1933E, offset: 0x1F7B7, size: 0x8, addend: 0x0, symName: __ZNSt3__19allocatorIP4MeshE8allocateB7v160006Em, symObjAddr: 0x7BE4, symBinAddr: 0x10000B684, symSize: 0x58 }
  - { offsetInCU: 0x19371, offset: 0x1F7EA, size: 0x8, addend: 0x0, symName: __ZNSt3__117__compressed_pairIPP4MeshRNS_9allocatorIS2_EEE6secondB7v160006Ev, symObjAddr: 0x7C3C, symBinAddr: 0x10000B6DC, symSize: 0x28 }
  - { offsetInCU: 0x19396, offset: 0x1F80F, size: 0x8, addend: 0x0, symName: __ZNSt3__122__compressed_pair_elemIRNS_9allocatorIP4MeshEELi1ELb0EE5__getB7v160006Ev, symObjAddr: 0x7C64, symBinAddr: 0x10000B704, symSize: 0x18 }
  - { offsetInCU: 0x193BB, offset: 0x1F834, size: 0x8, addend: 0x0, symName: __ZNSt3__117__compressed_pairIPP4MeshRNS_9allocatorIS2_EEE5firstB7v160006Ev, symObjAddr: 0x7C7C, symBinAddr: 0x10000B71C, symSize: 0x24 }
  - { offsetInCU: 0x193E0, offset: 0x1F859, size: 0x8, addend: 0x0, symName: __ZNSt3__116reverse_iteratorIPP4MeshEC1B7v160006ES3_, symObjAddr: 0x7D18, symBinAddr: 0x10000B7B8, symSize: 0x34 }
  - { offsetInCU: 0x19417, offset: 0x1F890, size: 0x8, addend: 0x0, symName: __ZNKSt3__116reverse_iteratorIPP4MeshE4baseB7v160006Ev, symObjAddr: 0x7D4C, symBinAddr: 0x10000B7EC, symSize: 0x18 }
  - { offsetInCU: 0x1943C, offset: 0x1F8B5, size: 0x8, addend: 0x0, symName: __ZNKSt3__16vectorIP4MeshNS_9allocatorIS2_EEE14__annotate_newB7v160006Em, symObjAddr: 0x7DA0, symBinAddr: 0x10000B840, symSize: 0xAC }
  - { offsetInCU: 0x19494, offset: 0x1F90D, size: 0x8, addend: 0x0, symName: __ZNKSt3__111__move_loopINS_17_ClassicAlgPolicyEEclB7v160006INS_16reverse_iteratorIPP4MeshEES8_S8_EENS_4pairIT_T1_EESA_T0_SB_, symObjAddr: 0x814C, symBinAddr: 0x10000BBEC, symSize: 0xA0 }
  - { offsetInCU: 0x194FE, offset: 0x1F977, size: 0x8, addend: 0x0, symName: __ZNSt3__18_IterOpsINS_17_ClassicAlgPolicyEE11__iter_moveB7v160006IRNS_16reverse_iteratorIPP4MeshEEEENS_9enable_ifIXsr12is_referenceIDTdeclsr3stdE7declvalIRT_EEEEE5valueEDTclsr3stdE4movedeclsr3stdE7declvalISC_EEEEE4typeEOSB_, symObjAddr: 0x8380, symBinAddr: 0x10000BE20, symSize: 0x28 }
  - { offsetInCU: 0x19529, offset: 0x1F9A2, size: 0x8, addend: 0x0, symName: __ZNKSt3__116reverse_iteratorIPP4MeshEdeB7v160006Ev, symObjAddr: 0x83A8, symBinAddr: 0x10000BE48, symSize: 0x28 }
  - { offsetInCU: 0x1955C, offset: 0x1F9D5, size: 0x8, addend: 0x0, symName: __ZNSt3__116reverse_iteratorIPP4MeshEppB7v160006Ev, symObjAddr: 0x83D0, symBinAddr: 0x10000BE70, symSize: 0x20 }
  - { offsetInCU: 0x19581, offset: 0x1F9FA, size: 0x8, addend: 0x0, symName: __ZNSt3__18_IterOpsINS_17_ClassicAlgPolicyEE25__validate_iter_referenceB7v160006IRNS_16reverse_iteratorIPP4MeshEEEEvv, symObjAddr: 0x83F0, symBinAddr: 0x10000BE90, symSize: 0x4 }
  - { offsetInCU: 0x1959F, offset: 0x1FA18, size: 0x8, addend: 0x0, symName: __ZNSt3__118__unwrap_iter_implINS_16reverse_iteratorIPP4MeshEELb0EE8__unwrapB7v160006ES5_, symObjAddr: 0x83F4, symBinAddr: 0x10000BE94, symSize: 0x24 }
  - { offsetInCU: 0x195C8, offset: 0x1FA41, size: 0x8, addend: 0x0, symName: __ZNSt3__14pairINS_16reverse_iteratorIPP4MeshEES5_EC1B7v160006IS5_S5_LPv0EEEOT_OT0_, symObjAddr: 0x8418, symBinAddr: 0x10000BEB8, symSize: 0x3C }
  - { offsetInCU: 0x19625, offset: 0x1FA9E, size: 0x8, addend: 0x0, symName: __ZNSt3__14pairINS_16reverse_iteratorIPP4MeshEES5_EC2B7v160006IS5_S5_LPv0EEEOT_OT0_, symObjAddr: 0x8454, symBinAddr: 0x10000BEF4, symSize: 0x34 }
  - { offsetInCU: 0x19682, offset: 0x1FAFB, size: 0x8, addend: 0x0, symName: __ZNSt3__118__unwrap_iter_implINS_16reverse_iteratorIPP4MeshEELb0EE8__rewrapB7v160006ES5_S5_, symObjAddr: 0x8488, symBinAddr: 0x10000BF28, symSize: 0x2C }
  - { offsetInCU: 0x196B0, offset: 0x1FB29, size: 0x8, addend: 0x0, symName: __ZNSt3__116reverse_iteratorIPP4MeshEC2B7v160006ES3_, symObjAddr: 0x84B4, symBinAddr: 0x10000BF54, symSize: 0x28 }
  - { offsetInCU: 0x196E7, offset: 0x1FB60, size: 0x8, addend: 0x0, symName: __ZNSt3__114__split_bufferIP4MeshRNS_9allocatorIS2_EEED2Ev, symObjAddr: 0x84DC, symBinAddr: 0x10000BF7C, symSize: 0x8C }
  - { offsetInCU: 0x19712, offset: 0x1FB8B, size: 0x8, addend: 0x0, symName: __ZNSt3__114__split_bufferIP4MeshRNS_9allocatorIS2_EEE5clearB7v160006Ev, symObjAddr: 0x8568, symBinAddr: 0x10000C008, symSize: 0x28 }
  - { offsetInCU: 0x19737, offset: 0x1FBB0, size: 0x8, addend: 0x0, symName: __ZNKSt3__114__split_bufferIP4MeshRNS_9allocatorIS2_EEE8capacityB7v160006Ev, symObjAddr: 0x8590, symBinAddr: 0x10000C030, symSize: 0x40 }
  - { offsetInCU: 0x1975C, offset: 0x1FBD5, size: 0x8, addend: 0x0, symName: __ZNSt3__114__split_bufferIP4MeshRNS_9allocatorIS2_EEE17__destruct_at_endB7v160006EPS2_, symObjAddr: 0x85D0, symBinAddr: 0x10000C070, symSize: 0x2C }
  - { offsetInCU: 0x1978E, offset: 0x1FC07, size: 0x8, addend: 0x0, symName: __ZNSt3__114__split_bufferIP4MeshRNS_9allocatorIS2_EEE17__destruct_at_endB7v160006EPS2_NS_17integral_constantIbLb0EEE, symObjAddr: 0x85FC, symBinAddr: 0x10000C09C, symSize: 0x80 }
  - { offsetInCU: 0x197CF, offset: 0x1FC48, size: 0x8, addend: 0x0, symName: __ZNKSt3__114__split_bufferIP4MeshRNS_9allocatorIS2_EEE9__end_capB7v160006Ev, symObjAddr: 0x867C, symBinAddr: 0x10000C11C, symSize: 0x28 }
  - { offsetInCU: 0x197F4, offset: 0x1FC6D, size: 0x8, addend: 0x0, symName: __ZNKSt3__117__compressed_pairIPP4MeshRNS_9allocatorIS2_EEE5firstB7v160006Ev, symObjAddr: 0x86A4, symBinAddr: 0x10000C144, symSize: 0x24 }
  - { offsetInCU: 0x83DB, offset: 0x28238, size: 0x8, addend: 0x0, symName: __ZNSt3__17advanceB7v160006IP6VertexmmvEEvRT_T0_, symObjAddr: 0x714C, symBinAddr: 0x10001186C, symSize: 0x50 }
  - { offsetInCU: 0x8447, offset: 0x282A4, size: 0x8, addend: 0x0, symName: __ZNSt3__17advanceB7v160006IPjmmvEEvRT_T0_, symObjAddr: 0x8654, symBinAddr: 0x100012140, symSize: 0x50 }
  - { offsetInCU: 0x84B3, offset: 0x28310, size: 0x8, addend: 0x0, symName: __ZNSt3__17advanceB7v160006IP7TexturemmvEEvRT_T0_, symObjAddr: 0x9ACC, symBinAddr: 0x1000129E8, symSize: 0x50 }
  - { offsetInCU: 0x8873, offset: 0x286D0, size: 0x8, addend: 0x0, symName: __ZNSt3__17advanceB7v160006IPK7TexturemmvEEvRT_T0_, symObjAddr: 0xAFE0, symBinAddr: 0x100013CDC, symSize: 0x50 }
  - { offsetInCU: 0x88FF, offset: 0x2875C, size: 0x8, addend: 0x0, symName: __ZNSt3__124__put_character_sequenceB7v160006IcNS_11char_traitsIcEEEERNS_13basic_ostreamIT_T0_EES7_PKS4_m, symObjAddr: 0xB7D0, symBinAddr: 0x1000144CC, symSize: 0x1EC }
  - { offsetInCU: 0xB33F, offset: 0x2B19C, size: 0x8, addend: 0x0, symName: __ZNSt3__1neB7v160006IPNS_12basic_stringIcNS_11char_traitsIcEENS_9allocatorIcEEEEEEbRKNS_11__wrap_iterIT_EESC_, symObjAddr: 0xB1C, symBinAddr: 0x10000CB7C, symSize: 0x34 }
  - { offsetInCU: 0xB382, offset: 0x2B1DF, size: 0x8, addend: 0x0, symName: __ZNSt3__1lsB7v160006INS_11char_traitsIcEEEERNS_13basic_ostreamIcT_EES6_PKc, symObjAddr: 0xB8C, symBinAddr: 0x10000CBEC, symSize: 0x48 }
  - { offsetInCU: 0xB3C8, offset: 0x2B225, size: 0x8, addend: 0x0, symName: __ZNSt3__1lsB7v160006IcNS_11char_traitsIcEENS_9allocatorIcEEEERNS_13basic_ostreamIT_T0_EES9_RKNS_12basic_stringIS6_S7_T1_EE, symObjAddr: 0xBD4, symBinAddr: 0x10000CC34, symSize: 0x4C }
  - { offsetInCU: 0xB420, offset: 0x2B27D, size: 0x8, addend: 0x0, symName: __ZNSt3__14endlB7v160006IcNS_11char_traitsIcEEEERNS_13basic_ostreamIT_T0_EES7_, symObjAddr: 0xC4C, symBinAddr: 0x10000CCAC, symSize: 0x58 }
  - { offsetInCU: 0xB460, offset: 0x2B2BD, size: 0x8, addend: 0x0, symName: __ZNSt3__1eqB7v160006IcNS_11char_traitsIcEENS_9allocatorIcEEEEbRKNS_12basic_stringIT_T0_T1_EEPKS6_, symObjAddr: 0x128C, symBinAddr: 0x10000D248, symSize: 0xAC }
  - { offsetInCU: 0xB4C7, offset: 0x2B324, size: 0x8, addend: 0x0, symName: __ZNSt3__1plB7v160006IcNS_11char_traitsIcEENS_9allocatorIcEEEENS_12basic_stringIT_T0_T1_EEOS9_RKS9_, symObjAddr: 0x136C, symBinAddr: 0x10000D328, symSize: 0x40 }
  - { offsetInCU: 0xB51F, offset: 0x2B37C, size: 0x8, addend: 0x0, symName: __ZNSt3__1neB7v160006IP3TriEEbRKNS_11__wrap_iterIT_EES7_, symObjAddr: 0x17CC, symBinAddr: 0x10000D754, symSize: 0x34 }
  - { offsetInCU: 0xB562, offset: 0x2B3BF, size: 0x8, addend: 0x0, symName: __ZNSt3__1eqB7v160006IPNS_12basic_stringIcNS_11char_traitsIcEENS_9allocatorIcEEEEEEbRKNS_11__wrap_iterIT_EESC_, symObjAddr: 0x18C4, symBinAddr: 0x10000D84C, symSize: 0x48 }
  - { offsetInCU: 0xB5A5, offset: 0x2B402, size: 0x8, addend: 0x0, symName: __ZNSt3__1neB7v160006IPjEEbRKNS_11__wrap_iterIT_EES6_, symObjAddr: 0x1A54, symBinAddr: 0x10000D9A0, symSize: 0x34 }
  - { offsetInCU: 0xB5E8, offset: 0x2B445, size: 0x8, addend: 0x0, symName: __ZNSt3__119__debug_db_insert_cB7v160006INS_6vectorIPN3glm3vecILi3EfLNS2_9qualifierE0EEENS_9allocatorIS6_EEEEEEvPT_, symObjAddr: 0x1CD4, symBinAddr: 0x10000DC14, symSize: 0x10 }
  - { offsetInCU: 0xB619, offset: 0x2B476, size: 0x8, addend: 0x0, symName: __ZNSt3__119__debug_db_insert_cB7v160006INS_6vectorI3TriNS_9allocatorIS2_EEEEEEvPT_, symObjAddr: 0x1E40, symBinAddr: 0x10000DD80, symSize: 0x10 }
  - { offsetInCU: 0xB64A, offset: 0x2B4A7, size: 0x8, addend: 0x0, symName: __ZNSt3__1eqB7v160006IPjEEbRKNS_11__wrap_iterIT_EES6_, symObjAddr: 0x1FAC, symBinAddr: 0x10000DEEC, symSize: 0x48 }
  - { offsetInCU: 0xB68D, offset: 0x2B4EA, size: 0x8, addend: 0x0, symName: __ZNSt3__112__to_addressB7v160006IPN3glm3vecILi3EfLNS1_9qualifierE0EEEEEPT_S7_, symObjAddr: 0x226C, symBinAddr: 0x10000E1AC, symSize: 0x14 }
  - { offsetInCU: 0xB6C2, offset: 0x2B51F, size: 0x8, addend: 0x0, symName: __ZNSt3__119__allocate_at_leastB7v160006INS_9allocatorIPN3glm3vecILi3EfLNS2_9qualifierE0EEEEEEENS_19__allocation_resultINS_16allocator_traitsIT_E7pointerEEERSA_m, symObjAddr: 0x2ACC, symBinAddr: 0x10000E7D8, symSize: 0x40 }
  - { offsetInCU: 0xB705, offset: 0x2B562, size: 0x8, addend: 0x0, symName: __ZNSt3__142__uninitialized_allocator_move_if_noexceptB7v160006INS_9allocatorIPN3glm3vecILi3EfLNS2_9qualifierE0EEEEENS_16reverse_iteratorIPS6_EESA_S6_vEET1_RT_T0_SE_SB_, symObjAddr: 0x2E3C, symBinAddr: 0x10000EA44, symSize: 0x78 }
  - { offsetInCU: 0xB782, offset: 0x2B5DF, size: 0x8, addend: 0x0, symName: __ZNSt3__14swapB7v160006IPPN3glm3vecILi3EfLNS1_9qualifierE0EEEEENS_9enable_ifIXaasr21is_move_constructibleIT_EE5valuesr18is_move_assignableIS8_EE5valueEvE4typeERS8_SB_, symObjAddr: 0x2F00, symBinAddr: 0x10000EB08, symSize: 0x3C }
  - { offsetInCU: 0xB7D3, offset: 0x2B630, size: 0x8, addend: 0x0, symName: __ZNSt3__125__debug_db_invalidate_allB7v160006INS_6vectorIPN3glm3vecILi3EfLNS2_9qualifierE0EEENS_9allocatorIS6_EEEEEEvPT_, symObjAddr: 0x2FE8, symBinAddr: 0x10000EBF0, symSize: 0x10 }
  - { offsetInCU: 0xB804, offset: 0x2B661, size: 0x8, addend: 0x0, symName: __ZNSt3__14moveB7v160006INS_16reverse_iteratorIPPN3glm3vecILi3EfLNS2_9qualifierE0EEEEES8_EET0_T_SA_S9_, symObjAddr: 0x3040, symBinAddr: 0x10000EC48, symSize: 0x78 }
  - { offsetInCU: 0xB85E, offset: 0x2B6BB, size: 0x8, addend: 0x0, symName: __ZNSt3__16__moveB7v160006INS_17_ClassicAlgPolicyENS_16reverse_iteratorIPPN3glm3vecILi3EfLNS3_9qualifierE0EEEEES9_S9_EENS_4pairIT0_T2_EESB_T1_SC_, symObjAddr: 0x30B8, symBinAddr: 0x10000ECC0, symSize: 0x64 }
  - { offsetInCU: 0xB8CA, offset: 0x2B727, size: 0x8, addend: 0x0, symName: __ZNSt3__123__dispatch_copy_or_moveB7v160006INS_17_ClassicAlgPolicyENS_11__move_loopIS1_EENS_14__move_trivialENS_16reverse_iteratorIPPN3glm3vecILi3EfLNS6_9qualifierE0EEEEESC_SC_EENS_4pairIT2_T4_EESE_T3_SF_, symObjAddr: 0x311C, symBinAddr: 0x10000ED24, symSize: 0x64 }
  - { offsetInCU: 0xB948, offset: 0x2B7A5, size: 0x8, addend: 0x0, symName: __ZNSt3__121__unwrap_and_dispatchB7v160006INS_10__overloadINS_11__move_loopINS_17_ClassicAlgPolicyEEENS_14__move_trivialEEENS_16reverse_iteratorIPPN3glm3vecILi3EfLNS8_9qualifierE0EEEEESE_SE_Li0EEENS_4pairIT0_T2_EESG_T1_SH_, symObjAddr: 0x3180, symBinAddr: 0x10000ED88, symSize: 0x12C }
  - { offsetInCU: 0xB9D8, offset: 0x2B835, size: 0x8, addend: 0x0, symName: __ZNSt3__114__unwrap_rangeB7v160006INS_16reverse_iteratorIPPN3glm3vecILi3EfLNS2_9qualifierE0EEEEES8_EENS_4pairIT0_SA_EET_SC_, symObjAddr: 0x32AC, symBinAddr: 0x10000EEB4, symSize: 0x84 }
  - { offsetInCU: 0xBB89, offset: 0x2B9E6, size: 0x8, addend: 0x0, symName: __ZNSt3__113__unwrap_iterB7v160006INS_16reverse_iteratorIPPN3glm3vecILi3EfLNS2_9qualifierE0EEEEENS_18__unwrap_iter_implIS8_Lb0EEELi0EEEDTclsrT0_8__unwrapclsr3stdE7declvalIT_EEEESC_, symObjAddr: 0x33D0, symBinAddr: 0x10000EFD8, symSize: 0x44 }
  - { offsetInCU: 0xBBCD, offset: 0x2BA2A, size: 0x8, addend: 0x0, symName: __ZNSt3__19make_pairB7v160006INS_16reverse_iteratorIPPN3glm3vecILi3EfLNS2_9qualifierE0EEEEES8_EENS_4pairINS_18__unwrap_ref_decayIT_E4typeENSA_IT0_E4typeEEEOSB_OSE_, symObjAddr: 0x3414, symBinAddr: 0x10000F01C, symSize: 0x38 }
  - { offsetInCU: 0xBC1C, offset: 0x2BA79, size: 0x8, addend: 0x0, symName: __ZNSt3__114__rewrap_rangeB7v160006INS_16reverse_iteratorIPPN3glm3vecILi3EfLNS2_9qualifierE0EEEEES8_EET_S9_T0_, symObjAddr: 0x344C, symBinAddr: 0x10000F054, symSize: 0x5C }
  - { offsetInCU: 0xBC68, offset: 0x2BAC5, size: 0x8, addend: 0x0, symName: __ZNSt3__113__rewrap_iterB7v160006INS_16reverse_iteratorIPPN3glm3vecILi3EfLNS2_9qualifierE0EEEEES8_NS_18__unwrap_iter_implIS8_Lb0EEEEET_SB_T0_, symObjAddr: 0x34A8, symBinAddr: 0x10000F0B0, symSize: 0x74 }
  - { offsetInCU: 0xBCBD, offset: 0x2BB1A, size: 0x8, addend: 0x0, symName: __ZNSt3__1neB7v160006IPPN3glm3vecILi3EfLNS1_9qualifierE0EEES6_EEbRKNS_16reverse_iteratorIT_EERKNS7_IT0_EE, symObjAddr: 0x351C, symBinAddr: 0x10000F124, symSize: 0x48 }
  - { offsetInCU: 0xBDEE, offset: 0x2BC4B, size: 0x8, addend: 0x0, symName: __ZNSt3__112__to_addressB7v160006I3TriEEPT_S3_, symObjAddr: 0x3CC8, symBinAddr: 0x10000F7C8, symSize: 0x14 }
  - { offsetInCU: 0xBE23, offset: 0x2BC80, size: 0x8, addend: 0x0, symName: __ZNSt3__119__allocate_at_leastB7v160006INS_9allocatorI3TriEEEENS_19__allocation_resultINS_16allocator_traitsIT_E7pointerEEERS6_m, symObjAddr: 0x4314, symBinAddr: 0x10000FE14, symSize: 0x40 }
  - { offsetInCU: 0xBE66, offset: 0x2BCC3, size: 0x8, addend: 0x0, symName: __ZNSt3__142__uninitialized_allocator_move_if_noexceptB7v160006INS_9allocatorI3TriEENS_16reverse_iteratorIPS2_EES6_S2_vEET1_RT_T0_SA_S7_, symObjAddr: 0x45A0, symBinAddr: 0x1000100A0, symSize: 0x78 }
  - { offsetInCU: 0xBEE3, offset: 0x2BD40, size: 0x8, addend: 0x0, symName: __ZNSt3__14swapB7v160006IP3TriEENS_9enable_ifIXaasr21is_move_constructibleIT_EE5valuesr18is_move_assignableIS4_EE5valueEvE4typeERS4_S7_, symObjAddr: 0x4664, symBinAddr: 0x100010164, symSize: 0x3C }
  - { offsetInCU: 0xBF34, offset: 0x2BD91, size: 0x8, addend: 0x0, symName: __ZNSt3__125__debug_db_invalidate_allB7v160006INS_6vectorI3TriNS_9allocatorIS2_EEEEEEvPT_, symObjAddr: 0x4768, symBinAddr: 0x100010268, symSize: 0x10 }
  - { offsetInCU: 0xBF65, offset: 0x2BDC2, size: 0x8, addend: 0x0, symName: __ZNSt3__14moveB7v160006INS_16reverse_iteratorIP3TriEES4_EET0_T_S6_S5_, symObjAddr: 0x47C0, symBinAddr: 0x1000102C0, symSize: 0x78 }
  - { offsetInCU: 0xBFBF, offset: 0x2BE1C, size: 0x8, addend: 0x0, symName: __ZNSt3__16__moveB7v160006INS_17_ClassicAlgPolicyENS_16reverse_iteratorIP3TriEES5_S5_EENS_4pairIT0_T2_EES7_T1_S8_, symObjAddr: 0x4838, symBinAddr: 0x100010338, symSize: 0x64 }
  - { offsetInCU: 0xC02B, offset: 0x2BE88, size: 0x8, addend: 0x0, symName: __ZNSt3__123__dispatch_copy_or_moveB7v160006INS_17_ClassicAlgPolicyENS_11__move_loopIS1_EENS_14__move_trivialENS_16reverse_iteratorIP3TriEES8_S8_EENS_4pairIT2_T4_EESA_T3_SB_, symObjAddr: 0x489C, symBinAddr: 0x10001039C, symSize: 0x64 }
  - { offsetInCU: 0xC0A9, offset: 0x2BF06, size: 0x8, addend: 0x0, symName: __ZNSt3__121__unwrap_and_dispatchB7v160006INS_10__overloadINS_11__move_loopINS_17_ClassicAlgPolicyEEENS_14__move_trivialEEENS_16reverse_iteratorIP3TriEESA_SA_Li0EEENS_4pairIT0_T2_EESC_T1_SD_, symObjAddr: 0x4900, symBinAddr: 0x100010400, symSize: 0x12C }
  - { offsetInCU: 0xC139, offset: 0x2BF96, size: 0x8, addend: 0x0, symName: __ZNSt3__114__unwrap_rangeB7v160006INS_16reverse_iteratorIP3TriEES4_EENS_4pairIT0_S6_EET_S8_, symObjAddr: 0x4A2C, symBinAddr: 0x10001052C, symSize: 0x84 }
  - { offsetInCU: 0xC259, offset: 0x2C0B6, size: 0x8, addend: 0x0, symName: __ZNSt3__113__unwrap_iterB7v160006INS_16reverse_iteratorIP3TriEENS_18__unwrap_iter_implIS4_Lb0EEELi0EEEDTclsrT0_8__unwrapclsr3stdE7declvalIT_EEEES8_, symObjAddr: 0x4B58, symBinAddr: 0x100010658, symSize: 0x44 }
  - { offsetInCU: 0xC29D, offset: 0x2C0FA, size: 0x8, addend: 0x0, symName: __ZNSt3__19make_pairB7v160006INS_16reverse_iteratorIP3TriEES4_EENS_4pairINS_18__unwrap_ref_decayIT_E4typeENS6_IT0_E4typeEEEOS7_OSA_, symObjAddr: 0x4B9C, symBinAddr: 0x10001069C, symSize: 0x38 }
  - { offsetInCU: 0xC2EC, offset: 0x2C149, size: 0x8, addend: 0x0, symName: __ZNSt3__114__rewrap_rangeB7v160006INS_16reverse_iteratorIP3TriEES4_EET_S5_T0_, symObjAddr: 0x4BD4, symBinAddr: 0x1000106D4, symSize: 0x5C }
  - { offsetInCU: 0xC338, offset: 0x2C195, size: 0x8, addend: 0x0, symName: __ZNSt3__113__rewrap_iterB7v160006INS_16reverse_iteratorIP3TriEES4_NS_18__unwrap_iter_implIS4_Lb0EEEEET_S7_T0_, symObjAddr: 0x4C30, symBinAddr: 0x100010730, symSize: 0x74 }
  - { offsetInCU: 0xC38D, offset: 0x2C1EA, size: 0x8, addend: 0x0, symName: __ZNSt3__1neB7v160006IP3TriS2_EEbRKNS_16reverse_iteratorIT_EERKNS3_IT0_EE, symObjAddr: 0x4CA4, symBinAddr: 0x1000107A4, symSize: 0x48 }
  - { offsetInCU: 0xC445, offset: 0x2C2A2, size: 0x8, addend: 0x0, symName: __ZNSt3__118__debug_db_erase_cB7v160006INS_6vectorIPN3glm3vecILi3EfLNS2_9qualifierE0EEENS_9allocatorIS6_EEEEEEvPT_, symObjAddr: 0x5388, symBinAddr: 0x100010E88, symSize: 0x10 }
  - { offsetInCU: 0xC476, offset: 0x2C2D3, size: 0x8, addend: 0x0, symName: __ZNSt3__1eqB7v160006IP3TriEEbRKNS_11__wrap_iterIT_EES7_, symObjAddr: 0x5398, symBinAddr: 0x100010E98, symSize: 0x48 }
  - { offsetInCU: 0xC4EC, offset: 0x2C349, size: 0x8, addend: 0x0, symName: __ZNSt3__112__to_addressB7v160006IKcEEPT_S3_, symObjAddr: 0x59C8, symBinAddr: 0x1000113C0, symSize: 0x14 }
  - { offsetInCU: 0xC554, offset: 0x2C3B1, size: 0x8, addend: 0x0, symName: __ZNSt3__118__debug_db_erase_cB7v160006INS_6vectorI3TriNS_9allocatorIS2_EEEEEEvPT_, symObjAddr: 0x6EA0, symBinAddr: 0x1000115C0, symSize: 0x10 }
  - { offsetInCU: 0xC585, offset: 0x2C3E2, size: 0x8, addend: 0x0, symName: __ZNSt3__18distanceB7v160006IP6VertexEENS_15iterator_traitsIT_E15difference_typeES4_S4_, symObjAddr: 0x7120, symBinAddr: 0x100011840, symSize: 0x2C }
  - { offsetInCU: 0xC5C8, offset: 0x2C425, size: 0x8, addend: 0x0, symName: __ZNSt3__14copyB7v160006IP6VertexS2_EET0_T_S4_S3_, symObjAddr: 0x719C, symBinAddr: 0x1000118BC, symSize: 0x40 }
  - { offsetInCU: 0xC622, offset: 0x2C47F, size: 0x8, addend: 0x0, symName: __ZNSt3__110__distanceB7v160006IP6VertexEENS_15iterator_traitsIT_E15difference_typeES4_S4_NS_26random_access_iterator_tagE, symObjAddr: 0x74CC, symBinAddr: 0x100011A10, symSize: 0x28 }
  - { offsetInCU: 0xC670, offset: 0x2C4CD, size: 0x8, addend: 0x0, symName: __ZNSt3__121__convert_to_integralB7v160006Em, symObjAddr: 0x74F4, symBinAddr: 0x100011A38, symSize: 0x14 }
  - { offsetInCU: 0xC69C, offset: 0x2C4F9, size: 0x8, addend: 0x0, symName: __ZNSt3__19__advanceB7v160006IP6VertexEEvRT_NS_15iterator_traitsIS3_E15difference_typeENS_26random_access_iterator_tagE, symObjAddr: 0x7508, symBinAddr: 0x100011A4C, symSize: 0x30 }
  - { offsetInCU: 0xC6E6, offset: 0x2C543, size: 0x8, addend: 0x0, symName: __ZNSt3__16__copyB7v160006INS_17_ClassicAlgPolicyEP6VertexS3_S3_EENS_4pairIT0_T2_EES5_T1_S6_, symObjAddr: 0x7538, symBinAddr: 0x100011A7C, symSize: 0x44 }
  - { offsetInCU: 0xC752, offset: 0x2C5AF, size: 0x8, addend: 0x0, symName: __ZNSt3__123__dispatch_copy_or_moveB7v160006INS_17_ClassicAlgPolicyENS_11__copy_loopIS1_EENS_14__copy_trivialEP6VertexS6_S6_EENS_4pairIT2_T4_EES8_T3_S9_, symObjAddr: 0x757C, symBinAddr: 0x100011AC0, symSize: 0x44 }
  - { offsetInCU: 0xC7D0, offset: 0x2C62D, size: 0x8, addend: 0x0, symName: __ZNSt3__121__unwrap_and_dispatchB7v160006INS_10__overloadINS_11__copy_loopINS_17_ClassicAlgPolicyEEENS_14__copy_trivialEEEP6VertexS8_S8_Li0EEENS_4pairIT0_T2_EESA_T1_SB_, symObjAddr: 0x75C0, symBinAddr: 0x100011B04, symSize: 0xB4 }
  - { offsetInCU: 0xC85E, offset: 0x2C6BB, size: 0x8, addend: 0x0, symName: __ZNSt3__114__unwrap_rangeB7v160006IP6VertexS2_EENS_4pairIT0_S4_EET_S6_, symObjAddr: 0x7674, symBinAddr: 0x100011BB8, symSize: 0x60 }
  - { offsetInCU: 0xCA2F, offset: 0x2C88C, size: 0x8, addend: 0x0, symName: __ZNSt3__113__unwrap_iterB7v160006IP6VertexNS_18__unwrap_iter_implIS2_Lb1EEELi0EEEDTclsrT0_8__unwrapclsr3stdE7declvalIT_EEEES6_, symObjAddr: 0x771C, symBinAddr: 0x100011C60, symSize: 0x24 }
  - { offsetInCU: 0xCA73, offset: 0x2C8D0, size: 0x8, addend: 0x0, symName: __ZNSt3__19make_pairB7v160006IP6VertexS2_EENS_4pairINS_18__unwrap_ref_decayIT_E4typeENS4_IT0_E4typeEEEOS5_OS8_, symObjAddr: 0x7740, symBinAddr: 0x100011C84, symSize: 0x38 }
  - { offsetInCU: 0xCAC2, offset: 0x2C91F, size: 0x8, addend: 0x0, symName: __ZNSt3__114__rewrap_rangeB7v160006IP6VertexS2_EET_S3_T0_, symObjAddr: 0x7778, symBinAddr: 0x100011CBC, symSize: 0x2C }
  - { offsetInCU: 0xCB0E, offset: 0x2C96B, size: 0x8, addend: 0x0, symName: __ZNSt3__113__rewrap_iterB7v160006IP6VertexS2_NS_18__unwrap_iter_implIS2_Lb1EEEEET_S5_T0_, symObjAddr: 0x77A4, symBinAddr: 0x100011CE8, symSize: 0x3C }
  - { offsetInCU: 0xCB63, offset: 0x2C9C0, size: 0x8, addend: 0x0, symName: __ZNSt3__119__copy_trivial_implB7v160006I6VertexS1_EENS_4pairIPT_PT0_EES4_S4_S6_, symObjAddr: 0x77E0, symBinAddr: 0x100011D24, symSize: 0x8C }
  - { offsetInCU: 0xCBCB, offset: 0x2CA28, size: 0x8, addend: 0x0, symName: __ZNSt3__19make_pairB7v160006IRP6VertexS2_EENS_4pairINS_18__unwrap_ref_decayIT_E4typeENS5_IT0_E4typeEEEOS6_OS9_, symObjAddr: 0x786C, symBinAddr: 0x100011DB0, symSize: 0x38 }
  - { offsetInCU: 0xCC6D, offset: 0x2CACA, size: 0x8, addend: 0x0, symName: __ZNSt3__18distanceB7v160006IPjEENS_15iterator_traitsIT_E15difference_typeES3_S3_, symObjAddr: 0x8628, symBinAddr: 0x100012114, symSize: 0x2C }
  - { offsetInCU: 0xCCB0, offset: 0x2CB0D, size: 0x8, addend: 0x0, symName: __ZNSt3__14copyB7v160006IPjS1_EET0_T_S3_S2_, symObjAddr: 0x86A4, symBinAddr: 0x100012190, symSize: 0x40 }
  - { offsetInCU: 0xCD0A, offset: 0x2CB67, size: 0x8, addend: 0x0, symName: __ZNSt3__110__distanceB7v160006IPjEENS_15iterator_traitsIT_E15difference_typeES3_S3_NS_26random_access_iterator_tagE, symObjAddr: 0x89CC, symBinAddr: 0x1000122E4, symSize: 0x28 }
  - { offsetInCU: 0xCD58, offset: 0x2CBB5, size: 0x8, addend: 0x0, symName: __ZNSt3__19__advanceB7v160006IPjEEvRT_NS_15iterator_traitsIS2_E15difference_typeENS_26random_access_iterator_tagE, symObjAddr: 0x89F4, symBinAddr: 0x10001230C, symSize: 0x28 }
  - { offsetInCU: 0xCDA2, offset: 0x2CBFF, size: 0x8, addend: 0x0, symName: __ZNSt3__16__copyB7v160006INS_17_ClassicAlgPolicyEPjS2_S2_EENS_4pairIT0_T2_EES4_T1_S5_, symObjAddr: 0x8A1C, symBinAddr: 0x100012334, symSize: 0x44 }
  - { offsetInCU: 0xCE0E, offset: 0x2CC6B, size: 0x8, addend: 0x0, symName: __ZNSt3__123__dispatch_copy_or_moveB7v160006INS_17_ClassicAlgPolicyENS_11__copy_loopIS1_EENS_14__copy_trivialEPjS5_S5_EENS_4pairIT2_T4_EES7_T3_S8_, symObjAddr: 0x8A60, symBinAddr: 0x100012378, symSize: 0x44 }
  - { offsetInCU: 0xCE8C, offset: 0x2CCE9, size: 0x8, addend: 0x0, symName: __ZNSt3__121__unwrap_and_dispatchB7v160006INS_10__overloadINS_11__copy_loopINS_17_ClassicAlgPolicyEEENS_14__copy_trivialEEEPjS7_S7_Li0EEENS_4pairIT0_T2_EES9_T1_SA_, symObjAddr: 0x8AA4, symBinAddr: 0x1000123BC, symSize: 0xB4 }
  - { offsetInCU: 0xCF1A, offset: 0x2CD77, size: 0x8, addend: 0x0, symName: __ZNSt3__114__unwrap_rangeB7v160006IPjS1_EENS_4pairIT0_S3_EET_S5_, symObjAddr: 0x8B58, symBinAddr: 0x100012470, symSize: 0x60 }
  - { offsetInCU: 0xD069, offset: 0x2CEC6, size: 0x8, addend: 0x0, symName: __ZNSt3__113__unwrap_iterB7v160006IPjNS_18__unwrap_iter_implIS1_Lb1EEELi0EEEDTclsrT0_8__unwrapclsr3stdE7declvalIT_EEEES5_, symObjAddr: 0x8C00, symBinAddr: 0x100012518, symSize: 0x24 }
  - { offsetInCU: 0xD0AD, offset: 0x2CF0A, size: 0x8, addend: 0x0, symName: __ZNSt3__19make_pairB7v160006IPjS1_EENS_4pairINS_18__unwrap_ref_decayIT_E4typeENS3_IT0_E4typeEEEOS4_OS7_, symObjAddr: 0x8C24, symBinAddr: 0x10001253C, symSize: 0x38 }
  - { offsetInCU: 0xD0FC, offset: 0x2CF59, size: 0x8, addend: 0x0, symName: __ZNSt3__114__rewrap_rangeB7v160006IPjS1_EET_S2_T0_, symObjAddr: 0x8C5C, symBinAddr: 0x100012574, symSize: 0x2C }
  - { offsetInCU: 0xD148, offset: 0x2CFA5, size: 0x8, addend: 0x0, symName: __ZNSt3__113__rewrap_iterB7v160006IPjS1_NS_18__unwrap_iter_implIS1_Lb1EEEEET_S4_T0_, symObjAddr: 0x8C88, symBinAddr: 0x1000125A0, symSize: 0x3C }
  - { offsetInCU: 0xD19D, offset: 0x2CFFA, size: 0x8, addend: 0x0, symName: __ZNSt3__119__copy_trivial_implB7v160006IjjEENS_4pairIPT_PT0_EES3_S3_S5_, symObjAddr: 0x8CC4, symBinAddr: 0x1000125DC, symSize: 0x84 }
  - { offsetInCU: 0xD205, offset: 0x2D062, size: 0x8, addend: 0x0, symName: __ZNSt3__19make_pairB7v160006IRPjS1_EENS_4pairINS_18__unwrap_ref_decayIT_E4typeENS4_IT0_E4typeEEEOS5_OS8_, symObjAddr: 0x8D48, symBinAddr: 0x100012660, symSize: 0x38 }
  - { offsetInCU: 0xD2A7, offset: 0x2D104, size: 0x8, addend: 0x0, symName: __ZNSt3__18distanceB7v160006IP7TextureEENS_15iterator_traitsIT_E15difference_typeES4_S4_, symObjAddr: 0x9AA0, symBinAddr: 0x1000129BC, symSize: 0x2C }
  - { offsetInCU: 0xD2EA, offset: 0x2D147, size: 0x8, addend: 0x0, symName: __ZNSt3__14copyB7v160006IP7TextureS2_EET0_T_S4_S3_, symObjAddr: 0x9B1C, symBinAddr: 0x100012A38, symSize: 0x40 }
  - { offsetInCU: 0xD344, offset: 0x2D1A1, size: 0x8, addend: 0x0, symName: __ZNSt3__110__distanceB7v160006IP7TextureEENS_15iterator_traitsIT_E15difference_typeES4_S4_NS_26random_access_iterator_tagE, symObjAddr: 0x9E4C, symBinAddr: 0x100012CCC, symSize: 0x28 }
  - { offsetInCU: 0xD392, offset: 0x2D1EF, size: 0x8, addend: 0x0, symName: __ZNSt3__19__advanceB7v160006IP7TextureEEvRT_NS_15iterator_traitsIS3_E15difference_typeENS_26random_access_iterator_tagE, symObjAddr: 0x9E74, symBinAddr: 0x100012CF4, symSize: 0x30 }
  - { offsetInCU: 0xD3DC, offset: 0x2D239, size: 0x8, addend: 0x0, symName: __ZNSt3__16__copyB7v160006INS_17_ClassicAlgPolicyEP7TextureS3_S3_EENS_4pairIT0_T2_EES5_T1_S6_, symObjAddr: 0x9EA4, symBinAddr: 0x100012D24, symSize: 0x44 }
  - { offsetInCU: 0xD448, offset: 0x2D2A5, size: 0x8, addend: 0x0, symName: __ZNSt3__123__dispatch_copy_or_moveB7v160006INS_17_ClassicAlgPolicyENS_11__copy_loopIS1_EENS_14__copy_trivialEP7TextureS6_S6_EENS_4pairIT2_T4_EES8_T3_S9_, symObjAddr: 0x9EE8, symBinAddr: 0x100012D68, symSize: 0x44 }
  - { offsetInCU: 0xD4C6, offset: 0x2D323, size: 0x8, addend: 0x0, symName: __ZNSt3__121__unwrap_and_dispatchB7v160006INS_10__overloadINS_11__copy_loopINS_17_ClassicAlgPolicyEEENS_14__copy_trivialEEEP7TextureS8_S8_Li0EEENS_4pairIT0_T2_EESA_T1_SB_, symObjAddr: 0x9F2C, symBinAddr: 0x100012DAC, symSize: 0xB4 }
  - { offsetInCU: 0xD554, offset: 0x2D3B1, size: 0x8, addend: 0x0, symName: __ZNSt3__114__unwrap_rangeB7v160006IP7TextureS2_EENS_4pairIT0_S4_EET_S6_, symObjAddr: 0x9FE0, symBinAddr: 0x100012E60, symSize: 0x60 }
  - { offsetInCU: 0xD705, offset: 0x2D562, size: 0x8, addend: 0x0, symName: __ZNSt3__113__unwrap_iterB7v160006IP7TextureNS_18__unwrap_iter_implIS2_Lb1EEELi0EEEDTclsrT0_8__unwrapclsr3stdE7declvalIT_EEEES6_, symObjAddr: 0xA0C8, symBinAddr: 0x100012F48, symSize: 0x24 }
  - { offsetInCU: 0xD749, offset: 0x2D5A6, size: 0x8, addend: 0x0, symName: __ZNSt3__19make_pairB7v160006IP7TextureS2_EENS_4pairINS_18__unwrap_ref_decayIT_E4typeENS4_IT0_E4typeEEEOS5_OS8_, symObjAddr: 0xA0EC, symBinAddr: 0x100012F6C, symSize: 0x38 }
  - { offsetInCU: 0xD798, offset: 0x2D5F5, size: 0x8, addend: 0x0, symName: __ZNSt3__114__rewrap_rangeB7v160006IP7TextureS2_EET_S3_T0_, symObjAddr: 0xA124, symBinAddr: 0x100012FA4, symSize: 0x2C }
  - { offsetInCU: 0xD7E4, offset: 0x2D641, size: 0x8, addend: 0x0, symName: __ZNSt3__113__rewrap_iterB7v160006IP7TextureS2_NS_18__unwrap_iter_implIS2_Lb1EEEEET_S5_T0_, symObjAddr: 0xA150, symBinAddr: 0x100012FD0, symSize: 0x3C }
  - { offsetInCU: 0xD88C, offset: 0x2D6E9, size: 0x8, addend: 0x0, symName: __ZNSt3__130__uninitialized_allocator_copyB7v160006INS_9allocatorI7TextureEEPS2_S4_S4_EET2_RT_T0_T1_S5_, symObjAddr: 0xA310, symBinAddr: 0x100013190, symSize: 0xF4 }
  - { offsetInCU: 0xD92A, offset: 0x2D787, size: 0x8, addend: 0x0, symName: __ZNSt3__122__make_exception_guardB7v160006INS_29_AllocatorDestroyRangeReverseINS_9allocatorI7TextureEEPS3_EEEENS_28__exception_guard_exceptionsIT_EES8_, symObjAddr: 0xA47C, symBinAddr: 0x1000132FC, symSize: 0x4C }
  - { offsetInCU: 0xD960, offset: 0x2D7BD, size: 0x8, addend: 0x0, symName: __ZNSt3__119__allocator_destroyB7v160006INS_9allocatorI7TextureEENS_16reverse_iteratorIPS2_EES6_EEvRT_T0_T1_, symObjAddr: 0xA7C8, symBinAddr: 0x100013648, symSize: 0x70 }
  - { offsetInCU: 0xD9C3, offset: 0x2D820, size: 0x8, addend: 0x0, symName: __ZNSt3__1neB7v160006IP7TextureS2_EEbRKNS_16reverse_iteratorIT_EERKNS3_IT0_EE, symObjAddr: 0xA86C, symBinAddr: 0x1000136EC, symSize: 0x48 }
  - { offsetInCU: 0xDA0F, offset: 0x2D86C, size: 0x8, addend: 0x0, symName: __ZNSt3__112__to_addressB7v160006INS_16reverse_iteratorIP7TextureEEvEENS_5decayIDTclsr19__to_address_helperIT_EE6__callclsr3stdE7declvalIRKS6_EEEEE4typeES8_, symObjAddr: 0xA8B4, symBinAddr: 0x100013734, symSize: 0x24 }
  - { offsetInCU: 0xDA6E, offset: 0x2D8CB, size: 0x8, addend: 0x0, symName: __ZNSt3__119__allocate_at_leastB7v160006INS_9allocatorI7TextureEEEENS_19__allocation_resultINS_16allocator_traitsIT_E7pointerEEERS6_m, symObjAddr: 0xABF0, symBinAddr: 0x1000138EC, symSize: 0x40 }
  - { offsetInCU: 0xDAB1, offset: 0x2D90E, size: 0x8, addend: 0x0, symName: __ZNSt3__18distanceB7v160006IPK7TextureEENS_15iterator_traitsIT_E15difference_typeES5_S5_, symObjAddr: 0xAFB4, symBinAddr: 0x100013CB0, symSize: 0x2C }
  - { offsetInCU: 0xDAF4, offset: 0x2D951, size: 0x8, addend: 0x0, symName: __ZNSt3__14copyB7v160006IPK7TexturePS1_EET0_T_S6_S5_, symObjAddr: 0xB030, symBinAddr: 0x100013D2C, symSize: 0x40 }
  - { offsetInCU: 0xDB4E, offset: 0x2D9AB, size: 0x8, addend: 0x0, symName: __ZNSt3__110__distanceB7v160006IPK7TextureEENS_15iterator_traitsIT_E15difference_typeES5_S5_NS_26random_access_iterator_tagE, symObjAddr: 0xB0FC, symBinAddr: 0x100013DF8, symSize: 0x28 }
  - { offsetInCU: 0xDB9C, offset: 0x2D9F9, size: 0x8, addend: 0x0, symName: __ZNSt3__19__advanceB7v160006IPK7TextureEEvRT_NS_15iterator_traitsIS4_E15difference_typeENS_26random_access_iterator_tagE, symObjAddr: 0xB124, symBinAddr: 0x100013E20, symSize: 0x30 }
  - { offsetInCU: 0xDBE6, offset: 0x2DA43, size: 0x8, addend: 0x0, symName: __ZNSt3__16__copyB7v160006INS_17_ClassicAlgPolicyEPK7TextureS4_PS2_EENS_4pairIT0_T2_EES7_T1_S8_, symObjAddr: 0xB154, symBinAddr: 0x100013E50, symSize: 0x44 }
  - { offsetInCU: 0xDC52, offset: 0x2DAAF, size: 0x8, addend: 0x0, symName: __ZNSt3__123__dispatch_copy_or_moveB7v160006INS_17_ClassicAlgPolicyENS_11__copy_loopIS1_EENS_14__copy_trivialEPK7TextureS7_PS5_EENS_4pairIT2_T4_EESA_T3_SB_, symObjAddr: 0xB198, symBinAddr: 0x100013E94, symSize: 0x44 }
  - { offsetInCU: 0xDCD0, offset: 0x2DB2D, size: 0x8, addend: 0x0, symName: __ZNSt3__121__unwrap_and_dispatchB7v160006INS_10__overloadINS_11__copy_loopINS_17_ClassicAlgPolicyEEENS_14__copy_trivialEEEPK7TextureS9_PS7_Li0EEENS_4pairIT0_T2_EESC_T1_SD_, symObjAddr: 0xB1DC, symBinAddr: 0x100013ED8, symSize: 0xB4 }
  - { offsetInCU: 0xDD5E, offset: 0x2DBBB, size: 0x8, addend: 0x0, symName: __ZNSt3__114__unwrap_rangeB7v160006IPK7TextureS3_EENS_4pairIT0_S5_EET_S7_, symObjAddr: 0xB290, symBinAddr: 0x100013F8C, symSize: 0x60 }
  - { offsetInCU: 0xDE7E, offset: 0x2DCDB, size: 0x8, addend: 0x0, symName: __ZNSt3__19make_pairB7v160006IPK7TexturePS1_EENS_4pairINS_18__unwrap_ref_decayIT_E4typeENS6_IT0_E4typeEEEOS7_OSA_, symObjAddr: 0xB378, symBinAddr: 0x100014074, symSize: 0x38 }
  - { offsetInCU: 0xDECD, offset: 0x2DD2A, size: 0x8, addend: 0x0, symName: __ZNSt3__114__rewrap_rangeB7v160006IPK7TextureS3_EET_S4_T0_, symObjAddr: 0xB3B0, symBinAddr: 0x1000140AC, symSize: 0x2C }
  - { offsetInCU: 0xDF19, offset: 0x2DD76, size: 0x8, addend: 0x0, symName: __ZNSt3__19make_pairB7v160006IPK7TextureS3_EENS_4pairINS_18__unwrap_ref_decayIT_E4typeENS5_IT0_E4typeEEEOS6_OS9_, symObjAddr: 0xB3DC, symBinAddr: 0x1000140D8, symSize: 0x38 }
  - { offsetInCU: 0xDF68, offset: 0x2DDC5, size: 0x8, addend: 0x0, symName: __ZNSt3__113__unwrap_iterB7v160006IPK7TextureNS_18__unwrap_iter_implIS3_Lb1EEELi0EEEDTclsrT0_8__unwrapclsr3stdE7declvalIT_EEEES7_, symObjAddr: 0xB414, symBinAddr: 0x100014110, symSize: 0x24 }
  - { offsetInCU: 0xE0D3, offset: 0x2DF30, size: 0x8, addend: 0x0, symName: __ZNSt3__112__to_addressB7v160006IK7TextureEEPT_S4_, symObjAddr: 0xB4CC, symBinAddr: 0x1000141C8, symSize: 0x14 }
  - { offsetInCU: 0xE108, offset: 0x2DF65, size: 0x8, addend: 0x0, symName: __ZNSt3__113__rewrap_iterB7v160006IPK7TextureS3_NS_18__unwrap_iter_implIS3_Lb1EEEEET_S6_T0_, symObjAddr: 0xB550, symBinAddr: 0x10001424C, symSize: 0x3C }
  - { offsetInCU: 0xE15D, offset: 0x2DFBA, size: 0x8, addend: 0x0, symName: __ZNSt3__130__uninitialized_allocator_copyB7v160006INS_9allocatorI7TextureEEPKS2_S5_PS2_EET2_RT_T0_T1_S7_, symObjAddr: 0xB5E4, symBinAddr: 0x1000142E0, symSize: 0xF4 }
  - { offsetInCU: 0xE1FB, offset: 0x2E058, size: 0x8, addend: 0x0, symName: __ZNSt3__116__pad_and_outputB7v160006IcNS_11char_traitsIcEEEENS_19ostreambuf_iteratorIT_T0_EES6_PKS4_S8_S8_RNS_8ios_baseES4_, symObjAddr: 0xBA0C, symBinAddr: 0x1000146D4, symSize: 0x240 }
  - { offsetInCU: 0xE2CB, offset: 0x2E128, size: 0x8, addend: 0x0, symName: __ZNSt3__112__to_addressB7v160006IcEEPT_S2_, symObjAddr: 0xBE84, symBinAddr: 0x100014B4C, symSize: 0x14 }
  - { offsetInCU: 0xE300, offset: 0x2E15D, size: 0x8, addend: 0x0, symName: __ZNSt3__19use_facetB7v160006INS_5ctypeIcEEEERKT_RKNS_6localeE, symObjAddr: 0xC030, symBinAddr: 0x100014CF8, symSize: 0x2C }
  - { offsetInCU: 0xE7D9, offset: 0x2E636, size: 0x8, addend: 0x0, symName: __ZNSt3__142__uninitialized_allocator_move_if_noexceptB7v160006INS_9allocatorI7TextureEENS_16reverse_iteratorIPS2_EES6_S6_EET2_RT_T0_T1_S7_, symObjAddr: 0xC6C4, symBinAddr: 0x100015368, symSize: 0x11C }
  - { offsetInCU: 0xE879, offset: 0x2E6D6, size: 0x8, addend: 0x0, symName: __ZNSt3__14swapB7v160006IP7TextureEENS_9enable_ifIXaasr21is_move_constructibleIT_EE5valuesr18is_move_assignableIS4_EE5valueEvE4typeERS4_S7_, symObjAddr: 0xC7E0, symBinAddr: 0x100015484, symSize: 0x3C }
  - { offsetInCU: 0xE8CA, offset: 0x2E727, size: 0x8, addend: 0x0, symName: __ZNSt3__122__make_exception_guardB7v160006INS_29_AllocatorDestroyRangeReverseINS_9allocatorI7TextureEENS_16reverse_iteratorIPS3_EEEEEENS_28__exception_guard_exceptionsIT_EESA_, symObjAddr: 0xC81C, symBinAddr: 0x1000154C0, symSize: 0x4C }
  - { offsetInCU: 0xE900, offset: 0x2E75D, size: 0x8, addend: 0x0, symName: __ZNSt3__115__debug_db_swapB7v160006INS_12basic_stringIcNS_11char_traitsIcEENS_9allocatorIcEEEEEEvPT_S8_, symObjAddr: 0xCB38, symBinAddr: 0x1000157DC, symSize: 0x14 }
  - { offsetInCU: 0xE93F, offset: 0x2E79C, size: 0x8, addend: 0x0, symName: __ZNSt3__119__allocator_destroyB7v160006INS_9allocatorI7TextureEENS_16reverse_iteratorINS4_IPS2_EEEES7_EEvRT_T0_T1_, symObjAddr: 0xCC50, symBinAddr: 0x1000158F4, symSize: 0x70 }
  - { offsetInCU: 0xE9A4, offset: 0x2E801, size: 0x8, addend: 0x0, symName: __ZNSt3__1neB7v160006INS_16reverse_iteratorIP7TextureEES4_EEbRKNS1_IT_EERKNS1_IT0_EE, symObjAddr: 0xCCFC, symBinAddr: 0x1000159A0, symSize: 0x60 }
  - { offsetInCU: 0xE9F0, offset: 0x2E84D, size: 0x8, addend: 0x0, symName: __ZNSt3__112__to_addressB7v160006INS_16reverse_iteratorINS1_IP7TextureEEEEvEENS_5decayIDTclsr19__to_address_helperIT_EE6__callclsr3stdE7declvalIRKS7_EEEEE4typeES9_, symObjAddr: 0xCD5C, symBinAddr: 0x100015A00, symSize: 0x24 }
  - { offsetInCU: 0xEEAE, offset: 0x2ED0B, size: 0x8, addend: 0x0, symName: __ZNSt3__16vectorIPN3glm3vecILi3EfLNS1_9qualifierE0EEENS_9allocatorIS5_EEE26__swap_out_circular_bufferERNS_14__split_bufferIS5_RS7_EE, symObjAddr: 0x2490, symBinAddr: 0x10000E3D0, symSize: 0x118 }
  - { offsetInCU: 0xF037, offset: 0x2EE94, size: 0x8, addend: 0x0, symName: __ZNSt3__16vectorI3TriNS_9allocatorIS1_EEE26__swap_out_circular_bufferERNS_14__split_bufferIS1_RS3_EE, symObjAddr: 0x3EFC, symBinAddr: 0x10000F9FC, symSize: 0x118 }
  - { offsetInCU: 0xF4B1, offset: 0x2F30E, size: 0x8, addend: 0x0, symName: __ZNSt3__16vectorI7TextureNS_9allocatorIS1_EEE26__swap_out_circular_bufferERNS_14__split_bufferIS1_RS3_EE, symObjAddr: 0xC348, symBinAddr: 0x100014FEC, symSize: 0x118 }
  - { offsetInCU: 0x11448, offset: 0x312A5, size: 0x8, addend: 0x0, symName: __ZN4MeshC2ENSt3__16vectorI6VertexNS0_9allocatorIS2_EEEENS1_IjNS3_IjEEEENS1_I7TextureNS3_IS8_EEEE, symObjAddr: 0x0, symBinAddr: 0x10000C168, symSize: 0xE4 }
  - { offsetInCU: 0x1149F, offset: 0x312FC, size: 0x8, addend: 0x0, symName: __ZNSt3__16vectorI6VertexNS_9allocatorIS1_EEEaSB7v160006ERKS4_, symObjAddr: 0x168, symBinAddr: 0x10000C24C, symSize: 0x68 }
  - { offsetInCU: 0x114D5, offset: 0x31332, size: 0x8, addend: 0x0, symName: __ZNSt3__16vectorIjNS_9allocatorIjEEEaSB7v160006ERKS3_, symObjAddr: 0x1D0, symBinAddr: 0x10000C2B4, symSize: 0x68 }
  - { offsetInCU: 0x1150B, offset: 0x31368, size: 0x8, addend: 0x0, symName: __ZNSt3__16vectorI7TextureNS_9allocatorIS1_EEEaSB7v160006ERKS4_, symObjAddr: 0x238, symBinAddr: 0x10000C31C, symSize: 0x68 }
  - { offsetInCU: 0x11541, offset: 0x3139E, size: 0x8, addend: 0x0, symName: __ZN4Mesh9setupMeshEv, symObjAddr: 0x2A0, symBinAddr: 0x10000C384, symSize: 0x24C }
  - { offsetInCU: 0x11567, offset: 0x313C4, size: 0x8, addend: 0x0, symName: __ZN4MeshC1ENSt3__16vectorI6VertexNS0_9allocatorIS2_EEEENS1_IjNS3_IjEEEENS1_I7TextureNS3_IS8_EEEE, symObjAddr: 0x570, symBinAddr: 0x10000C5D0, symSize: 0x44 }
  - { offsetInCU: 0x115BE, offset: 0x3141B, size: 0x8, addend: 0x0, symName: __ZN4MeshC2ENSt3__16vectorI6VertexNS0_9allocatorIS2_EEEENS1_IjNS3_IjEEEENS1_INS0_12basic_stringIcNS0_11char_traitsIcEENS3_IcEEEENS3_ISC_EEEE, symObjAddr: 0x5B4, symBinAddr: 0x10000C614, symSize: 0x47C }
  - { offsetInCU: 0x116DA, offset: 0x31537, size: 0x8, addend: 0x0, symName: __ZNSt16initializer_listI7TextureEC1B7v160006Ev, symObjAddr: 0xA30, symBinAddr: 0x10000CA90, symSize: 0x2C }
  - { offsetInCU: 0x11703, offset: 0x31560, size: 0x8, addend: 0x0, symName: __ZNSt3__16vectorI7TextureNS_9allocatorIS1_EEEaSB7v160006ESt16initializer_listIS1_E, symObjAddr: 0xA5C, symBinAddr: 0x10000CABC, symSize: 0x60 }
  - { offsetInCU: 0x11737, offset: 0x31594, size: 0x8, addend: 0x0, symName: __ZNSt3__16vectorINS_12basic_stringIcNS_11char_traitsIcEENS_9allocatorIcEEEENS4_IS6_EEE5beginB7v160006Ev, symObjAddr: 0xABC, symBinAddr: 0x10000CB1C, symSize: 0x30 }
  - { offsetInCU: 0x1175E, offset: 0x315BB, size: 0x8, addend: 0x0, symName: __ZNSt3__16vectorINS_12basic_stringIcNS_11char_traitsIcEENS_9allocatorIcEEEENS4_IS6_EEE3endB7v160006Ev, symObjAddr: 0xAEC, symBinAddr: 0x10000CB4C, symSize: 0x30 }
  - { offsetInCU: 0x11785, offset: 0x315E2, size: 0x8, addend: 0x0, symName: __ZNKSt3__111__wrap_iterIPNS_12basic_stringIcNS_11char_traitsIcEENS_9allocatorIcEEEEEdeB7v160006Ev, symObjAddr: 0xB50, symBinAddr: 0x10000CBB0, symSize: 0x18 }
  - { offsetInCU: 0x117AA, offset: 0x31607, size: 0x8, addend: 0x0, symName: __ZNKSt3__112basic_stringIcNS_11char_traitsIcEENS_9allocatorIcEEE5c_strB7v160006Ev, symObjAddr: 0xB68, symBinAddr: 0x10000CBC8, symSize: 0x24 }
  - { offsetInCU: 0x117CF, offset: 0x3162C, size: 0x8, addend: 0x0, symName: __ZNSt3__113basic_ostreamIcNS_11char_traitsIcEEElsB7v160006EPFRS3_S4_E, symObjAddr: 0xC20, symBinAddr: 0x10000CC80, symSize: 0x2C }
  - { offsetInCU: 0x11807, offset: 0x31664, size: 0x8, addend: 0x0, symName: __ZN7TextureC1Ev, symObjAddr: 0xCA4, symBinAddr: 0x10000CD04, symSize: 0x2C }
  - { offsetInCU: 0x11831, offset: 0x3168E, size: 0x8, addend: 0x0, symName: __ZNSt3__112basic_stringIcNS_11char_traitsIcEENS_9allocatorIcEEEaSB7v160006EPKc, symObjAddr: 0xCD0, symBinAddr: 0x10000CD30, symSize: 0x2C }
  - { offsetInCU: 0x11865, offset: 0x316C2, size: 0x8, addend: 0x0, symName: __ZNSt3__16vectorI7TextureNS_9allocatorIS1_EEE9push_backB7v160006ERKS1_, symObjAddr: 0xCFC, symBinAddr: 0x10000CD5C, symSize: 0x6C }
  - { offsetInCU: 0x1189B, offset: 0x316F8, size: 0x8, addend: 0x0, symName: __ZNSt3__111__wrap_iterIPNS_12basic_stringIcNS_11char_traitsIcEENS_9allocatorIcEEEEEppB7v160006Ev, symObjAddr: 0xD94, symBinAddr: 0x10000CDC8, symSize: 0x20 }
  - { offsetInCU: 0x118C0, offset: 0x3171D, size: 0x8, addend: 0x0, symName: __ZN4MeshC1ENSt3__16vectorI6VertexNS0_9allocatorIS2_EEEENS1_IjNS3_IjEEEENS1_INS0_12basic_stringIcNS0_11char_traitsIcEENS3_IcEEEENS3_ISC_EEEE, symObjAddr: 0xDB4, symBinAddr: 0x10000CDE8, symSize: 0x44 }
  - { offsetInCU: 0x11917, offset: 0x31774, size: 0x8, addend: 0x0, symName: __ZNSt3__16vectorI6VertexNS_9allocatorIS1_EEEixB7v160006Em, symObjAddr: 0xE20, symBinAddr: 0x10000CE2C, symSize: 0x2C }
  - { offsetInCU: 0x1194D, offset: 0x317AA, size: 0x8, addend: 0x0, symName: __ZNSt3__16vectorIjNS_9allocatorIjEEEixB7v160006Em, symObjAddr: 0xE74, symBinAddr: 0x10000CE58, symSize: 0x24 }
  - { offsetInCU: 0x11983, offset: 0x317E0, size: 0x8, addend: 0x0, symName: __ZN4Mesh4drawER6Shader, symObjAddr: 0xE98, symBinAddr: 0x10000CE7C, symSize: 0x374 }
  - { offsetInCU: 0x11A14, offset: 0x31871, size: 0x8, addend: 0x0, symName: __ZNSt3__112basic_stringIcNS_11char_traitsIcEENS_9allocatorIcEEEC1B7v160006Ev, symObjAddr: 0x1234, symBinAddr: 0x10000D1F0, symSize: 0x2C }
  - { offsetInCU: 0x11A3D, offset: 0x3189A, size: 0x8, addend: 0x0, symName: __ZNSt3__16vectorI7TextureNS_9allocatorIS1_EEEixB7v160006Em, symObjAddr: 0x1260, symBinAddr: 0x10000D21C, symSize: 0x2C }
  - { offsetInCU: 0x11A73, offset: 0x318D0, size: 0x8, addend: 0x0, symName: __ZNSt3__112basic_stringIcNS_11char_traitsIcEENS_9allocatorIcEEEaSB7v160006EOS5_, symObjAddr: 0x1338, symBinAddr: 0x10000D2F4, symSize: 0x34 }
  - { offsetInCU: 0x11AAC, offset: 0x31909, size: 0x8, addend: 0x0, symName: __ZN4Mesh15check_collisionEPS_, symObjAddr: 0x13E0, symBinAddr: 0x10000D368, symSize: 0x1B0 }
  - { offsetInCU: 0x11B86, offset: 0x319E3, size: 0x8, addend: 0x0, symName: __ZN4Mesh7getTrisEv, symObjAddr: 0x1590, symBinAddr: 0x10000D518, symSize: 0x1DC }
  - { offsetInCU: 0x11C22, offset: 0x31A7F, size: 0x8, addend: 0x0, symName: __ZNSt3__16vectorI3TriNS_9allocatorIS1_EEE5beginB7v160006Ev, symObjAddr: 0x176C, symBinAddr: 0x10000D6F4, symSize: 0x30 }
  - { offsetInCU: 0x11C49, offset: 0x31AA6, size: 0x8, addend: 0x0, symName: __ZNSt3__16vectorI3TriNS_9allocatorIS1_EEE3endB7v160006Ev, symObjAddr: 0x179C, symBinAddr: 0x10000D724, symSize: 0x30 }
  - { offsetInCU: 0x11C70, offset: 0x31ACD, size: 0x8, addend: 0x0, symName: __ZNKSt3__111__wrap_iterIP3TriEdeB7v160006Ev, symObjAddr: 0x1800, symBinAddr: 0x10000D788, symSize: 0x18 }
  - { offsetInCU: 0x11C95, offset: 0x31AF2, size: 0x8, addend: 0x0, symName: __ZNSt3__111__wrap_iterIP3TriEppB7v160006Ev, symObjAddr: 0x1818, symBinAddr: 0x10000D7A0, symSize: 0x20 }
  - { offsetInCU: 0x11CBA, offset: 0x31B17, size: 0x8, addend: 0x0, symName: __ZN3TriC1EPN3glm3vecILi3EfLNS0_9qualifierE0EEES4_S4_, symObjAddr: 0x1838, symBinAddr: 0x10000D7C0, symSize: 0x44 }
  - { offsetInCU: 0x11D0D, offset: 0x31B6A, size: 0x8, addend: 0x0, symName: __ZNSt3__16vectorI3TriNS_9allocatorIS1_EEED1B7v160006Ev, symObjAddr: 0x187C, symBinAddr: 0x10000D804, symSize: 0x2C }
  - { offsetInCU: 0x11D36, offset: 0x31B93, size: 0x8, addend: 0x0, symName: __ZNSt16initializer_listI7TextureEC2B7v160006Ev, symObjAddr: 0x18A8, symBinAddr: 0x10000D830, symSize: 0x1C }
  - { offsetInCU: 0x11D5F, offset: 0x31BBC, size: 0x8, addend: 0x0, symName: __ZNKSt3__111__wrap_iterIPNS_12basic_stringIcNS_11char_traitsIcEENS_9allocatorIcEEEEE4baseB7v160006Ev, symObjAddr: 0x190C, symBinAddr: 0x10000D894, symSize: 0x18 }
  - { offsetInCU: 0x11D84, offset: 0x31BE1, size: 0x8, addend: 0x0, symName: __ZN7TextureC2Ev, symObjAddr: 0x1924, symBinAddr: 0x10000D8AC, symSize: 0x3C }
  - { offsetInCU: 0x11DAE, offset: 0x31C0B, size: 0x8, addend: 0x0, symName: __ZNSt3__16vectorIPN3glm3vecILi3EfLNS1_9qualifierE0EEENS_9allocatorIS5_EEEC1B7v160006Ev, symObjAddr: 0x199C, symBinAddr: 0x10000D8E8, symSize: 0x2C }
  - { offsetInCU: 0x11DD7, offset: 0x31C34, size: 0x8, addend: 0x0, symName: __ZNSt3__16vectorI3TriNS_9allocatorIS1_EEEC1B7v160006Ev, symObjAddr: 0x19C8, symBinAddr: 0x10000D914, symSize: 0x2C }
  - { offsetInCU: 0x11E00, offset: 0x31C5D, size: 0x8, addend: 0x0, symName: __ZNSt3__16vectorIjNS_9allocatorIjEEE5beginB7v160006Ev, symObjAddr: 0x19F4, symBinAddr: 0x10000D940, symSize: 0x30 }
  - { offsetInCU: 0x11E27, offset: 0x31C84, size: 0x8, addend: 0x0, symName: __ZNSt3__16vectorIjNS_9allocatorIjEEE3endB7v160006Ev, symObjAddr: 0x1A24, symBinAddr: 0x10000D970, symSize: 0x30 }
  - { offsetInCU: 0x11E4E, offset: 0x31CAB, size: 0x8, addend: 0x0, symName: __ZNKSt3__111__wrap_iterIPjEdeB7v160006Ev, symObjAddr: 0x1A88, symBinAddr: 0x10000D9D4, symSize: 0x18 }
  - { offsetInCU: 0x11E73, offset: 0x31CD0, size: 0x8, addend: 0x0, symName: __ZNSt3__16vectorIPN3glm3vecILi3EfLNS1_9qualifierE0EEENS_9allocatorIS5_EEE9push_backB7v160006EOS5_, symObjAddr: 0x1AA0, symBinAddr: 0x10000D9EC, symSize: 0x6C }
  - { offsetInCU: 0x11EA9, offset: 0x31D06, size: 0x8, addend: 0x0, symName: __ZNSt3__16vectorI3TriNS_9allocatorIS1_EEE9push_backB7v160006EOS1_, symObjAddr: 0x1B0C, symBinAddr: 0x10000DA58, symSize: 0x6C }
  - { offsetInCU: 0x11EDF, offset: 0x31D3C, size: 0x8, addend: 0x0, symName: __ZNSt3__16vectorIPN3glm3vecILi3EfLNS1_9qualifierE0EEENS_9allocatorIS5_EEEixB7v160006Em, symObjAddr: 0x1B78, symBinAddr: 0x10000DAC4, symSize: 0x24 }
  - { offsetInCU: 0x11F15, offset: 0x31D72, size: 0x8, addend: 0x0, symName: __ZNSt3__16vectorIPN3glm3vecILi3EfLNS1_9qualifierE0EEENS_9allocatorIS5_EEE5clearB7v160006Ev, symObjAddr: 0x1B9C, symBinAddr: 0x10000DAE8, symSize: 0x4C }
  - { offsetInCU: 0x11F49, offset: 0x31DA6, size: 0x8, addend: 0x0, symName: __ZNSt3__111__wrap_iterIPjEppB7v160006Ev, symObjAddr: 0x1BE8, symBinAddr: 0x10000DB34, symSize: 0x20 }
  - { offsetInCU: 0x11F6E, offset: 0x31DCB, size: 0x8, addend: 0x0, symName: __ZNSt3__16vectorIPN3glm3vecILi3EfLNS1_9qualifierE0EEENS_9allocatorIS5_EEED1B7v160006Ev, symObjAddr: 0x1C08, symBinAddr: 0x10000DB54, symSize: 0x2C }
  - { offsetInCU: 0x11F97, offset: 0x31DF4, size: 0x8, addend: 0x0, symName: __ZNSt3__16vectorIPN3glm3vecILi3EfLNS1_9qualifierE0EEENS_9allocatorIS5_EEEC2B7v160006Ev, symObjAddr: 0x1C34, symBinAddr: 0x10000DB80, symSize: 0x58 }
  - { offsetInCU: 0x11FCC, offset: 0x31E29, size: 0x8, addend: 0x0, symName: __ZNSt3__117__compressed_pairIPPN3glm3vecILi3EfLNS1_9qualifierE0EEENS_9allocatorIS5_EEEC1B7v160006IDnNS_18__default_init_tagEEEOT_OT0_, symObjAddr: 0x1C8C, symBinAddr: 0x10000DBD8, symSize: 0x3C }
  - { offsetInCU: 0x12023, offset: 0x31E80, size: 0x8, addend: 0x0, symName: __ZNSt3__117__compressed_pairIPPN3glm3vecILi3EfLNS1_9qualifierE0EEENS_9allocatorIS5_EEEC2B7v160006IDnNS_18__default_init_tagEEEOT_OT0_, symObjAddr: 0x1CE4, symBinAddr: 0x10000DC24, symSize: 0x40 }
  - { offsetInCU: 0x1207A, offset: 0x31ED7, size: 0x8, addend: 0x0, symName: __ZNSt3__122__compressed_pair_elemIPPN3glm3vecILi3EfLNS1_9qualifierE0EEELi0ELb0EEC2B7v160006IDnvEEOT_, symObjAddr: 0x1D24, symBinAddr: 0x10000DC64, symSize: 0x1C }
  - { offsetInCU: 0x120BB, offset: 0x31F18, size: 0x8, addend: 0x0, symName: __ZNSt3__122__compressed_pair_elemINS_9allocatorIPN3glm3vecILi3EfLNS2_9qualifierE0EEEEELi1ELb1EEC2B7v160006ENS_18__default_init_tagE, symObjAddr: 0x1D40, symBinAddr: 0x10000DC80, symSize: 0x2C }
  - { offsetInCU: 0x120EF, offset: 0x31F4C, size: 0x8, addend: 0x0, symName: __ZNSt3__19allocatorIPN3glm3vecILi3EfLNS1_9qualifierE0EEEEC2B7v160006Ev, symObjAddr: 0x1D6C, symBinAddr: 0x10000DCAC, symSize: 0x2C }
  - { offsetInCU: 0x12118, offset: 0x31F75, size: 0x8, addend: 0x0, symName: __ZNSt3__116__non_trivial_ifILb1ENS_9allocatorIPN3glm3vecILi3EfLNS2_9qualifierE0EEEEEEC2B7v160006Ev, symObjAddr: 0x1D98, symBinAddr: 0x10000DCD8, symSize: 0x14 }
  - { offsetInCU: 0x12141, offset: 0x31F9E, size: 0x8, addend: 0x0, symName: __ZNSt3__16vectorI3TriNS_9allocatorIS1_EEEC2B7v160006Ev, symObjAddr: 0x1DAC, symBinAddr: 0x10000DCEC, symSize: 0x58 }
  - { offsetInCU: 0x1216A, offset: 0x31FC7, size: 0x8, addend: 0x0, symName: __ZNSt3__117__compressed_pairIP3TriNS_9allocatorIS1_EEEC1B7v160006IDnNS_18__default_init_tagEEEOT_OT0_, symObjAddr: 0x1E04, symBinAddr: 0x10000DD44, symSize: 0x3C }
  - { offsetInCU: 0x121C1, offset: 0x3201E, size: 0x8, addend: 0x0, symName: __ZNSt3__117__compressed_pairIP3TriNS_9allocatorIS1_EEEC2B7v160006IDnNS_18__default_init_tagEEEOT_OT0_, symObjAddr: 0x1E50, symBinAddr: 0x10000DD90, symSize: 0x40 }
  - { offsetInCU: 0x12218, offset: 0x32075, size: 0x8, addend: 0x0, symName: __ZNSt3__122__compressed_pair_elemIP3TriLi0ELb0EEC2B7v160006IDnvEEOT_, symObjAddr: 0x1E90, symBinAddr: 0x10000DDD0, symSize: 0x1C }
  - { offsetInCU: 0x12259, offset: 0x320B6, size: 0x8, addend: 0x0, symName: __ZNSt3__122__compressed_pair_elemINS_9allocatorI3TriEELi1ELb1EEC2B7v160006ENS_18__default_init_tagE, symObjAddr: 0x1EAC, symBinAddr: 0x10000DDEC, symSize: 0x2C }
  - { offsetInCU: 0x1228D, offset: 0x320EA, size: 0x8, addend: 0x0, symName: __ZNSt3__19allocatorI3TriEC2B7v160006Ev, symObjAddr: 0x1ED8, symBinAddr: 0x10000DE18, symSize: 0x2C }
  - { offsetInCU: 0x122B6, offset: 0x32113, size: 0x8, addend: 0x0, symName: __ZNSt3__116__non_trivial_ifILb1ENS_9allocatorI3TriEEEC2B7v160006Ev, symObjAddr: 0x1F04, symBinAddr: 0x10000DE44, symSize: 0x14 }
  - { offsetInCU: 0x122DF, offset: 0x3213C, size: 0x8, addend: 0x0, symName: __ZNSt3__16vectorIjNS_9allocatorIjEEE11__make_iterB7v160006EPj, symObjAddr: 0x1F18, symBinAddr: 0x10000DE58, symSize: 0x34 }
  - { offsetInCU: 0x12313, offset: 0x32170, size: 0x8, addend: 0x0, symName: __ZNSt3__111__wrap_iterIPjEC1B7v160006EPKvS1_, symObjAddr: 0x1F4C, symBinAddr: 0x10000DE8C, symSize: 0x3C }
  - { offsetInCU: 0x12358, offset: 0x321B5, size: 0x8, addend: 0x0, symName: __ZNSt3__111__wrap_iterIPjEC2B7v160006EPKvS1_, symObjAddr: 0x1F88, symBinAddr: 0x10000DEC8, symSize: 0x24 }
  - { offsetInCU: 0x1239D, offset: 0x321FA, size: 0x8, addend: 0x0, symName: __ZNKSt3__111__wrap_iterIPjE4baseB7v160006Ev, symObjAddr: 0x1FF4, symBinAddr: 0x10000DF34, symSize: 0x18 }
  - { offsetInCU: 0x123C2, offset: 0x3221F, size: 0x8, addend: 0x0, symName: __ZNSt3__16vectorIPN3glm3vecILi3EfLNS1_9qualifierE0EEENS_9allocatorIS5_EEE9__end_capB7v160006Ev, symObjAddr: 0x200C, symBinAddr: 0x10000DF4C, symSize: 0x28 }
  - { offsetInCU: 0x123ED, offset: 0x3224A, size: 0x8, addend: 0x0, symName: __ZNSt3__16vectorIPN3glm3vecILi3EfLNS1_9qualifierE0EEENS_9allocatorIS5_EEE22__construct_one_at_endB7v160006IJS5_EEEvDpOT_, symObjAddr: 0x2034, symBinAddr: 0x10000DF74, symSize: 0x90 }
  - { offsetInCU: 0x1243B, offset: 0x32298, size: 0x8, addend: 0x0, symName: __ZNSt3__16vectorIPN3glm3vecILi3EfLNS1_9qualifierE0EEENS_9allocatorIS5_EEE21__push_back_slow_pathIS5_EEvOT_, symObjAddr: 0x20C4, symBinAddr: 0x10000E004, symSize: 0xD8 }
  - { offsetInCU: 0x12498, offset: 0x322F5, size: 0x8, addend: 0x0, symName: __ZNSt3__117__compressed_pairIPPN3glm3vecILi3EfLNS1_9qualifierE0EEENS_9allocatorIS5_EEE5firstB7v160006Ev, symObjAddr: 0x219C, symBinAddr: 0x10000E0DC, symSize: 0x24 }
  - { offsetInCU: 0x124BD, offset: 0x3231A, size: 0x8, addend: 0x0, symName: __ZNSt3__122__compressed_pair_elemIPPN3glm3vecILi3EfLNS1_9qualifierE0EEELi0ELb0EE5__getB7v160006Ev, symObjAddr: 0x21C0, symBinAddr: 0x10000E100, symSize: 0x14 }
  - { offsetInCU: 0x124FB, offset: 0x32358, size: 0x8, addend: 0x0, symName: __ZNSt3__16vectorIPN3glm3vecILi3EfLNS1_9qualifierE0EEENS_9allocatorIS5_EEE21_ConstructTransactionC1B7v160006ERS8_m, symObjAddr: 0x21D4, symBinAddr: 0x10000E114, symSize: 0x3C }
  - { offsetInCU: 0x12542, offset: 0x3239F, size: 0x8, addend: 0x0, symName: __ZNSt3__116allocator_traitsINS_9allocatorIPN3glm3vecILi3EfLNS2_9qualifierE0EEEEEE9constructB7v160006IS6_JS6_EvEEvRS7_PT_DpOT0_, symObjAddr: 0x2210, symBinAddr: 0x10000E150, symSize: 0x34 }
  - { offsetInCU: 0x12598, offset: 0x323F5, size: 0x8, addend: 0x0, symName: __ZNSt3__16vectorIPN3glm3vecILi3EfLNS1_9qualifierE0EEENS_9allocatorIS5_EEE7__allocB7v160006Ev, symObjAddr: 0x2244, symBinAddr: 0x10000E184, symSize: 0x28 }
  - { offsetInCU: 0x125BD, offset: 0x3241A, size: 0x8, addend: 0x0, symName: __ZNSt3__16vectorIPN3glm3vecILi3EfLNS1_9qualifierE0EEENS_9allocatorIS5_EEE21_ConstructTransactionD1B7v160006Ev, symObjAddr: 0x2280, symBinAddr: 0x10000E1C0, symSize: 0x2C }
  - { offsetInCU: 0x125E6, offset: 0x32443, size: 0x8, addend: 0x0, symName: __ZNSt3__16vectorIPN3glm3vecILi3EfLNS1_9qualifierE0EEENS_9allocatorIS5_EEE21_ConstructTransactionC2B7v160006ERS8_m, symObjAddr: 0x22AC, symBinAddr: 0x10000E1EC, symSize: 0x44 }
  - { offsetInCU: 0x1262D, offset: 0x3248A, size: 0x8, addend: 0x0, symName: __ZNSt3__19allocatorIPN3glm3vecILi3EfLNS1_9qualifierE0EEEE9constructB7v160006IS5_JS5_EEEvPT_DpOT0_, symObjAddr: 0x22F0, symBinAddr: 0x10000E230, symSize: 0x28 }
  - { offsetInCU: 0x12682, offset: 0x324DF, size: 0x8, addend: 0x0, symName: __ZNSt3__117__compressed_pairIPPN3glm3vecILi3EfLNS1_9qualifierE0EEENS_9allocatorIS5_EEE6secondB7v160006Ev, symObjAddr: 0x2318, symBinAddr: 0x10000E258, symSize: 0x24 }
  - { offsetInCU: 0x126A7, offset: 0x32504, size: 0x8, addend: 0x0, symName: __ZNSt3__122__compressed_pair_elemINS_9allocatorIPN3glm3vecILi3EfLNS2_9qualifierE0EEEEELi1ELb1EE5__getB7v160006Ev, symObjAddr: 0x233C, symBinAddr: 0x10000E27C, symSize: 0x14 }
  - { offsetInCU: 0x126CC, offset: 0x32529, size: 0x8, addend: 0x0, symName: __ZNSt3__16vectorIPN3glm3vecILi3EfLNS1_9qualifierE0EEENS_9allocatorIS5_EEE21_ConstructTransactionD2B7v160006Ev, symObjAddr: 0x2350, symBinAddr: 0x10000E290, symSize: 0x20 }
  - { offsetInCU: 0x126F5, offset: 0x32552, size: 0x8, addend: 0x0, symName: __ZNKSt3__16vectorIPN3glm3vecILi3EfLNS1_9qualifierE0EEENS_9allocatorIS5_EEE11__recommendB7v160006Em, symObjAddr: 0x2370, symBinAddr: 0x10000E2B0, symSize: 0xB4 }
  - { offsetInCU: 0x12749, offset: 0x325A6, size: 0x8, addend: 0x0, symName: __ZNKSt3__16vectorIPN3glm3vecILi3EfLNS1_9qualifierE0EEENS_9allocatorIS5_EEE4sizeB7v160006Ev, symObjAddr: 0x2424, symBinAddr: 0x10000E364, symSize: 0x28 }
  - { offsetInCU: 0x1276E, offset: 0x325CB, size: 0x8, addend: 0x0, symName: __ZNSt3__114__split_bufferIPN3glm3vecILi3EfLNS1_9qualifierE0EEERNS_9allocatorIS5_EEEC1EmmS8_, symObjAddr: 0x244C, symBinAddr: 0x10000E38C, symSize: 0x44 }
  - { offsetInCU: 0x127C3, offset: 0x32620, size: 0x8, addend: 0x0, symName: __ZNSt3__114__split_bufferIPN3glm3vecILi3EfLNS1_9qualifierE0EEERNS_9allocatorIS5_EEED1Ev, symObjAddr: 0x25A8, symBinAddr: 0x10000E4E8, symSize: 0x2C }
  - { offsetInCU: 0x127EE, offset: 0x3264B, size: 0x8, addend: 0x0, symName: __ZNKSt3__16vectorIPN3glm3vecILi3EfLNS1_9qualifierE0EEENS_9allocatorIS5_EEE8max_sizeEv, symObjAddr: 0x25D4, symBinAddr: 0x10000E514, symSize: 0x60 }
  - { offsetInCU: 0x12815, offset: 0x32672, size: 0x8, addend: 0x0, symName: __ZNKSt3__16vectorIPN3glm3vecILi3EfLNS1_9qualifierE0EEENS_9allocatorIS5_EEE20__throw_length_errorB7v160006Ev, symObjAddr: 0x2634, symBinAddr: 0x10000E574, symSize: 0x1C }
  - { offsetInCU: 0x1283A, offset: 0x32697, size: 0x8, addend: 0x0, symName: __ZNKSt3__16vectorIPN3glm3vecILi3EfLNS1_9qualifierE0EEENS_9allocatorIS5_EEE8capacityB7v160006Ev, symObjAddr: 0x2650, symBinAddr: 0x10000E590, symSize: 0x40 }
  - { offsetInCU: 0x12869, offset: 0x326C6, size: 0x8, addend: 0x0, symName: __ZNSt3__116allocator_traitsINS_9allocatorIPN3glm3vecILi3EfLNS2_9qualifierE0EEEEEE8max_sizeB7v160006IS7_vEEmRKS7_, symObjAddr: 0x26E8, symBinAddr: 0x10000E5D0, symSize: 0x24 }
  - { offsetInCU: 0x12896, offset: 0x326F3, size: 0x8, addend: 0x0, symName: __ZNKSt3__16vectorIPN3glm3vecILi3EfLNS1_9qualifierE0EEENS_9allocatorIS5_EEE7__allocB7v160006Ev, symObjAddr: 0x270C, symBinAddr: 0x10000E5F4, symSize: 0x28 }
  - { offsetInCU: 0x128BB, offset: 0x32718, size: 0x8, addend: 0x0, symName: __ZNKSt3__19allocatorIPN3glm3vecILi3EfLNS1_9qualifierE0EEEE8max_sizeB7v160006Ev, symObjAddr: 0x27D0, symBinAddr: 0x10000E61C, symSize: 0x14 }
  - { offsetInCU: 0x128E0, offset: 0x3273D, size: 0x8, addend: 0x0, symName: __ZNKSt3__117__compressed_pairIPPN3glm3vecILi3EfLNS1_9qualifierE0EEENS_9allocatorIS5_EEE6secondB7v160006Ev, symObjAddr: 0x27E4, symBinAddr: 0x10000E630, symSize: 0x24 }
  - { offsetInCU: 0x12905, offset: 0x32762, size: 0x8, addend: 0x0, symName: __ZNKSt3__122__compressed_pair_elemINS_9allocatorIPN3glm3vecILi3EfLNS2_9qualifierE0EEEEELi1ELb1EE5__getB7v160006Ev, symObjAddr: 0x2808, symBinAddr: 0x10000E654, symSize: 0x14 }
  - { offsetInCU: 0x1292A, offset: 0x32787, size: 0x8, addend: 0x0, symName: __ZNKSt3__16vectorIPN3glm3vecILi3EfLNS1_9qualifierE0EEENS_9allocatorIS5_EEE9__end_capB7v160006Ev, symObjAddr: 0x2908, symBinAddr: 0x10000E668, symSize: 0x28 }
  - { offsetInCU: 0x1294F, offset: 0x327AC, size: 0x8, addend: 0x0, symName: __ZNKSt3__117__compressed_pairIPPN3glm3vecILi3EfLNS1_9qualifierE0EEENS_9allocatorIS5_EEE5firstB7v160006Ev, symObjAddr: 0x2930, symBinAddr: 0x10000E690, symSize: 0x24 }
  - { offsetInCU: 0x12974, offset: 0x327D1, size: 0x8, addend: 0x0, symName: __ZNKSt3__122__compressed_pair_elemIPPN3glm3vecILi3EfLNS1_9qualifierE0EEELi0ELb0EE5__getB7v160006Ev, symObjAddr: 0x2954, symBinAddr: 0x10000E6B4, symSize: 0x14 }
  - { offsetInCU: 0x12999, offset: 0x327F6, size: 0x8, addend: 0x0, symName: __ZNSt3__114__split_bufferIPN3glm3vecILi3EfLNS1_9qualifierE0EEERNS_9allocatorIS5_EEEC2EmmS8_, symObjAddr: 0x29BC, symBinAddr: 0x10000E6C8, symSize: 0xD4 }
  - { offsetInCU: 0x12A0B, offset: 0x32868, size: 0x8, addend: 0x0, symName: __ZNSt3__117__compressed_pairIPPN3glm3vecILi3EfLNS1_9qualifierE0EEERNS_9allocatorIS5_EEEC1B7v160006IDnS9_EEOT_OT0_, symObjAddr: 0x2A90, symBinAddr: 0x10000E79C, symSize: 0x3C }
  - { offsetInCU: 0x12A62, offset: 0x328BF, size: 0x8, addend: 0x0, symName: __ZNSt3__114__split_bufferIPN3glm3vecILi3EfLNS1_9qualifierE0EEERNS_9allocatorIS5_EEE7__allocB7v160006Ev, symObjAddr: 0x2B0C, symBinAddr: 0x10000E818, symSize: 0x28 }
  - { offsetInCU: 0x12A87, offset: 0x328E4, size: 0x8, addend: 0x0, symName: __ZNSt3__114__split_bufferIPN3glm3vecILi3EfLNS1_9qualifierE0EEERNS_9allocatorIS5_EEE9__end_capB7v160006Ev, symObjAddr: 0x2B34, symBinAddr: 0x10000E840, symSize: 0x28 }
  - { offsetInCU: 0x12AAC, offset: 0x32909, size: 0x8, addend: 0x0, symName: __ZNSt3__117__compressed_pairIPPN3glm3vecILi3EfLNS1_9qualifierE0EEERNS_9allocatorIS5_EEEC2B7v160006IDnS9_EEOT_OT0_, symObjAddr: 0x2B5C, symBinAddr: 0x10000E868, symSize: 0x48 }
  - { offsetInCU: 0x12B03, offset: 0x32960, size: 0x8, addend: 0x0, symName: __ZNSt3__122__compressed_pair_elemIRNS_9allocatorIPN3glm3vecILi3EfLNS2_9qualifierE0EEEEELi1ELb0EEC2B7v160006IS8_vEEOT_, symObjAddr: 0x2BA4, symBinAddr: 0x10000E8B0, symSize: 0x20 }
  - { offsetInCU: 0x12B44, offset: 0x329A1, size: 0x8, addend: 0x0, symName: __ZNSt3__19allocatorIPN3glm3vecILi3EfLNS1_9qualifierE0EEEE8allocateB7v160006Em, symObjAddr: 0x2BC4, symBinAddr: 0x10000E8D0, symSize: 0x58 }
  - { offsetInCU: 0x12B77, offset: 0x329D4, size: 0x8, addend: 0x0, symName: __ZNSt3__117__compressed_pairIPPN3glm3vecILi3EfLNS1_9qualifierE0EEERNS_9allocatorIS5_EEE6secondB7v160006Ev, symObjAddr: 0x2D20, symBinAddr: 0x10000E928, symSize: 0x28 }
  - { offsetInCU: 0x12B9C, offset: 0x329F9, size: 0x8, addend: 0x0, symName: __ZNSt3__122__compressed_pair_elemIRNS_9allocatorIPN3glm3vecILi3EfLNS2_9qualifierE0EEEEELi1ELb0EE5__getB7v160006Ev, symObjAddr: 0x2D48, symBinAddr: 0x10000E950, symSize: 0x18 }
  - { offsetInCU: 0x12BC1, offset: 0x32A1E, size: 0x8, addend: 0x0, symName: __ZNSt3__117__compressed_pairIPPN3glm3vecILi3EfLNS1_9qualifierE0EEERNS_9allocatorIS5_EEE5firstB7v160006Ev, symObjAddr: 0x2D60, symBinAddr: 0x10000E968, symSize: 0x24 }
  - { offsetInCU: 0x12BE6, offset: 0x32A43, size: 0x8, addend: 0x0, symName: __ZNKSt3__16vectorIPN3glm3vecILi3EfLNS1_9qualifierE0EEENS_9allocatorIS5_EEE17__annotate_deleteB7v160006Ev, symObjAddr: 0x2D84, symBinAddr: 0x10000E98C, symSize: 0xB8 }
  - { offsetInCU: 0x12C0B, offset: 0x32A68, size: 0x8, addend: 0x0, symName: __ZNSt3__116reverse_iteratorIPPN3glm3vecILi3EfLNS1_9qualifierE0EEEEC1B7v160006ES6_, symObjAddr: 0x2EB4, symBinAddr: 0x10000EABC, symSize: 0x34 }
  - { offsetInCU: 0x12C42, offset: 0x32A9F, size: 0x8, addend: 0x0, symName: __ZNKSt3__116reverse_iteratorIPPN3glm3vecILi3EfLNS1_9qualifierE0EEEE4baseB7v160006Ev, symObjAddr: 0x2EE8, symBinAddr: 0x10000EAF0, symSize: 0x18 }
  - { offsetInCU: 0x12C67, offset: 0x32AC4, size: 0x8, addend: 0x0, symName: __ZNKSt3__16vectorIPN3glm3vecILi3EfLNS1_9qualifierE0EEENS_9allocatorIS5_EEE14__annotate_newB7v160006Em, symObjAddr: 0x2F3C, symBinAddr: 0x10000EB44, symSize: 0xAC }
  - { offsetInCU: 0x12C9B, offset: 0x32AF8, size: 0x8, addend: 0x0, symName: __ZNKSt3__16vectorIPN3glm3vecILi3EfLNS1_9qualifierE0EEENS_9allocatorIS5_EEE31__annotate_contiguous_containerB7v160006EPKvSA_SA_SA_, symObjAddr: 0x2FF8, symBinAddr: 0x10000EC00, symSize: 0x20 }
  - { offsetInCU: 0x12CEC, offset: 0x32B49, size: 0x8, addend: 0x0, symName: __ZNKSt3__16vectorIPN3glm3vecILi3EfLNS1_9qualifierE0EEENS_9allocatorIS5_EEE4dataB7v160006Ev, symObjAddr: 0x3018, symBinAddr: 0x10000EC20, symSize: 0x28 }
  - { offsetInCU: 0x12D35, offset: 0x32B92, size: 0x8, addend: 0x0, symName: __ZNKSt3__111__move_loopINS_17_ClassicAlgPolicyEEclB7v160006INS_16reverse_iteratorIPPN3glm3vecILi3EfLNS5_9qualifierE0EEEEESB_SB_EENS_4pairIT_T1_EESD_T0_SE_, symObjAddr: 0x3330, symBinAddr: 0x10000EF38, symSize: 0xA0 }
  - { offsetInCU: 0x12D9F, offset: 0x32BFC, size: 0x8, addend: 0x0, symName: __ZNSt3__18_IterOpsINS_17_ClassicAlgPolicyEE11__iter_moveB7v160006IRNS_16reverse_iteratorIPPN3glm3vecILi3EfLNS5_9qualifierE0EEEEEEENS_9enable_ifIXsr12is_referenceIDTdeclsr3stdE7declvalIRT_EEEEE5valueEDTclsr3stdE4movedeclsr3stdE7declvalISF_EEEEE4typeEOSE_, symObjAddr: 0x3564, symBinAddr: 0x10000F16C, symSize: 0x28 }
  - { offsetInCU: 0x12DCA, offset: 0x32C27, size: 0x8, addend: 0x0, symName: __ZNKSt3__116reverse_iteratorIPPN3glm3vecILi3EfLNS1_9qualifierE0EEEEdeB7v160006Ev, symObjAddr: 0x358C, symBinAddr: 0x10000F194, symSize: 0x28 }
  - { offsetInCU: 0x12DFD, offset: 0x32C5A, size: 0x8, addend: 0x0, symName: __ZNSt3__116reverse_iteratorIPPN3glm3vecILi3EfLNS1_9qualifierE0EEEEppB7v160006Ev, symObjAddr: 0x35B4, symBinAddr: 0x10000F1BC, symSize: 0x20 }
  - { offsetInCU: 0x12E22, offset: 0x32C7F, size: 0x8, addend: 0x0, symName: __ZNSt3__18_IterOpsINS_17_ClassicAlgPolicyEE25__validate_iter_referenceB7v160006IRNS_16reverse_iteratorIPPN3glm3vecILi3EfLNS5_9qualifierE0EEEEEEEvv, symObjAddr: 0x35D4, symBinAddr: 0x10000F1DC, symSize: 0x4 }
  - { offsetInCU: 0x12E40, offset: 0x32C9D, size: 0x8, addend: 0x0, symName: __ZNSt3__118__unwrap_iter_implINS_16reverse_iteratorIPPN3glm3vecILi3EfLNS2_9qualifierE0EEEEELb0EE8__unwrapB7v160006ES8_, symObjAddr: 0x35D8, symBinAddr: 0x10000F1E0, symSize: 0x24 }
  - { offsetInCU: 0x12E69, offset: 0x32CC6, size: 0x8, addend: 0x0, symName: __ZNSt3__14pairINS_16reverse_iteratorIPPN3glm3vecILi3EfLNS2_9qualifierE0EEEEES8_EC1B7v160006IS8_S8_LPv0EEEOT_OT0_, symObjAddr: 0x35FC, symBinAddr: 0x10000F204, symSize: 0x3C }
  - { offsetInCU: 0x12EC6, offset: 0x32D23, size: 0x8, addend: 0x0, symName: __ZNSt3__14pairINS_16reverse_iteratorIPPN3glm3vecILi3EfLNS2_9qualifierE0EEEEES8_EC2B7v160006IS8_S8_LPv0EEEOT_OT0_, symObjAddr: 0x3638, symBinAddr: 0x10000F240, symSize: 0x34 }
  - { offsetInCU: 0x12F23, offset: 0x32D80, size: 0x8, addend: 0x0, symName: __ZNSt3__118__unwrap_iter_implINS_16reverse_iteratorIPPN3glm3vecILi3EfLNS2_9qualifierE0EEEEELb0EE8__rewrapB7v160006ES8_S8_, symObjAddr: 0x366C, symBinAddr: 0x10000F274, symSize: 0x2C }
  - { offsetInCU: 0x12F51, offset: 0x32DAE, size: 0x8, addend: 0x0, symName: __ZNSt3__116reverse_iteratorIPPN3glm3vecILi3EfLNS1_9qualifierE0EEEEC2B7v160006ES6_, symObjAddr: 0x3698, symBinAddr: 0x10000F2A0, symSize: 0x28 }
  - { offsetInCU: 0x12F88, offset: 0x32DE5, size: 0x8, addend: 0x0, symName: __ZNSt3__114__split_bufferIPN3glm3vecILi3EfLNS1_9qualifierE0EEERNS_9allocatorIS5_EEED2Ev, symObjAddr: 0x36C0, symBinAddr: 0x10000F2C8, symSize: 0x8C }
  - { offsetInCU: 0x12FB3, offset: 0x32E10, size: 0x8, addend: 0x0, symName: __ZNSt3__114__split_bufferIPN3glm3vecILi3EfLNS1_9qualifierE0EEERNS_9allocatorIS5_EEE5clearB7v160006Ev, symObjAddr: 0x374C, symBinAddr: 0x10000F354, symSize: 0x28 }
  - { offsetInCU: 0x12FD8, offset: 0x32E35, size: 0x8, addend: 0x0, symName: __ZNSt3__116allocator_traitsINS_9allocatorIPN3glm3vecILi3EfLNS2_9qualifierE0EEEEEE10deallocateB7v160006ERS7_PS6_m, symObjAddr: 0x3774, symBinAddr: 0x10000F37C, symSize: 0x34 }
  - { offsetInCU: 0x13019, offset: 0x32E76, size: 0x8, addend: 0x0, symName: __ZNKSt3__114__split_bufferIPN3glm3vecILi3EfLNS1_9qualifierE0EEERNS_9allocatorIS5_EEE8capacityB7v160006Ev, symObjAddr: 0x37A8, symBinAddr: 0x10000F3B0, symSize: 0x40 }
  - { offsetInCU: 0x1303E, offset: 0x32E9B, size: 0x8, addend: 0x0, symName: __ZNSt3__114__split_bufferIPN3glm3vecILi3EfLNS1_9qualifierE0EEERNS_9allocatorIS5_EEE17__destruct_at_endB7v160006EPS5_, symObjAddr: 0x37E8, symBinAddr: 0x10000F3F0, symSize: 0x2C }
  - { offsetInCU: 0x13071, offset: 0x32ECE, size: 0x8, addend: 0x0, symName: __ZNSt3__114__split_bufferIPN3glm3vecILi3EfLNS1_9qualifierE0EEERNS_9allocatorIS5_EEE17__destruct_at_endB7v160006EPS5_NS_17integral_constantIbLb0EEE, symObjAddr: 0x3814, symBinAddr: 0x10000F41C, symSize: 0x80 }
  - { offsetInCU: 0x130B1, offset: 0x32F0E, size: 0x8, addend: 0x0, symName: __ZNSt3__116allocator_traitsINS_9allocatorIPN3glm3vecILi3EfLNS2_9qualifierE0EEEEEE7destroyB7v160006IS6_vEEvRS7_PT_, symObjAddr: 0x3894, symBinAddr: 0x10000F49C, symSize: 0x2C }
  - { offsetInCU: 0x130ED, offset: 0x32F4A, size: 0x8, addend: 0x0, symName: __ZNSt3__19allocatorIPN3glm3vecILi3EfLNS1_9qualifierE0EEEE7destroyB7v160006EPS5_, symObjAddr: 0x38C0, symBinAddr: 0x10000F4C8, symSize: 0x14 }
  - { offsetInCU: 0x13120, offset: 0x32F7D, size: 0x8, addend: 0x0, symName: __ZNSt3__19allocatorIPN3glm3vecILi3EfLNS1_9qualifierE0EEEE10deallocateB7v160006EPS5_m, symObjAddr: 0x38D4, symBinAddr: 0x10000F4DC, symSize: 0x40 }
  - { offsetInCU: 0x13161, offset: 0x32FBE, size: 0x8, addend: 0x0, symName: __ZNKSt3__114__split_bufferIPN3glm3vecILi3EfLNS1_9qualifierE0EEERNS_9allocatorIS5_EEE9__end_capB7v160006Ev, symObjAddr: 0x3A1C, symBinAddr: 0x10000F51C, symSize: 0x28 }
  - { offsetInCU: 0x13186, offset: 0x32FE3, size: 0x8, addend: 0x0, symName: __ZNKSt3__117__compressed_pairIPPN3glm3vecILi3EfLNS1_9qualifierE0EEERNS_9allocatorIS5_EEE5firstB7v160006Ev, symObjAddr: 0x3A44, symBinAddr: 0x10000F544, symSize: 0x24 }
  - { offsetInCU: 0x131AB, offset: 0x33008, size: 0x8, addend: 0x0, symName: __ZNSt3__16vectorI3TriNS_9allocatorIS1_EEE9__end_capB7v160006Ev, symObjAddr: 0x3A68, symBinAddr: 0x10000F568, symSize: 0x28 }
  - { offsetInCU: 0x131D6, offset: 0x33033, size: 0x8, addend: 0x0, symName: __ZNSt3__16vectorI3TriNS_9allocatorIS1_EEE22__construct_one_at_endB7v160006IJS1_EEEvDpOT_, symObjAddr: 0x3A90, symBinAddr: 0x10000F590, symSize: 0x90 }
  - { offsetInCU: 0x13224, offset: 0x33081, size: 0x8, addend: 0x0, symName: __ZNSt3__16vectorI3TriNS_9allocatorIS1_EEE21__push_back_slow_pathIS1_EEvOT_, symObjAddr: 0x3B20, symBinAddr: 0x10000F620, symSize: 0xD8 }
  - { offsetInCU: 0x13281, offset: 0x330DE, size: 0x8, addend: 0x0, symName: __ZNSt3__117__compressed_pairIP3TriNS_9allocatorIS1_EEE5firstB7v160006Ev, symObjAddr: 0x3BF8, symBinAddr: 0x10000F6F8, symSize: 0x24 }
  - { offsetInCU: 0x132A6, offset: 0x33103, size: 0x8, addend: 0x0, symName: __ZNSt3__122__compressed_pair_elemIP3TriLi0ELb0EE5__getB7v160006Ev, symObjAddr: 0x3C1C, symBinAddr: 0x10000F71C, symSize: 0x14 }
  - { offsetInCU: 0x132E4, offset: 0x33141, size: 0x8, addend: 0x0, symName: __ZNSt3__16vectorI3TriNS_9allocatorIS1_EEE21_ConstructTransactionC1B7v160006ERS4_m, symObjAddr: 0x3C30, symBinAddr: 0x10000F730, symSize: 0x3C }
  - { offsetInCU: 0x1332B, offset: 0x33188, size: 0x8, addend: 0x0, symName: __ZNSt3__116allocator_traitsINS_9allocatorI3TriEEE9constructB7v160006IS2_JS2_EvEEvRS3_PT_DpOT0_, symObjAddr: 0x3C6C, symBinAddr: 0x10000F76C, symSize: 0x34 }
  - { offsetInCU: 0x13381, offset: 0x331DE, size: 0x8, addend: 0x0, symName: __ZNSt3__16vectorI3TriNS_9allocatorIS1_EEE7__allocB7v160006Ev, symObjAddr: 0x3CA0, symBinAddr: 0x10000F7A0, symSize: 0x28 }
  - { offsetInCU: 0x133A6, offset: 0x33203, size: 0x8, addend: 0x0, symName: __ZNSt3__16vectorI3TriNS_9allocatorIS1_EEE21_ConstructTransactionD1B7v160006Ev, symObjAddr: 0x3CDC, symBinAddr: 0x10000F7DC, symSize: 0x2C }
  - { offsetInCU: 0x133CF, offset: 0x3322C, size: 0x8, addend: 0x0, symName: __ZNSt3__16vectorI3TriNS_9allocatorIS1_EEE21_ConstructTransactionC2B7v160006ERS4_m, symObjAddr: 0x3D08, symBinAddr: 0x10000F808, symSize: 0x4C }
  - { offsetInCU: 0x13416, offset: 0x33273, size: 0x8, addend: 0x0, symName: __ZNSt3__19allocatorI3TriE9constructB7v160006IS1_JS1_EEEvPT_DpOT0_, symObjAddr: 0x3D54, symBinAddr: 0x10000F854, symSize: 0x30 }
  - { offsetInCU: 0x1346B, offset: 0x332C8, size: 0x8, addend: 0x0, symName: __ZNSt3__117__compressed_pairIP3TriNS_9allocatorIS1_EEE6secondB7v160006Ev, symObjAddr: 0x3D84, symBinAddr: 0x10000F884, symSize: 0x24 }
  - { offsetInCU: 0x13490, offset: 0x332ED, size: 0x8, addend: 0x0, symName: __ZNSt3__122__compressed_pair_elemINS_9allocatorI3TriEELi1ELb1EE5__getB7v160006Ev, symObjAddr: 0x3DA8, symBinAddr: 0x10000F8A8, symSize: 0x14 }
  - { offsetInCU: 0x134B5, offset: 0x33312, size: 0x8, addend: 0x0, symName: __ZNSt3__16vectorI3TriNS_9allocatorIS1_EEE21_ConstructTransactionD2B7v160006Ev, symObjAddr: 0x3DBC, symBinAddr: 0x10000F8BC, symSize: 0x20 }
  - { offsetInCU: 0x134DE, offset: 0x3333B, size: 0x8, addend: 0x0, symName: __ZNKSt3__16vectorI3TriNS_9allocatorIS1_EEE11__recommendB7v160006Em, symObjAddr: 0x3DDC, symBinAddr: 0x10000F8DC, symSize: 0xB4 }
  - { offsetInCU: 0x13532, offset: 0x3338F, size: 0x8, addend: 0x0, symName: __ZNKSt3__16vectorI3TriNS_9allocatorIS1_EEE4sizeB7v160006Ev, symObjAddr: 0x3E90, symBinAddr: 0x10000F990, symSize: 0x28 }
  - { offsetInCU: 0x13557, offset: 0x333B4, size: 0x8, addend: 0x0, symName: __ZNSt3__114__split_bufferI3TriRNS_9allocatorIS1_EEEC1EmmS4_, symObjAddr: 0x3EB8, symBinAddr: 0x10000F9B8, symSize: 0x44 }
  - { offsetInCU: 0x135AC, offset: 0x33409, size: 0x8, addend: 0x0, symName: __ZNSt3__114__split_bufferI3TriRNS_9allocatorIS1_EEED1Ev, symObjAddr: 0x4014, symBinAddr: 0x10000FB14, symSize: 0x2C }
  - { offsetInCU: 0x135D7, offset: 0x33434, size: 0x8, addend: 0x0, symName: __ZNKSt3__16vectorI3TriNS_9allocatorIS1_EEE8max_sizeEv, symObjAddr: 0x4040, symBinAddr: 0x10000FB40, symSize: 0x60 }
  - { offsetInCU: 0x135FE, offset: 0x3345B, size: 0x8, addend: 0x0, symName: __ZNKSt3__16vectorI3TriNS_9allocatorIS1_EEE20__throw_length_errorB7v160006Ev, symObjAddr: 0x40A0, symBinAddr: 0x10000FBA0, symSize: 0x1C }
  - { offsetInCU: 0x13623, offset: 0x33480, size: 0x8, addend: 0x0, symName: __ZNKSt3__16vectorI3TriNS_9allocatorIS1_EEE8capacityB7v160006Ev, symObjAddr: 0x40BC, symBinAddr: 0x10000FBBC, symSize: 0x40 }
  - { offsetInCU: 0x13652, offset: 0x334AF, size: 0x8, addend: 0x0, symName: __ZNSt3__116allocator_traitsINS_9allocatorI3TriEEE8max_sizeB7v160006IS3_vEEmRKS3_, symObjAddr: 0x40FC, symBinAddr: 0x10000FBFC, symSize: 0x24 }
  - { offsetInCU: 0x1367F, offset: 0x334DC, size: 0x8, addend: 0x0, symName: __ZNKSt3__16vectorI3TriNS_9allocatorIS1_EEE7__allocB7v160006Ev, symObjAddr: 0x4120, symBinAddr: 0x10000FC20, symSize: 0x28 }
  - { offsetInCU: 0x136A4, offset: 0x33501, size: 0x8, addend: 0x0, symName: __ZNKSt3__19allocatorI3TriE8max_sizeB7v160006Ev, symObjAddr: 0x4148, symBinAddr: 0x10000FC48, symSize: 0x18 }
  - { offsetInCU: 0x136C9, offset: 0x33526, size: 0x8, addend: 0x0, symName: __ZNKSt3__117__compressed_pairIP3TriNS_9allocatorIS1_EEE6secondB7v160006Ev, symObjAddr: 0x4160, symBinAddr: 0x10000FC60, symSize: 0x24 }
  - { offsetInCU: 0x136EE, offset: 0x3354B, size: 0x8, addend: 0x0, symName: __ZNKSt3__122__compressed_pair_elemINS_9allocatorI3TriEELi1ELb1EE5__getB7v160006Ev, symObjAddr: 0x4184, symBinAddr: 0x10000FC84, symSize: 0x14 }
  - { offsetInCU: 0x13713, offset: 0x33570, size: 0x8, addend: 0x0, symName: __ZNKSt3__16vectorI3TriNS_9allocatorIS1_EEE9__end_capB7v160006Ev, symObjAddr: 0x4198, symBinAddr: 0x10000FC98, symSize: 0x28 }
  - { offsetInCU: 0x13738, offset: 0x33595, size: 0x8, addend: 0x0, symName: __ZNKSt3__117__compressed_pairIP3TriNS_9allocatorIS1_EEE5firstB7v160006Ev, symObjAddr: 0x41C0, symBinAddr: 0x10000FCC0, symSize: 0x24 }
  - { offsetInCU: 0x1375D, offset: 0x335BA, size: 0x8, addend: 0x0, symName: __ZNKSt3__122__compressed_pair_elemIP3TriLi0ELb0EE5__getB7v160006Ev, symObjAddr: 0x41E4, symBinAddr: 0x10000FCE4, symSize: 0x14 }
  - { offsetInCU: 0x13782, offset: 0x335DF, size: 0x8, addend: 0x0, symName: __ZNSt3__114__split_bufferI3TriRNS_9allocatorIS1_EEEC2EmmS4_, symObjAddr: 0x41F8, symBinAddr: 0x10000FCF8, symSize: 0xE0 }
  - { offsetInCU: 0x137F4, offset: 0x33651, size: 0x8, addend: 0x0, symName: __ZNSt3__117__compressed_pairIP3TriRNS_9allocatorIS1_EEEC1B7v160006IDnS5_EEOT_OT0_, symObjAddr: 0x42D8, symBinAddr: 0x10000FDD8, symSize: 0x3C }
  - { offsetInCU: 0x1384B, offset: 0x336A8, size: 0x8, addend: 0x0, symName: __ZNSt3__114__split_bufferI3TriRNS_9allocatorIS1_EEE7__allocB7v160006Ev, symObjAddr: 0x4354, symBinAddr: 0x10000FE54, symSize: 0x28 }
  - { offsetInCU: 0x13870, offset: 0x336CD, size: 0x8, addend: 0x0, symName: __ZNSt3__114__split_bufferI3TriRNS_9allocatorIS1_EEE9__end_capB7v160006Ev, symObjAddr: 0x437C, symBinAddr: 0x10000FE7C, symSize: 0x28 }
  - { offsetInCU: 0x13895, offset: 0x336F2, size: 0x8, addend: 0x0, symName: __ZNSt3__117__compressed_pairIP3TriRNS_9allocatorIS1_EEEC2B7v160006IDnS5_EEOT_OT0_, symObjAddr: 0x43A4, symBinAddr: 0x10000FEA4, symSize: 0x48 }
  - { offsetInCU: 0x138EC, offset: 0x33749, size: 0x8, addend: 0x0, symName: __ZNSt3__122__compressed_pair_elemIRNS_9allocatorI3TriEELi1ELb0EEC2B7v160006IS4_vEEOT_, symObjAddr: 0x43EC, symBinAddr: 0x10000FEEC, symSize: 0x20 }
  - { offsetInCU: 0x1392D, offset: 0x3378A, size: 0x8, addend: 0x0, symName: __ZNSt3__19allocatorI3TriE8allocateB7v160006Em, symObjAddr: 0x440C, symBinAddr: 0x10000FF0C, symSize: 0x5C }
  - { offsetInCU: 0x13960, offset: 0x337BD, size: 0x8, addend: 0x0, symName: __ZNSt3__117__compressed_pairIP3TriRNS_9allocatorIS1_EEE6secondB7v160006Ev, symObjAddr: 0x4468, symBinAddr: 0x10000FF68, symSize: 0x28 }
  - { offsetInCU: 0x13985, offset: 0x337E2, size: 0x8, addend: 0x0, symName: __ZNSt3__122__compressed_pair_elemIRNS_9allocatorI3TriEELi1ELb0EE5__getB7v160006Ev, symObjAddr: 0x4490, symBinAddr: 0x10000FF90, symSize: 0x18 }
  - { offsetInCU: 0x139AA, offset: 0x33807, size: 0x8, addend: 0x0, symName: __ZNSt3__117__compressed_pairIP3TriRNS_9allocatorIS1_EEE5firstB7v160006Ev, symObjAddr: 0x44A8, symBinAddr: 0x10000FFA8, symSize: 0x24 }
  - { offsetInCU: 0x139CF, offset: 0x3382C, size: 0x8, addend: 0x0, symName: __ZNKSt3__16vectorI3TriNS_9allocatorIS1_EEE17__annotate_deleteB7v160006Ev, symObjAddr: 0x44CC, symBinAddr: 0x10000FFCC, symSize: 0xD4 }
  - { offsetInCU: 0x139F4, offset: 0x33851, size: 0x8, addend: 0x0, symName: __ZNSt3__116reverse_iteratorIP3TriEC1B7v160006ES2_, symObjAddr: 0x4618, symBinAddr: 0x100010118, symSize: 0x34 }
  - { offsetInCU: 0x13A2B, offset: 0x33888, size: 0x8, addend: 0x0, symName: __ZNKSt3__116reverse_iteratorIP3TriE4baseB7v160006Ev, symObjAddr: 0x464C, symBinAddr: 0x10001014C, symSize: 0x18 }
  - { offsetInCU: 0x13A50, offset: 0x338AD, size: 0x8, addend: 0x0, symName: __ZNKSt3__16vectorI3TriNS_9allocatorIS1_EEE14__annotate_newB7v160006Em, symObjAddr: 0x46A0, symBinAddr: 0x1000101A0, symSize: 0xC8 }
  - { offsetInCU: 0x13A84, offset: 0x338E1, size: 0x8, addend: 0x0, symName: __ZNKSt3__16vectorI3TriNS_9allocatorIS1_EEE31__annotate_contiguous_containerB7v160006EPKvS6_S6_S6_, symObjAddr: 0x4778, symBinAddr: 0x100010278, symSize: 0x20 }
  - { offsetInCU: 0x13AD5, offset: 0x33932, size: 0x8, addend: 0x0, symName: __ZNKSt3__16vectorI3TriNS_9allocatorIS1_EEE4dataB7v160006Ev, symObjAddr: 0x4798, symBinAddr: 0x100010298, symSize: 0x28 }
  - { offsetInCU: 0x13B14, offset: 0x33971, size: 0x8, addend: 0x0, symName: __ZNKSt3__111__move_loopINS_17_ClassicAlgPolicyEEclB7v160006INS_16reverse_iteratorIP3TriEES7_S7_EENS_4pairIT_T1_EES9_T0_SA_, symObjAddr: 0x4AB0, symBinAddr: 0x1000105B0, symSize: 0xA8 }
  - { offsetInCU: 0x13B7E, offset: 0x339DB, size: 0x8, addend: 0x0, symName: __ZNSt3__18_IterOpsINS_17_ClassicAlgPolicyEE11__iter_moveB7v160006IRNS_16reverse_iteratorIP3TriEEEENS_9enable_ifIXsr12is_referenceIDTdeclsr3stdE7declvalIRT_EEEEE5valueEDTclsr3stdE4movedeclsr3stdE7declvalISB_EEEEE4typeEOSA_, symObjAddr: 0x4CEC, symBinAddr: 0x1000107EC, symSize: 0x28 }
  - { offsetInCU: 0x13BA9, offset: 0x33A06, size: 0x8, addend: 0x0, symName: __ZNKSt3__116reverse_iteratorIP3TriEdeB7v160006Ev, symObjAddr: 0x4D14, symBinAddr: 0x100010814, symSize: 0x28 }
  - { offsetInCU: 0x13BDC, offset: 0x33A39, size: 0x8, addend: 0x0, symName: __ZNSt3__116reverse_iteratorIP3TriEppB7v160006Ev, symObjAddr: 0x4D3C, symBinAddr: 0x10001083C, symSize: 0x20 }
  - { offsetInCU: 0x13C01, offset: 0x33A5E, size: 0x8, addend: 0x0, symName: __ZNSt3__18_IterOpsINS_17_ClassicAlgPolicyEE25__validate_iter_referenceB7v160006IRNS_16reverse_iteratorIP3TriEEEEvv, symObjAddr: 0x4D5C, symBinAddr: 0x10001085C, symSize: 0x4 }
  - { offsetInCU: 0x13C1F, offset: 0x33A7C, size: 0x8, addend: 0x0, symName: __ZNSt3__118__unwrap_iter_implINS_16reverse_iteratorIP3TriEELb0EE8__unwrapB7v160006ES4_, symObjAddr: 0x4D60, symBinAddr: 0x100010860, symSize: 0x24 }
  - { offsetInCU: 0x13C48, offset: 0x33AA5, size: 0x8, addend: 0x0, symName: __ZNSt3__14pairINS_16reverse_iteratorIP3TriEES4_EC1B7v160006IS4_S4_LPv0EEEOT_OT0_, symObjAddr: 0x4D84, symBinAddr: 0x100010884, symSize: 0x3C }
  - { offsetInCU: 0x13CA5, offset: 0x33B02, size: 0x8, addend: 0x0, symName: __ZNSt3__14pairINS_16reverse_iteratorIP3TriEES4_EC2B7v160006IS4_S4_LPv0EEEOT_OT0_, symObjAddr: 0x4DC0, symBinAddr: 0x1000108C0, symSize: 0x34 }
  - { offsetInCU: 0x13D02, offset: 0x33B5F, size: 0x8, addend: 0x0, symName: __ZNSt3__118__unwrap_iter_implINS_16reverse_iteratorIP3TriEELb0EE8__rewrapB7v160006ES4_S4_, symObjAddr: 0x4DF4, symBinAddr: 0x1000108F4, symSize: 0x2C }
  - { offsetInCU: 0x13D30, offset: 0x33B8D, size: 0x8, addend: 0x0, symName: __ZNSt3__116reverse_iteratorIP3TriEC2B7v160006ES2_, symObjAddr: 0x4E20, symBinAddr: 0x100010920, symSize: 0x28 }
  - { offsetInCU: 0x13D67, offset: 0x33BC4, size: 0x8, addend: 0x0, symName: __ZNSt3__114__split_bufferI3TriRNS_9allocatorIS1_EEED2Ev, symObjAddr: 0x4E48, symBinAddr: 0x100010948, symSize: 0x8C }
  - { offsetInCU: 0x13D92, offset: 0x33BEF, size: 0x8, addend: 0x0, symName: __ZNSt3__114__split_bufferI3TriRNS_9allocatorIS1_EEE5clearB7v160006Ev, symObjAddr: 0x4ED4, symBinAddr: 0x1000109D4, symSize: 0x28 }
  - { offsetInCU: 0x13DB7, offset: 0x33C14, size: 0x8, addend: 0x0, symName: __ZNSt3__116allocator_traitsINS_9allocatorI3TriEEE10deallocateB7v160006ERS3_PS2_m, symObjAddr: 0x4EFC, symBinAddr: 0x1000109FC, symSize: 0x34 }
  - { offsetInCU: 0x13DF8, offset: 0x33C55, size: 0x8, addend: 0x0, symName: __ZNKSt3__114__split_bufferI3TriRNS_9allocatorIS1_EEE8capacityB7v160006Ev, symObjAddr: 0x4F30, symBinAddr: 0x100010A30, symSize: 0x40 }
  - { offsetInCU: 0x13E1D, offset: 0x33C7A, size: 0x8, addend: 0x0, symName: __ZNSt3__114__split_bufferI3TriRNS_9allocatorIS1_EEE17__destruct_at_endB7v160006EPS1_, symObjAddr: 0x4F70, symBinAddr: 0x100010A70, symSize: 0x2C }
  - { offsetInCU: 0x13E50, offset: 0x33CAD, size: 0x8, addend: 0x0, symName: __ZNSt3__114__split_bufferI3TriRNS_9allocatorIS1_EEE17__destruct_at_endB7v160006EPS1_NS_17integral_constantIbLb0EEE, symObjAddr: 0x4F9C, symBinAddr: 0x100010A9C, symSize: 0x80 }
  - { offsetInCU: 0x13E90, offset: 0x33CED, size: 0x8, addend: 0x0, symName: __ZNSt3__116allocator_traitsINS_9allocatorI3TriEEE7destroyB7v160006IS2_vEEvRS3_PT_, symObjAddr: 0x501C, symBinAddr: 0x100010B1C, symSize: 0x2C }
  - { offsetInCU: 0x13ECC, offset: 0x33D29, size: 0x8, addend: 0x0, symName: __ZNSt3__19allocatorI3TriE7destroyB7v160006EPS1_, symObjAddr: 0x5048, symBinAddr: 0x100010B48, symSize: 0x14 }
  - { offsetInCU: 0x13EFF, offset: 0x33D5C, size: 0x8, addend: 0x0, symName: __ZNSt3__19allocatorI3TriE10deallocateB7v160006EPS1_m, symObjAddr: 0x505C, symBinAddr: 0x100010B5C, symSize: 0x44 }
  - { offsetInCU: 0x13F40, offset: 0x33D9D, size: 0x8, addend: 0x0, symName: __ZNKSt3__114__split_bufferI3TriRNS_9allocatorIS1_EEE9__end_capB7v160006Ev, symObjAddr: 0x50A0, symBinAddr: 0x100010BA0, symSize: 0x28 }
  - { offsetInCU: 0x13F65, offset: 0x33DC2, size: 0x8, addend: 0x0, symName: __ZNKSt3__117__compressed_pairIP3TriRNS_9allocatorIS1_EEE5firstB7v160006Ev, symObjAddr: 0x50C8, symBinAddr: 0x100010BC8, symSize: 0x24 }
  - { offsetInCU: 0x13F8A, offset: 0x33DE7, size: 0x8, addend: 0x0, symName: __ZNSt3__16vectorIPN3glm3vecILi3EfLNS1_9qualifierE0EEENS_9allocatorIS5_EEE7__clearB7v160006Ev, symObjAddr: 0x50EC, symBinAddr: 0x100010BEC, symSize: 0x28 }
  - { offsetInCU: 0x13FAF, offset: 0x33E0C, size: 0x8, addend: 0x0, symName: __ZNKSt3__16vectorIPN3glm3vecILi3EfLNS1_9qualifierE0EEENS_9allocatorIS5_EEE17__annotate_shrinkB7v160006Em, symObjAddr: 0x5114, symBinAddr: 0x100010C14, symSize: 0xB4 }
  - { offsetInCU: 0x13FE3, offset: 0x33E40, size: 0x8, addend: 0x0, symName: __ZNSt3__16vectorIPN3glm3vecILi3EfLNS1_9qualifierE0EEENS_9allocatorIS5_EEE22__base_destruct_at_endB7v160006EPS5_, symObjAddr: 0x51C8, symBinAddr: 0x100010CC8, symSize: 0x8C }
  - { offsetInCU: 0x14026, offset: 0x33E83, size: 0x8, addend: 0x0, symName: __ZNSt3__16vectorIPN3glm3vecILi3EfLNS1_9qualifierE0EEENS_9allocatorIS5_EEED2B7v160006Ev, symObjAddr: 0x5254, symBinAddr: 0x100010D54, symSize: 0x44 }
  - { offsetInCU: 0x1404F, offset: 0x33EAC, size: 0x8, addend: 0x0, symName: __ZNSt3__16vectorIPN3glm3vecILi3EfLNS1_9qualifierE0EEENS_9allocatorIS5_EEE16__destroy_vectorC1ERS8_, symObjAddr: 0x5298, symBinAddr: 0x100010D98, symSize: 0x34 }
  - { offsetInCU: 0x14087, offset: 0x33EE4, size: 0x8, addend: 0x0, symName: __ZNSt3__16vectorIPN3glm3vecILi3EfLNS1_9qualifierE0EEENS_9allocatorIS5_EEE16__destroy_vectorclB7v160006Ev, symObjAddr: 0x52CC, symBinAddr: 0x100010DCC, symSize: 0x9C }
  - { offsetInCU: 0x140AC, offset: 0x33F09, size: 0x8, addend: 0x0, symName: __ZNSt3__16vectorIPN3glm3vecILi3EfLNS1_9qualifierE0EEENS_9allocatorIS5_EEE16__destroy_vectorC2ERS8_, symObjAddr: 0x5368, symBinAddr: 0x100010E68, symSize: 0x20 }
  - { offsetInCU: 0x140E4, offset: 0x33F41, size: 0x8, addend: 0x0, symName: __ZNKSt3__111__wrap_iterIP3TriE4baseB7v160006Ev, symObjAddr: 0x53E0, symBinAddr: 0x100010EE0, symSize: 0x18 }
  - { offsetInCU: 0x14109, offset: 0x33F66, size: 0x8, addend: 0x0, symName: __ZN3TriC2EPN3glm3vecILi3EfLNS0_9qualifierE0EEES4_S4_, symObjAddr: 0x53F8, symBinAddr: 0x100010EF8, symSize: 0x38 }
  - { offsetInCU: 0x1415C, offset: 0x33FB9, size: 0x8, addend: 0x0, symName: __ZNSt3__112basic_stringIcNS_11char_traitsIcEENS_9allocatorIcEEEC2B7v160006Ev, symObjAddr: 0x5430, symBinAddr: 0x100010F30, symSize: 0x54 }
  - { offsetInCU: 0x14185, offset: 0x33FE2, size: 0x8, addend: 0x0, symName: __ZNSt3__112basic_stringIcNS_11char_traitsIcEENS_9allocatorIcEEE14__default_initB7v160006Ev, symObjAddr: 0x54D0, symBinAddr: 0x100010F84, symSize: 0x40 }
  - { offsetInCU: 0x141AA, offset: 0x34007, size: 0x8, addend: 0x0, symName: __ZNSt3__117__compressed_pairINS_12basic_stringIcNS_11char_traitsIcEENS_9allocatorIcEEE5__repES5_E5firstB7v160006Ev, symObjAddr: 0x55CC, symBinAddr: 0x100010FC4, symSize: 0x24 }
  - { offsetInCU: 0x141CF, offset: 0x3402C, size: 0x8, addend: 0x0, symName: __ZNSt3__122__compressed_pair_elemINS_12basic_stringIcNS_11char_traitsIcEENS_9allocatorIcEEE5__repELi0ELb0EE5__getB7v160006Ev, symObjAddr: 0x55F0, symBinAddr: 0x100010FE8, symSize: 0x14 }
  - { offsetInCU: 0x141F4, offset: 0x34051, size: 0x8, addend: 0x0, symName: __ZNSt3__112basic_stringIcNS_11char_traitsIcEENS_9allocatorIcEEE13__move_assignB7v160006ERS5_NS_17integral_constantIbLb1EEE, symObjAddr: 0x5604, symBinAddr: 0x100010FFC, symSize: 0xC8 }
  - { offsetInCU: 0x14235, offset: 0x34092, size: 0x8, addend: 0x0, symName: __ZNKSt3__112basic_stringIcNS_11char_traitsIcEENS_9allocatorIcEEE9__is_longB7v160006Ev, symObjAddr: 0x56CC, symBinAddr: 0x1000110C4, symSize: 0x38 }
  - { offsetInCU: 0x1425A, offset: 0x340B7, size: 0x8, addend: 0x0, symName: __ZNSt3__116allocator_traitsINS_9allocatorIcEEE10deallocateB7v160006ERS2_Pcm, symObjAddr: 0x5704, symBinAddr: 0x1000110FC, symSize: 0x34 }
  - { offsetInCU: 0x1429B, offset: 0x340F8, size: 0x8, addend: 0x0, symName: __ZNSt3__112basic_stringIcNS_11char_traitsIcEENS_9allocatorIcEEE7__allocB7v160006Ev, symObjAddr: 0x5738, symBinAddr: 0x100011130, symSize: 0x24 }
  - { offsetInCU: 0x142C0, offset: 0x3411D, size: 0x8, addend: 0x0, symName: __ZNSt3__112basic_stringIcNS_11char_traitsIcEENS_9allocatorIcEEE18__get_long_pointerB7v160006Ev, symObjAddr: 0x575C, symBinAddr: 0x100011154, symSize: 0x28 }
  - { offsetInCU: 0x142E5, offset: 0x34142, size: 0x8, addend: 0x0, symName: __ZNKSt3__112basic_stringIcNS_11char_traitsIcEENS_9allocatorIcEEE14__get_long_capB7v160006Ev, symObjAddr: 0x5784, symBinAddr: 0x10001117C, symSize: 0x30 }
  - { offsetInCU: 0x1430A, offset: 0x34167, size: 0x8, addend: 0x0, symName: __ZNSt3__112basic_stringIcNS_11char_traitsIcEENS_9allocatorIcEEE19__move_assign_allocB7v160006ERS5_, symObjAddr: 0x57B4, symBinAddr: 0x1000111AC, symSize: 0x2C }
  - { offsetInCU: 0x1433E, offset: 0x3419B, size: 0x8, addend: 0x0, symName: __ZNSt3__112basic_stringIcNS_11char_traitsIcEENS_9allocatorIcEEE16__set_short_sizeB7v160006Em, symObjAddr: 0x57E0, symBinAddr: 0x1000111D8, symSize: 0x78 }
  - { offsetInCU: 0x14372, offset: 0x341CF, size: 0x8, addend: 0x0, symName: __ZNSt3__111char_traitsIcE6assignERcRKc, symObjAddr: 0x5858, symBinAddr: 0x100011250, symSize: 0x24 }
  - { offsetInCU: 0x143A3, offset: 0x34200, size: 0x8, addend: 0x0, symName: __ZNSt3__112basic_stringIcNS_11char_traitsIcEENS_9allocatorIcEEE19__get_short_pointerB7v160006Ev, symObjAddr: 0x587C, symBinAddr: 0x100011274, symSize: 0x28 }
  - { offsetInCU: 0x143C8, offset: 0x34225, size: 0x8, addend: 0x0, symName: __ZNKSt3__117__compressed_pairINS_12basic_stringIcNS_11char_traitsIcEENS_9allocatorIcEEE5__repES5_E5firstB7v160006Ev, symObjAddr: 0x58A4, symBinAddr: 0x10001129C, symSize: 0x24 }
  - { offsetInCU: 0x143ED, offset: 0x3424A, size: 0x8, addend: 0x0, symName: __ZNKSt3__122__compressed_pair_elemINS_12basic_stringIcNS_11char_traitsIcEENS_9allocatorIcEEE5__repELi0ELb0EE5__getB7v160006Ev, symObjAddr: 0x58C8, symBinAddr: 0x1000112C0, symSize: 0x14 }
  - { offsetInCU: 0x14412, offset: 0x3426F, size: 0x8, addend: 0x0, symName: __ZNSt3__19allocatorIcE10deallocateB7v160006EPcm, symObjAddr: 0x58DC, symBinAddr: 0x1000112D4, symSize: 0x40 }
  - { offsetInCU: 0x14453, offset: 0x342B0, size: 0x8, addend: 0x0, symName: __ZNSt3__117__compressed_pairINS_12basic_stringIcNS_11char_traitsIcEENS_9allocatorIcEEE5__repES5_E6secondB7v160006Ev, symObjAddr: 0x591C, symBinAddr: 0x100011314, symSize: 0x24 }
  - { offsetInCU: 0x14478, offset: 0x342D5, size: 0x8, addend: 0x0, symName: __ZNSt3__122__compressed_pair_elemINS_9allocatorIcEELi1ELb1EE5__getB7v160006Ev, symObjAddr: 0x5940, symBinAddr: 0x100011338, symSize: 0x14 }
  - { offsetInCU: 0x1449D, offset: 0x342FA, size: 0x8, addend: 0x0, symName: __ZNSt3__112basic_stringIcNS_11char_traitsIcEENS_9allocatorIcEEE19__move_assign_allocB7v160006ERS5_NS_17integral_constantIbLb1EEE, symObjAddr: 0x5954, symBinAddr: 0x10001134C, symSize: 0x38 }
  - { offsetInCU: 0x144DC, offset: 0x34339, size: 0x8, addend: 0x0, symName: __ZNSt3__114pointer_traitsIPcE10pointer_toB7v160006ERc, symObjAddr: 0x598C, symBinAddr: 0x100011384, symSize: 0x14 }
  - { offsetInCU: 0x144FF, offset: 0x3435C, size: 0x8, addend: 0x0, symName: __ZNKSt3__112basic_stringIcNS_11char_traitsIcEENS_9allocatorIcEEE4dataB7v160006Ev, symObjAddr: 0x59A0, symBinAddr: 0x100011398, symSize: 0x28 }
  - { offsetInCU: 0x14524, offset: 0x34381, size: 0x8, addend: 0x0, symName: __ZNKSt3__112basic_stringIcNS_11char_traitsIcEENS_9allocatorIcEEE13__get_pointerB7v160006Ev, symObjAddr: 0x59DC, symBinAddr: 0x1000113D4, symSize: 0x54 }
  - { offsetInCU: 0x14549, offset: 0x343A6, size: 0x8, addend: 0x0, symName: __ZNKSt3__112basic_stringIcNS_11char_traitsIcEENS_9allocatorIcEEE18__get_long_pointerB7v160006Ev, symObjAddr: 0x5A30, symBinAddr: 0x100011428, symSize: 0x28 }
  - { offsetInCU: 0x1456E, offset: 0x343CB, size: 0x8, addend: 0x0, symName: __ZNKSt3__112basic_stringIcNS_11char_traitsIcEENS_9allocatorIcEEE19__get_short_pointerB7v160006Ev, symObjAddr: 0x5A58, symBinAddr: 0x100011450, symSize: 0x28 }
  - { offsetInCU: 0x14593, offset: 0x343F0, size: 0x8, addend: 0x0, symName: __ZNSt3__114pointer_traitsIPKcE10pointer_toB7v160006ERS1_, symObjAddr: 0x5A80, symBinAddr: 0x100011478, symSize: 0x14 }
  - { offsetInCU: 0x145B6, offset: 0x34413, size: 0x8, addend: 0x0, symName: __ZNSt3__16vectorI3TriNS_9allocatorIS1_EEED2B7v160006Ev, symObjAddr: 0x6D6C, symBinAddr: 0x10001148C, symSize: 0x44 }
  - { offsetInCU: 0x145DF, offset: 0x3443C, size: 0x8, addend: 0x0, symName: __ZNSt3__16vectorI3TriNS_9allocatorIS1_EEE16__destroy_vectorC1ERS4_, symObjAddr: 0x6DB0, symBinAddr: 0x1000114D0, symSize: 0x34 }
  - { offsetInCU: 0x14617, offset: 0x34474, size: 0x8, addend: 0x0, symName: __ZNSt3__16vectorI3TriNS_9allocatorIS1_EEE16__destroy_vectorclB7v160006Ev, symObjAddr: 0x6DE4, symBinAddr: 0x100011504, symSize: 0x9C }
  - { offsetInCU: 0x1463C, offset: 0x34499, size: 0x8, addend: 0x0, symName: __ZNSt3__16vectorI3TriNS_9allocatorIS1_EEE16__destroy_vectorC2ERS4_, symObjAddr: 0x6E80, symBinAddr: 0x1000115A0, symSize: 0x20 }
  - { offsetInCU: 0x14674, offset: 0x344D1, size: 0x8, addend: 0x0, symName: __ZNSt3__16vectorI3TriNS_9allocatorIS1_EEE7__clearB7v160006Ev, symObjAddr: 0x6EB0, symBinAddr: 0x1000115D0, symSize: 0x28 }
  - { offsetInCU: 0x14699, offset: 0x344F6, size: 0x8, addend: 0x0, symName: __ZNSt3__16vectorI3TriNS_9allocatorIS1_EEE22__base_destruct_at_endB7v160006EPS1_, symObjAddr: 0x6ED8, symBinAddr: 0x1000115F8, symSize: 0x8C }
  - { offsetInCU: 0x146DC, offset: 0x34539, size: 0x8, addend: 0x0, symName: __ZNSt3__16vectorI6VertexNS_9allocatorIS1_EEE19__copy_assign_allocB7v160006ERKS4_, symObjAddr: 0x6F64, symBinAddr: 0x100011684, symSize: 0x2C }
  - { offsetInCU: 0x14710, offset: 0x3456D, size: 0x8, addend: 0x0, symName: __ZNSt3__16vectorI6VertexNS_9allocatorIS1_EEE6assignIPS1_Li0EEEvT_S7_, symObjAddr: 0x6F90, symBinAddr: 0x1000116B0, symSize: 0x17C }
  - { offsetInCU: 0x147AE, offset: 0x3460B, size: 0x8, addend: 0x0, symName: __ZNSt3__16vectorI6VertexNS_9allocatorIS1_EEE19__copy_assign_allocB7v160006ERKS4_NS_17integral_constantIbLb0EEE, symObjAddr: 0x710C, symBinAddr: 0x10001182C, symSize: 0x14 }
  - { offsetInCU: 0x147E9, offset: 0x34646, size: 0x8, addend: 0x0, symName: __ZNSt3__16vectorI6VertexNS_9allocatorIS1_EEE17__destruct_at_endB7v160006EPS1_, symObjAddr: 0x7268, symBinAddr: 0x1000118FC, symSize: 0x60 }
  - { offsetInCU: 0x1482C, offset: 0x34689, size: 0x8, addend: 0x0, symName: __ZNKSt3__16vectorI6VertexNS_9allocatorIS1_EEE11__recommendB7v160006Em, symObjAddr: 0x7408, symBinAddr: 0x10001195C, symSize: 0xB4 }
  - { offsetInCU: 0x148A4, offset: 0x34701, size: 0x8, addend: 0x0, symName: __ZNKSt3__114__copy_trivialclB7v160006I6VertexS2_Li0EEENS_4pairIPT_PT0_EES5_S5_S7_, symObjAddr: 0x76D4, symBinAddr: 0x100011C18, symSize: 0x48 }
  - { offsetInCU: 0x14911, offset: 0x3476E, size: 0x8, addend: 0x0, symName: __ZNSt3__14pairIP6VertexS2_EC1B7v160006IRS2_S2_LPv0EEEOT_OT0_, symObjAddr: 0x78A4, symBinAddr: 0x100011DE8, symSize: 0x3C }
  - { offsetInCU: 0x1496E, offset: 0x347CB, size: 0x8, addend: 0x0, symName: __ZNSt3__14pairIP6VertexS2_EC2B7v160006IRS2_S2_LPv0EEEOT_OT0_, symObjAddr: 0x78E0, symBinAddr: 0x100011E24, symSize: 0x34 }
  - { offsetInCU: 0x149CB, offset: 0x34828, size: 0x8, addend: 0x0, symName: __ZNSt3__118__unwrap_iter_implIP6VertexLb1EE8__unwrapB7v160006ES2_, symObjAddr: 0x7914, symBinAddr: 0x100011E58, symSize: 0x24 }
  - { offsetInCU: 0x149ED, offset: 0x3484A, size: 0x8, addend: 0x0, symName: __ZNSt3__14pairIP6VertexS2_EC1B7v160006IS2_S2_LPv0EEEOT_OT0_, symObjAddr: 0x7938, symBinAddr: 0x100011E7C, symSize: 0x3C }
  - { offsetInCU: 0x14A4A, offset: 0x348A7, size: 0x8, addend: 0x0, symName: __ZNSt3__14pairIP6VertexS2_EC2B7v160006IS2_S2_LPv0EEEOT_OT0_, symObjAddr: 0x7974, symBinAddr: 0x100011EB8, symSize: 0x34 }
  - { offsetInCU: 0x14AA7, offset: 0x34904, size: 0x8, addend: 0x0, symName: __ZNSt3__118__unwrap_iter_implIP6VertexLb1EE8__rewrapB7v160006ES2_S2_, symObjAddr: 0x79A8, symBinAddr: 0x100011EEC, symSize: 0x58 }
  - { offsetInCU: 0x14AF0, offset: 0x3494D, size: 0x8, addend: 0x0, symName: __ZNSt3__16vectorI6VertexNS_9allocatorIS1_EEE27__invalidate_iterators_pastB7v160006EPS1_, symObjAddr: 0x8050, symBinAddr: 0x100011F44, symSize: 0x14 }
  - { offsetInCU: 0x14B26, offset: 0x34983, size: 0x8, addend: 0x0, symName: __ZNSt3__16vectorIjNS_9allocatorIjEEE19__copy_assign_allocB7v160006ERKS3_, symObjAddr: 0x846C, symBinAddr: 0x100011F58, symSize: 0x2C }
  - { offsetInCU: 0x14B5A, offset: 0x349B7, size: 0x8, addend: 0x0, symName: __ZNSt3__16vectorIjNS_9allocatorIjEEE6assignIPjLi0EEEvT_S6_, symObjAddr: 0x8498, symBinAddr: 0x100011F84, symSize: 0x17C }
  - { offsetInCU: 0x14BF8, offset: 0x34A55, size: 0x8, addend: 0x0, symName: __ZNSt3__16vectorIjNS_9allocatorIjEEE19__copy_assign_allocB7v160006ERKS3_NS_17integral_constantIbLb0EEE, symObjAddr: 0x8614, symBinAddr: 0x100012100, symSize: 0x14 }
  - { offsetInCU: 0x14C33, offset: 0x34A90, size: 0x8, addend: 0x0, symName: __ZNSt3__16vectorIjNS_9allocatorIjEEE17__destruct_at_endB7v160006EPj, symObjAddr: 0x8770, symBinAddr: 0x1000121D0, symSize: 0x60 }
  - { offsetInCU: 0x14C76, offset: 0x34AD3, size: 0x8, addend: 0x0, symName: __ZNKSt3__16vectorIjNS_9allocatorIjEEE11__recommendB7v160006Em, symObjAddr: 0x8908, symBinAddr: 0x100012230, symSize: 0xB4 }
  - { offsetInCU: 0x14CE4, offset: 0x34B41, size: 0x8, addend: 0x0, symName: __ZNKSt3__114__copy_trivialclB7v160006IjjLi0EEENS_4pairIPT_PT0_EES4_S4_S6_, symObjAddr: 0x8BB8, symBinAddr: 0x1000124D0, symSize: 0x48 }
  - { offsetInCU: 0x14D51, offset: 0x34BAE, size: 0x8, addend: 0x0, symName: __ZNSt3__14pairIPjS1_EC1B7v160006IRS1_S1_LPv0EEEOT_OT0_, symObjAddr: 0x8D80, symBinAddr: 0x100012698, symSize: 0x3C }
  - { offsetInCU: 0x14DAE, offset: 0x34C0B, size: 0x8, addend: 0x0, symName: __ZNSt3__14pairIPjS1_EC2B7v160006IRS1_S1_LPv0EEEOT_OT0_, symObjAddr: 0x8DBC, symBinAddr: 0x1000126D4, symSize: 0x34 }
  - { offsetInCU: 0x14E0B, offset: 0x34C68, size: 0x8, addend: 0x0, symName: __ZNSt3__118__unwrap_iter_implIPjLb1EE8__unwrapB7v160006ES1_, symObjAddr: 0x8DF0, symBinAddr: 0x100012708, symSize: 0x24 }
  - { offsetInCU: 0x14E2D, offset: 0x34C8A, size: 0x8, addend: 0x0, symName: __ZNSt3__14pairIPjS1_EC1B7v160006IS1_S1_LPv0EEEOT_OT0_, symObjAddr: 0x8E14, symBinAddr: 0x10001272C, symSize: 0x3C }
  - { offsetInCU: 0x14E8A, offset: 0x34CE7, size: 0x8, addend: 0x0, symName: __ZNSt3__14pairIPjS1_EC2B7v160006IS1_S1_LPv0EEEOT_OT0_, symObjAddr: 0x8E50, symBinAddr: 0x100012768, symSize: 0x34 }
  - { offsetInCU: 0x14EE7, offset: 0x34D44, size: 0x8, addend: 0x0, symName: __ZNSt3__118__unwrap_iter_implIPjLb1EE8__rewrapB7v160006ES1_S1_, symObjAddr: 0x8E84, symBinAddr: 0x10001279C, symSize: 0x50 }
  - { offsetInCU: 0x14F30, offset: 0x34D8D, size: 0x8, addend: 0x0, symName: __ZNSt3__16vectorIjNS_9allocatorIjEEE27__invalidate_iterators_pastB7v160006EPj, symObjAddr: 0x9510, symBinAddr: 0x1000127EC, symSize: 0x14 }
  - { offsetInCU: 0x14F66, offset: 0x34DC3, size: 0x8, addend: 0x0, symName: __ZNSt3__16vectorI7TextureNS_9allocatorIS1_EEE19__copy_assign_allocB7v160006ERKS4_, symObjAddr: 0x98E4, symBinAddr: 0x100012800, symSize: 0x2C }
  - { offsetInCU: 0x14F9A, offset: 0x34DF7, size: 0x8, addend: 0x0, symName: __ZNSt3__16vectorI7TextureNS_9allocatorIS1_EEE6assignIPS1_Li0EEEvT_S7_, symObjAddr: 0x9910, symBinAddr: 0x10001282C, symSize: 0x17C }
  - { offsetInCU: 0x15038, offset: 0x34E95, size: 0x8, addend: 0x0, symName: __ZNSt3__16vectorI7TextureNS_9allocatorIS1_EEE19__copy_assign_allocB7v160006ERKS4_NS_17integral_constantIbLb0EEE, symObjAddr: 0x9A8C, symBinAddr: 0x1000129A8, symSize: 0x14 }
  - { offsetInCU: 0x15073, offset: 0x34ED0, size: 0x8, addend: 0x0, symName: __ZNSt3__16vectorI7TextureNS_9allocatorIS1_EEE18__construct_at_endIPS1_Li0EEEvT_S7_m, symObjAddr: 0x9B5C, symBinAddr: 0x100012A78, symSize: 0x8C }
  - { offsetInCU: 0x150E5, offset: 0x34F42, size: 0x8, addend: 0x0, symName: __ZNSt3__16vectorI7TextureNS_9allocatorIS1_EEE17__destruct_at_endB7v160006EPS1_, symObjAddr: 0x9BE8, symBinAddr: 0x100012B04, symSize: 0x60 }
  - { offsetInCU: 0x15128, offset: 0x34F85, size: 0x8, addend: 0x0, symName: __ZNSt3__16vectorI7TextureNS_9allocatorIS1_EEE11__vallocateB7v160006Em, symObjAddr: 0x9CD4, symBinAddr: 0x100012B64, symSize: 0xB4 }
  - { offsetInCU: 0x1516B, offset: 0x34FC8, size: 0x8, addend: 0x0, symName: __ZNKSt3__16vectorI7TextureNS_9allocatorIS1_EEE11__recommendB7v160006Em, symObjAddr: 0x9D88, symBinAddr: 0x100012C18, symSize: 0xB4 }
  - { offsetInCU: 0x151E3, offset: 0x35040, size: 0x8, addend: 0x0, symName: __ZNKSt3__111__copy_loopINS_17_ClassicAlgPolicyEEclB7v160006IP7TextureS5_S5_EENS_4pairIT_T1_EES7_T0_S8_, symObjAddr: 0xA040, symBinAddr: 0x100012EC0, symSize: 0x88 }
  - { offsetInCU: 0x1524D, offset: 0x350AA, size: 0x8, addend: 0x0, symName: __ZN7TextureaSERKS_, symObjAddr: 0xA18C, symBinAddr: 0x10001300C, symSize: 0x5C }
  - { offsetInCU: 0x1527C, offset: 0x350D9, size: 0x8, addend: 0x0, symName: __ZNSt3__118__unwrap_iter_implIP7TextureLb1EE8__unwrapB7v160006ES2_, symObjAddr: 0xA1E8, symBinAddr: 0x100013068, symSize: 0x24 }
  - { offsetInCU: 0x152A4, offset: 0x35101, size: 0x8, addend: 0x0, symName: __ZNSt3__14pairIP7TextureS2_EC1B7v160006IS2_S2_LPv0EEEOT_OT0_, symObjAddr: 0xA20C, symBinAddr: 0x10001308C, symSize: 0x3C }
  - { offsetInCU: 0x15301, offset: 0x3515E, size: 0x8, addend: 0x0, symName: __ZNSt3__14pairIP7TextureS2_EC2B7v160006IS2_S2_LPv0EEEOT_OT0_, symObjAddr: 0xA248, symBinAddr: 0x1000130C8, symSize: 0x34 }
  - { offsetInCU: 0x1535E, offset: 0x351BB, size: 0x8, addend: 0x0, symName: __ZNSt3__118__unwrap_iter_implIP7TextureLb1EE8__rewrapB7v160006ES2_S2_, symObjAddr: 0xA27C, symBinAddr: 0x1000130FC, symSize: 0x58 }
  - { offsetInCU: 0x153A7, offset: 0x35204, size: 0x8, addend: 0x0, symName: __ZNSt3__16vectorI7TextureNS_9allocatorIS1_EEE21_ConstructTransactionC1B7v160006ERS4_m, symObjAddr: 0xA2D4, symBinAddr: 0x100013154, symSize: 0x3C }
  - { offsetInCU: 0x153EE, offset: 0x3524B, size: 0x8, addend: 0x0, symName: __ZNSt3__16vectorI7TextureNS_9allocatorIS1_EEE21_ConstructTransactionD1B7v160006Ev, symObjAddr: 0xA404, symBinAddr: 0x100013284, symSize: 0x2C }
  - { offsetInCU: 0x15417, offset: 0x35274, size: 0x8, addend: 0x0, symName: __ZNSt3__16vectorI7TextureNS_9allocatorIS1_EEE21_ConstructTransactionC2B7v160006ERS4_m, symObjAddr: 0xA430, symBinAddr: 0x1000132B0, symSize: 0x4C }
  - { offsetInCU: 0x1545E, offset: 0x352BB, size: 0x8, addend: 0x0, symName: __ZNSt3__129_AllocatorDestroyRangeReverseINS_9allocatorI7TextureEEPS2_EC1B7v160006ERS3_RS4_S7_, symObjAddr: 0xA4C8, symBinAddr: 0x100013348, symSize: 0x44 }
  - { offsetInCU: 0x154B4, offset: 0x35311, size: 0x8, addend: 0x0, symName: __ZNSt3__116allocator_traitsINS_9allocatorI7TextureEEE9constructB7v160006IS2_JRS2_EvEEvRS3_PT_DpOT0_, symObjAddr: 0xA50C, symBinAddr: 0x10001338C, symSize: 0x34 }
  - { offsetInCU: 0x1550A, offset: 0x35367, size: 0x8, addend: 0x0, symName: __ZNSt3__128__exception_guard_exceptionsINS_29_AllocatorDestroyRangeReverseINS_9allocatorI7TextureEEPS3_EEE10__completeB7v160006Ev, symObjAddr: 0xA540, symBinAddr: 0x1000133C0, symSize: 0x1C }
  - { offsetInCU: 0x1552F, offset: 0x3538C, size: 0x8, addend: 0x0, symName: __ZNSt3__128__exception_guard_exceptionsINS_29_AllocatorDestroyRangeReverseINS_9allocatorI7TextureEEPS3_EEED1B7v160006Ev, symObjAddr: 0xA55C, symBinAddr: 0x1000133DC, symSize: 0x2C }
  - { offsetInCU: 0x15558, offset: 0x353B5, size: 0x8, addend: 0x0, symName: __ZNSt3__128__exception_guard_exceptionsINS_29_AllocatorDestroyRangeReverseINS_9allocatorI7TextureEEPS3_EEEC1B7v160006ES6_, symObjAddr: 0xA588, symBinAddr: 0x100013408, symSize: 0x34 }
  - { offsetInCU: 0x15590, offset: 0x353ED, size: 0x8, addend: 0x0, symName: __ZNSt3__128__exception_guard_exceptionsINS_29_AllocatorDestroyRangeReverseINS_9allocatorI7TextureEEPS3_EEEC2B7v160006ES6_, symObjAddr: 0xA5BC, symBinAddr: 0x10001343C, symSize: 0x30 }
  - { offsetInCU: 0x155C8, offset: 0x35425, size: 0x8, addend: 0x0, symName: __ZNSt3__129_AllocatorDestroyRangeReverseINS_9allocatorI7TextureEEPS2_EC2B7v160006ERS3_RS4_S7_, symObjAddr: 0xA5EC, symBinAddr: 0x10001346C, symSize: 0x38 }
  - { offsetInCU: 0x1561E, offset: 0x3547B, size: 0x8, addend: 0x0, symName: __ZNSt3__19allocatorI7TextureE9constructB7v160006IS1_JRS1_EEEvPT_DpOT0_, symObjAddr: 0xA624, symBinAddr: 0x1000134A4, symSize: 0x30 }
  - { offsetInCU: 0x15673, offset: 0x354D0, size: 0x8, addend: 0x0, symName: __ZN7TextureC1ERKS_, symObjAddr: 0xA654, symBinAddr: 0x1000134D4, symSize: 0x34 }
  - { offsetInCU: 0x156A6, offset: 0x35503, size: 0x8, addend: 0x0, symName: __ZN7TextureC2ERKS_, symObjAddr: 0xA688, symBinAddr: 0x100013508, symSize: 0x88 }
  - { offsetInCU: 0x156D9, offset: 0x35536, size: 0x8, addend: 0x0, symName: __ZNSt3__128__exception_guard_exceptionsINS_29_AllocatorDestroyRangeReverseINS_9allocatorI7TextureEEPS3_EEED2B7v160006Ev, symObjAddr: 0xA710, symBinAddr: 0x100013590, symSize: 0x50 }
  - { offsetInCU: 0x15702, offset: 0x3555F, size: 0x8, addend: 0x0, symName: __ZNKSt3__129_AllocatorDestroyRangeReverseINS_9allocatorI7TextureEEPS2_EclB7v160006Ev, symObjAddr: 0xA760, symBinAddr: 0x1000135E0, symSize: 0x68 }
  - { offsetInCU: 0x15727, offset: 0x35584, size: 0x8, addend: 0x0, symName: __ZNSt3__116reverse_iteratorIP7TextureEC1B7v160006ES2_, symObjAddr: 0xA838, symBinAddr: 0x1000136B8, symSize: 0x34 }
  - { offsetInCU: 0x1575E, offset: 0x355BB, size: 0x8, addend: 0x0, symName: __ZNSt3__116reverse_iteratorIP7TextureEppB7v160006Ev, symObjAddr: 0xA8D8, symBinAddr: 0x100013758, symSize: 0x20 }
  - { offsetInCU: 0x15783, offset: 0x355E0, size: 0x8, addend: 0x0, symName: __ZNKSt3__116reverse_iteratorIP7TextureE4baseB7v160006Ev, symObjAddr: 0xA8F8, symBinAddr: 0x100013778, symSize: 0x18 }
  - { offsetInCU: 0x157AD, offset: 0x3560A, size: 0x8, addend: 0x0, symName: __ZNSt3__119__to_address_helperINS_16reverse_iteratorIP7TextureEEvE6__callB7v160006ERKS4_, symObjAddr: 0xA910, symBinAddr: 0x100013790, symSize: 0x38 }
  - { offsetInCU: 0x157CF, offset: 0x3562C, size: 0x8, addend: 0x0, symName: __ZNKSt3__116reverse_iteratorIP7TextureEptB7v160006Ev, symObjAddr: 0xA948, symBinAddr: 0x1000137C8, symSize: 0x24 }
  - { offsetInCU: 0x157F4, offset: 0x35651, size: 0x8, addend: 0x0, symName: __ZNKSt3__116reverse_iteratorIP7TextureEdeB7v160006Ev, symObjAddr: 0xA96C, symBinAddr: 0x1000137EC, symSize: 0x28 }
  - { offsetInCU: 0x15827, offset: 0x35684, size: 0x8, addend: 0x0, symName: __ZNSt3__116reverse_iteratorIP7TextureEC2B7v160006ES2_, symObjAddr: 0xA994, symBinAddr: 0x100013814, symSize: 0x28 }
  - { offsetInCU: 0x1585E, offset: 0x356BB, size: 0x8, addend: 0x0, symName: __ZNSt3__16vectorI7TextureNS_9allocatorIS1_EEE21_ConstructTransactionD2B7v160006Ev, symObjAddr: 0xA9BC, symBinAddr: 0x10001383C, symSize: 0x20 }
  - { offsetInCU: 0x15887, offset: 0x356E4, size: 0x8, addend: 0x0, symName: __ZNSt3__16vectorI7TextureNS_9allocatorIS1_EEE27__invalidate_iterators_pastB7v160006EPS1_, symObjAddr: 0xA9DC, symBinAddr: 0x10001385C, symSize: 0x14 }
  - { offsetInCU: 0x158BD, offset: 0x3571A, size: 0x8, addend: 0x0, symName: __ZNKSt3__16vectorI7TextureNS_9allocatorIS1_EEE8max_sizeEv, symObjAddr: 0xAB74, symBinAddr: 0x100013870, symSize: 0x60 }
  - { offsetInCU: 0x158E4, offset: 0x35741, size: 0x8, addend: 0x0, symName: __ZNKSt3__16vectorI7TextureNS_9allocatorIS1_EEE20__throw_length_errorB7v160006Ev, symObjAddr: 0xABD4, symBinAddr: 0x1000138D0, symSize: 0x1C }
  - { offsetInCU: 0x15909, offset: 0x35766, size: 0x8, addend: 0x0, symName: __ZNKSt3__16vectorI7TextureNS_9allocatorIS1_EEE14__annotate_newB7v160006Em, symObjAddr: 0xAC30, symBinAddr: 0x10001392C, symSize: 0xC8 }
  - { offsetInCU: 0x15947, offset: 0x357A4, size: 0x8, addend: 0x0, symName: __ZNSt3__116allocator_traitsINS_9allocatorI7TextureEEE8max_sizeB7v160006IS3_vEEmRKS3_, symObjAddr: 0xACF8, symBinAddr: 0x1000139F4, symSize: 0x24 }
  - { offsetInCU: 0x15974, offset: 0x357D1, size: 0x8, addend: 0x0, symName: __ZNKSt3__16vectorI7TextureNS_9allocatorIS1_EEE7__allocB7v160006Ev, symObjAddr: 0xAD1C, symBinAddr: 0x100013A18, symSize: 0x28 }
  - { offsetInCU: 0x15999, offset: 0x357F6, size: 0x8, addend: 0x0, symName: __ZNKSt3__19allocatorI7TextureE8max_sizeB7v160006Ev, symObjAddr: 0xAD44, symBinAddr: 0x100013A40, symSize: 0x20 }
  - { offsetInCU: 0x159BE, offset: 0x3581B, size: 0x8, addend: 0x0, symName: __ZNKSt3__117__compressed_pairIP7TextureNS_9allocatorIS1_EEE6secondB7v160006Ev, symObjAddr: 0xAD64, symBinAddr: 0x100013A60, symSize: 0x24 }
  - { offsetInCU: 0x159E3, offset: 0x35840, size: 0x8, addend: 0x0, symName: __ZNKSt3__122__compressed_pair_elemINS_9allocatorI7TextureEELi1ELb1EE5__getB7v160006Ev, symObjAddr: 0xAD88, symBinAddr: 0x100013A84, symSize: 0x14 }
  - { offsetInCU: 0x15A08, offset: 0x35865, size: 0x8, addend: 0x0, symName: __ZNSt3__19allocatorI7TextureE8allocateB7v160006Em, symObjAddr: 0xAD9C, symBinAddr: 0x100013A98, symSize: 0x5C }
  - { offsetInCU: 0x15A3B, offset: 0x35898, size: 0x8, addend: 0x0, symName: __ZNSt3__16vectorI7TextureNS_9allocatorIS1_EEE6assignIPKS1_Li0EEEvT_S8_, symObjAddr: 0xADF8, symBinAddr: 0x100013AF4, symSize: 0x17C }
  - { offsetInCU: 0x15AD9, offset: 0x35936, size: 0x8, addend: 0x0, symName: __ZNKSt16initializer_listI7TextureE5beginB7v160006Ev, symObjAddr: 0xAF74, symBinAddr: 0x100013C70, symSize: 0x18 }
  - { offsetInCU: 0x15AFE, offset: 0x3595B, size: 0x8, addend: 0x0, symName: __ZNKSt16initializer_listI7TextureE3endB7v160006Ev, symObjAddr: 0xAF8C, symBinAddr: 0x100013C88, symSize: 0x28 }
  - { offsetInCU: 0x15B23, offset: 0x35980, size: 0x8, addend: 0x0, symName: __ZNSt3__16vectorI7TextureNS_9allocatorIS1_EEE18__construct_at_endIPKS1_Li0EEEvT_S8_m, symObjAddr: 0xB070, symBinAddr: 0x100013D6C, symSize: 0x8C }
  - { offsetInCU: 0x15BAF, offset: 0x35A0C, size: 0x8, addend: 0x0, symName: __ZNKSt3__111__copy_loopINS_17_ClassicAlgPolicyEEclB7v160006IPK7TextureS6_PS4_EENS_4pairIT_T1_EES9_T0_SA_, symObjAddr: 0xB2F0, symBinAddr: 0x100013FEC, symSize: 0x88 }
  - { offsetInCU: 0x15C39, offset: 0x35A96, size: 0x8, addend: 0x0, symName: __ZNSt3__14pairIPK7TextureS3_EC1B7v160006IS3_S3_LPv0EEEOT_OT0_, symObjAddr: 0xB438, symBinAddr: 0x100014134, symSize: 0x3C }
  - { offsetInCU: 0x15C96, offset: 0x35AF3, size: 0x8, addend: 0x0, symName: __ZNSt3__14pairIPK7TextureS3_EC2B7v160006IS3_S3_LPv0EEEOT_OT0_, symObjAddr: 0xB474, symBinAddr: 0x100014170, symSize: 0x34 }
  - { offsetInCU: 0x15CF3, offset: 0x35B50, size: 0x8, addend: 0x0, symName: __ZNSt3__118__unwrap_iter_implIPK7TextureLb1EE8__unwrapB7v160006ES3_, symObjAddr: 0xB4A8, symBinAddr: 0x1000141A4, symSize: 0x24 }
  - { offsetInCU: 0x15D15, offset: 0x35B72, size: 0x8, addend: 0x0, symName: __ZNSt3__14pairIPK7TexturePS1_EC1B7v160006IS3_S4_LPv0EEEOT_OT0_, symObjAddr: 0xB4E0, symBinAddr: 0x1000141DC, symSize: 0x3C }
  - { offsetInCU: 0x15D72, offset: 0x35BCF, size: 0x8, addend: 0x0, symName: __ZNSt3__14pairIPK7TexturePS1_EC2B7v160006IS3_S4_LPv0EEEOT_OT0_, symObjAddr: 0xB51C, symBinAddr: 0x100014218, symSize: 0x34 }
  - { offsetInCU: 0x15DCF, offset: 0x35C2C, size: 0x8, addend: 0x0, symName: __ZNSt3__118__unwrap_iter_implIPK7TextureLb1EE8__rewrapB7v160006ES3_S3_, symObjAddr: 0xB58C, symBinAddr: 0x100014288, symSize: 0x58 }
  - { offsetInCU: 0x15DFF, offset: 0x35C5C, size: 0x8, addend: 0x0, symName: __ZNSt3__116allocator_traitsINS_9allocatorI7TextureEEE9constructB7v160006IS2_JRKS2_EvEEvRS3_PT_DpOT0_, symObjAddr: 0xB6D8, symBinAddr: 0x1000143D4, symSize: 0x34 }
  - { offsetInCU: 0x15E55, offset: 0x35CB2, size: 0x8, addend: 0x0, symName: __ZNSt3__19allocatorI7TextureE9constructB7v160006IS1_JRKS1_EEEvPT_DpOT0_, symObjAddr: 0xB70C, symBinAddr: 0x100014408, symSize: 0x30 }
  - { offsetInCU: 0x15EAA, offset: 0x35D07, size: 0x8, addend: 0x0, symName: __ZNSt3__16vectorINS_12basic_stringIcNS_11char_traitsIcEENS_9allocatorIcEEEENS4_IS6_EEE11__make_iterB7v160006EPS6_, symObjAddr: 0xB73C, symBinAddr: 0x100014438, symSize: 0x34 }
  - { offsetInCU: 0x15EDE, offset: 0x35D3B, size: 0x8, addend: 0x0, symName: __ZNSt3__111__wrap_iterIPNS_12basic_stringIcNS_11char_traitsIcEENS_9allocatorIcEEEEEC1B7v160006EPKvS7_, symObjAddr: 0xB770, symBinAddr: 0x10001446C, symSize: 0x3C }
  - { offsetInCU: 0x15F23, offset: 0x35D80, size: 0x8, addend: 0x0, symName: __ZNSt3__111__wrap_iterIPNS_12basic_stringIcNS_11char_traitsIcEENS_9allocatorIcEEEEEC2B7v160006EPKvS7_, symObjAddr: 0xB7AC, symBinAddr: 0x1000144A8, symSize: 0x24 }
  - { offsetInCU: 0x15F86, offset: 0x35DE3, size: 0x8, addend: 0x0, symName: __ZNKSt3__113basic_ostreamIcNS_11char_traitsIcEEE6sentrycvbB7v160006Ev, symObjAddr: 0xB9F0, symBinAddr: 0x1000146B8, symSize: 0x1C }
  - { offsetInCU: 0x15FAB, offset: 0x35E08, size: 0x8, addend: 0x0, symName: __ZNSt3__119ostreambuf_iteratorIcNS_11char_traitsIcEEEC1B7v160006ERNS_13basic_ostreamIcS2_EE, symObjAddr: 0xBC4C, symBinAddr: 0x100014914, symSize: 0x34 }
  - { offsetInCU: 0x15FE2, offset: 0x35E3F, size: 0x8, addend: 0x0, symName: __ZNKSt3__18ios_base5flagsB7v160006Ev, symObjAddr: 0xBC80, symBinAddr: 0x100014948, symSize: 0x18 }
  - { offsetInCU: 0x16009, offset: 0x35E66, size: 0x8, addend: 0x0, symName: __ZNKSt3__19basic_iosIcNS_11char_traitsIcEEE4fillB7v160006Ev, symObjAddr: 0xBC98, symBinAddr: 0x100014960, symSize: 0x64 }
  - { offsetInCU: 0x16030, offset: 0x35E8D, size: 0x8, addend: 0x0, symName: __ZNKSt3__119ostreambuf_iteratorIcNS_11char_traitsIcEEE6failedB7v160006Ev, symObjAddr: 0xBCFC, symBinAddr: 0x1000149C4, symSize: 0x24 }
  - { offsetInCU: 0x16055, offset: 0x35EB2, size: 0x8, addend: 0x0, symName: __ZNSt3__19basic_iosIcNS_11char_traitsIcEEE8setstateB7v160006Ej, symObjAddr: 0xBD20, symBinAddr: 0x1000149E8, symSize: 0x2C }
  - { offsetInCU: 0x16089, offset: 0x35EE6, size: 0x8, addend: 0x0, symName: __ZNKSt3__18ios_base5widthB7v160006Ev, symObjAddr: 0xBD4C, symBinAddr: 0x100014A14, symSize: 0x18 }
  - { offsetInCU: 0x160B0, offset: 0x35F0D, size: 0x8, addend: 0x0, symName: __ZNSt3__115basic_streambufIcNS_11char_traitsIcEEE5sputnB7v160006EPKcl, symObjAddr: 0xBD64, symBinAddr: 0x100014A2C, symSize: 0x3C }
  - { offsetInCU: 0x160F1, offset: 0x35F4E, size: 0x8, addend: 0x0, symName: __ZNSt3__112basic_stringIcNS_11char_traitsIcEENS_9allocatorIcEEEC1B7v160006Emc, symObjAddr: 0xBDA0, symBinAddr: 0x100014A68, symSize: 0x3C }
  - { offsetInCU: 0x16138, offset: 0x35F95, size: 0x8, addend: 0x0, symName: __ZNSt3__112basic_stringIcNS_11char_traitsIcEENS_9allocatorIcEEE4dataB7v160006Ev, symObjAddr: 0xBDDC, symBinAddr: 0x100014AA4, symSize: 0x28 }
  - { offsetInCU: 0x1615D, offset: 0x35FBA, size: 0x8, addend: 0x0, symName: __ZNSt3__18ios_base5widthB7v160006El, symObjAddr: 0xBE04, symBinAddr: 0x100014ACC, symSize: 0x2C }
  - { offsetInCU: 0x161A2, offset: 0x35FFF, size: 0x8, addend: 0x0, symName: __ZNSt3__112basic_stringIcNS_11char_traitsIcEENS_9allocatorIcEEEC2B7v160006Emc, symObjAddr: 0xBE30, symBinAddr: 0x100014AF8, symSize: 0x54 }
  - { offsetInCU: 0x161E9, offset: 0x36046, size: 0x8, addend: 0x0, symName: __ZNSt3__112basic_stringIcNS_11char_traitsIcEENS_9allocatorIcEEE13__get_pointerB7v160006Ev, symObjAddr: 0xBE98, symBinAddr: 0x100014B60, symSize: 0x54 }
  - { offsetInCU: 0x1620E, offset: 0x3606B, size: 0x8, addend: 0x0, symName: __ZNSt3__119ostreambuf_iteratorIcNS_11char_traitsIcEEEC2B7v160006ERNS_13basic_ostreamIcS2_EE, symObjAddr: 0xBEEC, symBinAddr: 0x100014BB4, symSize: 0x54 }
  - { offsetInCU: 0x16245, offset: 0x360A2, size: 0x8, addend: 0x0, symName: __ZNKSt3__19basic_iosIcNS_11char_traitsIcEEE5rdbufB7v160006Ev, symObjAddr: 0xBF40, symBinAddr: 0x100014C08, symSize: 0x24 }
  - { offsetInCU: 0x1626C, offset: 0x360C9, size: 0x8, addend: 0x0, symName: __ZNKSt3__18ios_base5rdbufB7v160006Ev, symObjAddr: 0xBF64, symBinAddr: 0x100014C2C, symSize: 0x18 }
  - { offsetInCU: 0x16291, offset: 0x360EE, size: 0x8, addend: 0x0, symName: __ZNSt3__111char_traitsIcE11eq_int_typeEii, symObjAddr: 0xBF7C, symBinAddr: 0x100014C44, symSize: 0x28 }
  - { offsetInCU: 0x162C2, offset: 0x3611F, size: 0x8, addend: 0x0, symName: __ZNSt3__111char_traitsIcE3eofEv, symObjAddr: 0xBFA4, symBinAddr: 0x100014C6C, symSize: 0x8 }
  - { offsetInCU: 0x162D5, offset: 0x36132, size: 0x8, addend: 0x0, symName: __ZNKSt3__19basic_iosIcNS_11char_traitsIcEEE5widenB7v160006Ec, symObjAddr: 0xBFAC, symBinAddr: 0x100014C74, symSize: 0x84 }
  - { offsetInCU: 0x16342, offset: 0x3619F, size: 0x8, addend: 0x0, symName: __ZNKSt3__15ctypeIcE5widenB7v160006Ec, symObjAddr: 0xC05C, symBinAddr: 0x100014D24, symSize: 0x38 }
  - { offsetInCU: 0x16376, offset: 0x361D3, size: 0x8, addend: 0x0, symName: __ZNSt3__18ios_base8setstateB7v160006Ej, symObjAddr: 0xC094, symBinAddr: 0x100014D5C, symSize: 0x34 }
  - { offsetInCU: 0x163AC, offset: 0x36209, size: 0x8, addend: 0x0, symName: __ZNKSt3__112basic_stringIcNS_11char_traitsIcEENS_9allocatorIcEEE4sizeB7v160006Ev, symObjAddr: 0xC0EC, symBinAddr: 0x100014D90, symSize: 0x54 }
  - { offsetInCU: 0x163D1, offset: 0x3622E, size: 0x8, addend: 0x0, symName: __ZNKSt3__112basic_stringIcNS_11char_traitsIcEENS_9allocatorIcEEE15__get_long_sizeB7v160006Ev, symObjAddr: 0xC140, symBinAddr: 0x100014DE4, symSize: 0x28 }
  - { offsetInCU: 0x163F6, offset: 0x36253, size: 0x8, addend: 0x0, symName: __ZNKSt3__112basic_stringIcNS_11char_traitsIcEENS_9allocatorIcEEE16__get_short_sizeB7v160006Ev, symObjAddr: 0xC168, symBinAddr: 0x100014E0C, symSize: 0x34 }
  - { offsetInCU: 0x1641B, offset: 0x36278, size: 0x8, addend: 0x0, symName: __ZNSt3__16vectorI7TextureNS_9allocatorIS1_EEE22__construct_one_at_endB7v160006IJRKS1_EEEvDpOT_, symObjAddr: 0xC19C, symBinAddr: 0x100014E40, symSize: 0x90 }
  - { offsetInCU: 0x16469, offset: 0x362C6, size: 0x8, addend: 0x0, symName: __ZNSt3__16vectorI7TextureNS_9allocatorIS1_EEE21__push_back_slow_pathIRKS1_EEvOT_, symObjAddr: 0xC22C, symBinAddr: 0x100014ED0, symSize: 0xD8 }
  - { offsetInCU: 0x164C6, offset: 0x36323, size: 0x8, addend: 0x0, symName: __ZNSt3__114__split_bufferI7TextureRNS_9allocatorIS1_EEEC1EmmS4_, symObjAddr: 0xC304, symBinAddr: 0x100014FA8, symSize: 0x44 }
  - { offsetInCU: 0x1651B, offset: 0x36378, size: 0x8, addend: 0x0, symName: __ZNSt3__114__split_bufferI7TextureRNS_9allocatorIS1_EEED1Ev, symObjAddr: 0xC460, symBinAddr: 0x100015104, symSize: 0x2C }
  - { offsetInCU: 0x16546, offset: 0x363A3, size: 0x8, addend: 0x0, symName: __ZNSt3__114__split_bufferI7TextureRNS_9allocatorIS1_EEEC2EmmS4_, symObjAddr: 0xC48C, symBinAddr: 0x100015130, symSize: 0xE0 }
  - { offsetInCU: 0x165B8, offset: 0x36415, size: 0x8, addend: 0x0, symName: __ZNSt3__117__compressed_pairIP7TextureRNS_9allocatorIS1_EEEC1B7v160006IDnS5_EEOT_OT0_, symObjAddr: 0xC56C, symBinAddr: 0x100015210, symSize: 0x3C }
  - { offsetInCU: 0x1660F, offset: 0x3646C, size: 0x8, addend: 0x0, symName: __ZNSt3__114__split_bufferI7TextureRNS_9allocatorIS1_EEE7__allocB7v160006Ev, symObjAddr: 0xC5A8, symBinAddr: 0x10001524C, symSize: 0x28 }
  - { offsetInCU: 0x16634, offset: 0x36491, size: 0x8, addend: 0x0, symName: __ZNSt3__114__split_bufferI7TextureRNS_9allocatorIS1_EEE9__end_capB7v160006Ev, symObjAddr: 0xC5D0, symBinAddr: 0x100015274, symSize: 0x28 }
  - { offsetInCU: 0x16659, offset: 0x364B6, size: 0x8, addend: 0x0, symName: __ZNSt3__117__compressed_pairIP7TextureRNS_9allocatorIS1_EEEC2B7v160006IDnS5_EEOT_OT0_, symObjAddr: 0xC5F8, symBinAddr: 0x10001529C, symSize: 0x48 }
  - { offsetInCU: 0x166B0, offset: 0x3650D, size: 0x8, addend: 0x0, symName: __ZNSt3__122__compressed_pair_elemIRNS_9allocatorI7TextureEELi1ELb0EEC2B7v160006IS4_vEEOT_, symObjAddr: 0xC640, symBinAddr: 0x1000152E4, symSize: 0x20 }
  - { offsetInCU: 0x166F1, offset: 0x3654E, size: 0x8, addend: 0x0, symName: __ZNSt3__117__compressed_pairIP7TextureRNS_9allocatorIS1_EEE6secondB7v160006Ev, symObjAddr: 0xC660, symBinAddr: 0x100015304, symSize: 0x28 }
  - { offsetInCU: 0x16716, offset: 0x36573, size: 0x8, addend: 0x0, symName: __ZNSt3__122__compressed_pair_elemIRNS_9allocatorI7TextureEELi1ELb0EE5__getB7v160006Ev, symObjAddr: 0xC688, symBinAddr: 0x10001532C, symSize: 0x18 }
  - { offsetInCU: 0x1673B, offset: 0x36598, size: 0x8, addend: 0x0, symName: __ZNSt3__117__compressed_pairIP7TextureRNS_9allocatorIS1_EEE5firstB7v160006Ev, symObjAddr: 0xC6A0, symBinAddr: 0x100015344, symSize: 0x24 }
  - { offsetInCU: 0x16760, offset: 0x365BD, size: 0x8, addend: 0x0, symName: __ZNSt3__129_AllocatorDestroyRangeReverseINS_9allocatorI7TextureEENS_16reverse_iteratorIPS2_EEEC1B7v160006ERS3_RS6_S9_, symObjAddr: 0xC868, symBinAddr: 0x10001550C, symSize: 0x44 }
  - { offsetInCU: 0x167BC, offset: 0x36619, size: 0x8, addend: 0x0, symName: __ZNSt3__116allocator_traitsINS_9allocatorI7TextureEEE9constructB7v160006IS2_JS2_EvEEvRS3_PT_DpOT0_, symObjAddr: 0xC8AC, symBinAddr: 0x100015550, symSize: 0x34 }
  - { offsetInCU: 0x16812, offset: 0x3666F, size: 0x8, addend: 0x0, symName: __ZNSt3__128__exception_guard_exceptionsINS_29_AllocatorDestroyRangeReverseINS_9allocatorI7TextureEENS_16reverse_iteratorIPS3_EEEEE10__completeB7v160006Ev, symObjAddr: 0xC8E0, symBinAddr: 0x100015584, symSize: 0x1C }
  - { offsetInCU: 0x16837, offset: 0x36694, size: 0x8, addend: 0x0, symName: __ZNSt3__128__exception_guard_exceptionsINS_29_AllocatorDestroyRangeReverseINS_9allocatorI7TextureEENS_16reverse_iteratorIPS3_EEEEED1B7v160006Ev, symObjAddr: 0xC8FC, symBinAddr: 0x1000155A0, symSize: 0x2C }
  - { offsetInCU: 0x16860, offset: 0x366BD, size: 0x8, addend: 0x0, symName: __ZNSt3__128__exception_guard_exceptionsINS_29_AllocatorDestroyRangeReverseINS_9allocatorI7TextureEENS_16reverse_iteratorIPS3_EEEEEC1B7v160006ES8_, symObjAddr: 0xC928, symBinAddr: 0x1000155CC, symSize: 0x34 }
  - { offsetInCU: 0x16898, offset: 0x366F5, size: 0x8, addend: 0x0, symName: __ZNSt3__128__exception_guard_exceptionsINS_29_AllocatorDestroyRangeReverseINS_9allocatorI7TextureEENS_16reverse_iteratorIPS3_EEEEEC2B7v160006ES8_, symObjAddr: 0xC95C, symBinAddr: 0x100015600, symSize: 0x30 }
  - { offsetInCU: 0x168D0, offset: 0x3672D, size: 0x8, addend: 0x0, symName: __ZNSt3__129_AllocatorDestroyRangeReverseINS_9allocatorI7TextureEENS_16reverse_iteratorIPS2_EEEC2B7v160006ERS3_RS6_S9_, symObjAddr: 0xC98C, symBinAddr: 0x100015630, symSize: 0x38 }
  - { offsetInCU: 0x16926, offset: 0x36783, size: 0x8, addend: 0x0, symName: __ZNSt3__19allocatorI7TextureE9constructB7v160006IS1_JS1_EEEvPT_DpOT0_, symObjAddr: 0xC9C4, symBinAddr: 0x100015668, symSize: 0x30 }
  - { offsetInCU: 0x1697B, offset: 0x367D8, size: 0x8, addend: 0x0, symName: __ZN7TextureC1EOS_, symObjAddr: 0xC9F4, symBinAddr: 0x100015698, symSize: 0x34 }
  - { offsetInCU: 0x169AE, offset: 0x3680B, size: 0x8, addend: 0x0, symName: __ZN7TextureC2EOS_, symObjAddr: 0xCA28, symBinAddr: 0x1000156CC, symSize: 0x5C }
  - { offsetInCU: 0x169E1, offset: 0x3683E, size: 0x8, addend: 0x0, symName: __ZNSt3__112basic_stringIcNS_11char_traitsIcEENS_9allocatorIcEEEC1B7v160006EOS5_, symObjAddr: 0xCA84, symBinAddr: 0x100015728, symSize: 0x34 }
  - { offsetInCU: 0x16A19, offset: 0x36876, size: 0x8, addend: 0x0, symName: __ZNSt3__112basic_stringIcNS_11char_traitsIcEENS_9allocatorIcEEEC2B7v160006EOS5_, symObjAddr: 0xCAB8, symBinAddr: 0x10001575C, symSize: 0x80 }
  - { offsetInCU: 0x16A51, offset: 0x368AE, size: 0x8, addend: 0x0, symName: __ZNSt3__128__exception_guard_exceptionsINS_29_AllocatorDestroyRangeReverseINS_9allocatorI7TextureEENS_16reverse_iteratorIPS3_EEEEED2B7v160006Ev, symObjAddr: 0xCB4C, symBinAddr: 0x1000157F0, symSize: 0x50 }
  - { offsetInCU: 0x16A7A, offset: 0x368D7, size: 0x8, addend: 0x0, symName: __ZNKSt3__129_AllocatorDestroyRangeReverseINS_9allocatorI7TextureEENS_16reverse_iteratorIPS2_EEEclB7v160006Ev, symObjAddr: 0xCB9C, symBinAddr: 0x100015840, symSize: 0xB4 }
  - { offsetInCU: 0x16AA0, offset: 0x368FD, size: 0x8, addend: 0x0, symName: __ZNSt3__116reverse_iteratorINS0_IP7TextureEEEC1B7v160006ES3_, symObjAddr: 0xCCC0, symBinAddr: 0x100015964, symSize: 0x3C }
  - { offsetInCU: 0x16AD7, offset: 0x36934, size: 0x8, addend: 0x0, symName: __ZNSt3__116reverse_iteratorINS0_IP7TextureEEEppB7v160006Ev, symObjAddr: 0xCD80, symBinAddr: 0x100015A24, symSize: 0x30 }
  - { offsetInCU: 0x16AFC, offset: 0x36959, size: 0x8, addend: 0x0, symName: __ZNKSt3__116reverse_iteratorINS0_IP7TextureEEE4baseB7v160006Ev, symObjAddr: 0xCDB0, symBinAddr: 0x100015A54, symSize: 0x24 }
  - { offsetInCU: 0x16B26, offset: 0x36983, size: 0x8, addend: 0x0, symName: __ZNSt3__119__to_address_helperINS_16reverse_iteratorINS1_IP7TextureEEEEvE6__callB7v160006ERKS5_, symObjAddr: 0xCDD4, symBinAddr: 0x100015A78, symSize: 0x38 }
  - { offsetInCU: 0x16B48, offset: 0x369A5, size: 0x8, addend: 0x0, symName: __ZNKSt3__116reverse_iteratorINS0_IP7TextureEEEptB7v160006Ev, symObjAddr: 0xCE0C, symBinAddr: 0x100015AB0, symSize: 0x24 }
  - { offsetInCU: 0x16B6D, offset: 0x369CA, size: 0x8, addend: 0x0, symName: __ZNKSt3__116reverse_iteratorINS0_IP7TextureEEEdeB7v160006Ev, symObjAddr: 0xCE30, symBinAddr: 0x100015AD4, symSize: 0x34 }
  - { offsetInCU: 0x16BA0, offset: 0x369FD, size: 0x8, addend: 0x0, symName: __ZNSt3__116reverse_iteratorIP7TextureEmmB7v160006Ev, symObjAddr: 0xCE64, symBinAddr: 0x100015B08, symSize: 0x20 }
  - { offsetInCU: 0x16BC5, offset: 0x36A22, size: 0x8, addend: 0x0, symName: __ZNSt3__116reverse_iteratorINS0_IP7TextureEEEC2B7v160006ES3_, symObjAddr: 0xCE84, symBinAddr: 0x100015B28, symSize: 0x2C }
  - { offsetInCU: 0x16BFC, offset: 0x36A59, size: 0x8, addend: 0x0, symName: __ZNSt3__114__split_bufferI7TextureRNS_9allocatorIS1_EEED2Ev, symObjAddr: 0xCEB0, symBinAddr: 0x100015B54, symSize: 0x8C }
  - { offsetInCU: 0x16C27, offset: 0x36A84, size: 0x8, addend: 0x0, symName: __ZNSt3__114__split_bufferI7TextureRNS_9allocatorIS1_EEE5clearB7v160006Ev, symObjAddr: 0xCF3C, symBinAddr: 0x100015BE0, symSize: 0x28 }
  - { offsetInCU: 0x16C4C, offset: 0x36AA9, size: 0x8, addend: 0x0, symName: __ZNKSt3__114__split_bufferI7TextureRNS_9allocatorIS1_EEE8capacityB7v160006Ev, symObjAddr: 0xCF64, symBinAddr: 0x100015C08, symSize: 0x40 }
  - { offsetInCU: 0x16C71, offset: 0x36ACE, size: 0x8, addend: 0x0, symName: __ZNSt3__114__split_bufferI7TextureRNS_9allocatorIS1_EEE17__destruct_at_endB7v160006EPS1_, symObjAddr: 0xCFA4, symBinAddr: 0x100015C48, symSize: 0x2C }
  - { offsetInCU: 0x16CA4, offset: 0x36B01, size: 0x8, addend: 0x0, symName: __ZNSt3__114__split_bufferI7TextureRNS_9allocatorIS1_EEE17__destruct_at_endB7v160006EPS1_NS_17integral_constantIbLb0EEE, symObjAddr: 0xCFD0, symBinAddr: 0x100015C74, symSize: 0x80 }
  - { offsetInCU: 0x16CE4, offset: 0x36B41, size: 0x8, addend: 0x0, symName: __ZNKSt3__114__split_bufferI7TextureRNS_9allocatorIS1_EEE9__end_capB7v160006Ev, symObjAddr: 0xD050, symBinAddr: 0x100015CF4, symSize: 0x28 }
  - { offsetInCU: 0x16D09, offset: 0x36B66, size: 0x8, addend: 0x0, symName: __ZNKSt3__117__compressed_pairIP7TextureRNS_9allocatorIS1_EEE5firstB7v160006Ev, symObjAddr: 0xD078, symBinAddr: 0x100015D1C, symSize: 0x24 }
  - { offsetInCU: 0x16D2E, offset: 0x36B8B, size: 0x8, addend: 0x0, symName: __ZNSt3__112basic_stringIcNS_11char_traitsIcEENS_9allocatorIcEEE6appendB7v160006ERKS5_, symObjAddr: 0xD09C, symBinAddr: 0x100015D40, symSize: 0x4C }
  - { offsetInCU: 0x16D62, offset: 0x36BBF, size: 0x8, addend: 0x0, symName: __ZNSt3__16vectorI3TriNS_9allocatorIS1_EEE11__make_iterB7v160006EPS1_, symObjAddr: 0xD148, symBinAddr: 0x100015D8C, symSize: 0x34 }
  - { offsetInCU: 0x16D96, offset: 0x36BF3, size: 0x8, addend: 0x0, symName: __ZNSt3__111__wrap_iterIP3TriEC1B7v160006EPKvS2_, symObjAddr: 0xD17C, symBinAddr: 0x100015DC0, symSize: 0x3C }
  - { offsetInCU: 0x16DDB, offset: 0x36C38, size: 0x8, addend: 0x0, symName: __ZNSt3__111__wrap_iterIP3TriEC2B7v160006EPKvS2_, symObjAddr: 0xD1B8, symBinAddr: 0x100015DFC, symSize: 0x24 }
  - { offsetInCU: 0x94C8, offset: 0x4033F, size: 0x8, addend: 0x0, symName: __ZNSt3__17advanceB7v160006INS_11__wrap_iterIP7TextureEEllvEEvRT_T0_, symObjAddr: 0x9454, symBinAddr: 0x10001B300, symSize: 0x50 }
  - { offsetInCU: 0x990C, offset: 0x40783, size: 0x8, addend: 0x0, symName: __ZNSt3__16copy_nB7v160006IPKcmPcEENS_9enable_ifIXsr33__is_cpp17_random_access_iteratorIT_EE5valueET1_E4typeES5_T0_S6_, symObjAddr: 0xDC14, symBinAddr: 0x10001CC2C, symSize: 0x44 }
  - { offsetInCU: 0xA67F, offset: 0x414F6, size: 0x8, addend: 0x0, symName: __ZNSt3__1plB7v160006IcNS_11char_traitsIcEENS_9allocatorIcEEEENS_12basic_stringIT_T0_T1_EERKS9_S6_, symObjAddr: 0x2070, symBinAddr: 0x10001792C, symSize: 0x110 }
  - { offsetInCU: 0xA711, offset: 0x41588, size: 0x8, addend: 0x0, symName: __ZNSt3__119__debug_db_insert_cB7v160006INS_6vectorI4MeshNS_9allocatorIS2_EEEEEEvPT_, symObjAddr: 0x40B8, symBinAddr: 0x100017CF4, symSize: 0x10 }
  - { offsetInCU: 0xA742, offset: 0x415B9, size: 0x8, addend: 0x0, symName: __ZNSt3__119__allocate_at_leastB7v160006INS_9allocatorI4MeshEEEENS_19__allocation_resultINS_16allocator_traitsIT_E7pointerEEERS6_m, symObjAddr: 0x5FD8, symBinAddr: 0x1000189D4, symSize: 0x40 }
  - { offsetInCU: 0xA785, offset: 0x415FC, size: 0x8, addend: 0x0, symName: __ZNSt3__142__uninitialized_allocator_move_if_noexceptB7v160006INS_9allocatorI4MeshEENS_16reverse_iteratorIPS2_EES6_S6_EET2_RT_T0_T1_S7_, symObjAddr: 0x6274, symBinAddr: 0x100018B8C, symSize: 0x12C }
  - { offsetInCU: 0xA825, offset: 0x4169C, size: 0x8, addend: 0x0, symName: __ZNSt3__14swapB7v160006IP4MeshEENS_9enable_ifIXaasr21is_move_constructibleIT_EE5valuesr18is_move_assignableIS4_EE5valueEvE4typeERS4_S7_, symObjAddr: 0x63EC, symBinAddr: 0x100018D04, symSize: 0x3C }
  - { offsetInCU: 0xA876, offset: 0x416ED, size: 0x8, addend: 0x0, symName: __ZNSt3__125__debug_db_invalidate_allB7v160006INS_6vectorI4MeshNS_9allocatorIS2_EEEEEEvPT_, symObjAddr: 0x64F0, symBinAddr: 0x100018E08, symSize: 0x10 }
  - { offsetInCU: 0xA8A7, offset: 0x4171E, size: 0x8, addend: 0x0, symName: __ZNSt3__122__make_exception_guardB7v160006INS_29_AllocatorDestroyRangeReverseINS_9allocatorI4MeshEENS_16reverse_iteratorIPS3_EEEEEENS_28__exception_guard_exceptionsIT_EESA_, symObjAddr: 0x6500, symBinAddr: 0x100018E18, symSize: 0x4C }
  - { offsetInCU: 0xA8DD, offset: 0x41754, size: 0x8, addend: 0x0, symName: __ZNSt3__1neB7v160006IP4MeshS2_EEbRKNS_16reverse_iteratorIT_EERKNS3_IT0_EE, symObjAddr: 0x6590, symBinAddr: 0x100018EA8, symSize: 0x48 }
  - { offsetInCU: 0xA929, offset: 0x417A0, size: 0x8, addend: 0x0, symName: __ZNSt3__112__to_addressB7v160006INS_16reverse_iteratorIP4MeshEEvEENS_5decayIDTclsr19__to_address_helperIT_EE6__callclsr3stdE7declvalIRKS6_EEEEE4typeES8_, symObjAddr: 0x65D8, symBinAddr: 0x100018EF0, symSize: 0x24 }
  - { offsetInCU: 0xA988, offset: 0x417FF, size: 0x8, addend: 0x0, symName: __ZNSt3__119__allocator_destroyB7v160006INS_9allocatorI4MeshEENS_16reverse_iteratorINS4_IPS2_EEEES7_EEvRT_T0_T1_, symObjAddr: 0x6888, symBinAddr: 0x1000191A0, symSize: 0x70 }
  - { offsetInCU: 0xA9ED, offset: 0x41864, size: 0x8, addend: 0x0, symName: __ZNSt3__1neB7v160006INS_16reverse_iteratorIP4MeshEES4_EEbRKNS1_IT_EERKNS1_IT0_EE, symObjAddr: 0x6934, symBinAddr: 0x10001924C, symSize: 0x60 }
  - { offsetInCU: 0xAA39, offset: 0x418B0, size: 0x8, addend: 0x0, symName: __ZNSt3__112__to_addressB7v160006INS_16reverse_iteratorINS1_IP4MeshEEEEvEENS_5decayIDTclsr19__to_address_helperIT_EE6__callclsr3stdE7declvalIRKS7_EEEEE4typeES9_, symObjAddr: 0x6994, symBinAddr: 0x1000192AC, symSize: 0x24 }
  - { offsetInCU: 0xAA98, offset: 0x4190F, size: 0x8, addend: 0x0, symName: __ZNSt3__142__uninitialized_allocator_move_if_noexceptB7v160006INS_9allocatorI6VertexEENS_16reverse_iteratorIPS2_EES6_S2_vEET1_RT_T0_SA_S7_, symObjAddr: 0x75D0, symBinAddr: 0x100019BA4, symSize: 0x78 }
  - { offsetInCU: 0xAB15, offset: 0x4198C, size: 0x8, addend: 0x0, symName: __ZNSt3__14swapB7v160006IP6VertexEENS_9enable_ifIXaasr21is_move_constructibleIT_EE5valuesr18is_move_assignableIS4_EE5valueEvE4typeERS4_S7_, symObjAddr: 0x7694, symBinAddr: 0x100019C1C, symSize: 0x3C }
  - { offsetInCU: 0xAB66, offset: 0x419DD, size: 0x8, addend: 0x0, symName: __ZNSt3__14moveB7v160006INS_16reverse_iteratorIP6VertexEES4_EET0_T_S6_S5_, symObjAddr: 0x77A8, symBinAddr: 0x100019C58, symSize: 0x78 }
  - { offsetInCU: 0xABC0, offset: 0x41A37, size: 0x8, addend: 0x0, symName: __ZNSt3__16__moveB7v160006INS_17_ClassicAlgPolicyENS_16reverse_iteratorIP6VertexEES5_S5_EENS_4pairIT0_T2_EES7_T1_S8_, symObjAddr: 0x7820, symBinAddr: 0x100019CD0, symSize: 0x64 }
  - { offsetInCU: 0xAC2C, offset: 0x41AA3, size: 0x8, addend: 0x0, symName: __ZNSt3__123__dispatch_copy_or_moveB7v160006INS_17_ClassicAlgPolicyENS_11__move_loopIS1_EENS_14__move_trivialENS_16reverse_iteratorIP6VertexEES8_S8_EENS_4pairIT2_T4_EESA_T3_SB_, symObjAddr: 0x7884, symBinAddr: 0x100019D34, symSize: 0x64 }
  - { offsetInCU: 0xACAA, offset: 0x41B21, size: 0x8, addend: 0x0, symName: __ZNSt3__121__unwrap_and_dispatchB7v160006INS_10__overloadINS_11__move_loopINS_17_ClassicAlgPolicyEEENS_14__move_trivialEEENS_16reverse_iteratorIP6VertexEESA_SA_Li0EEENS_4pairIT0_T2_EESC_T1_SD_, symObjAddr: 0x78E8, symBinAddr: 0x100019D98, symSize: 0x12C }
  - { offsetInCU: 0xAD3A, offset: 0x41BB1, size: 0x8, addend: 0x0, symName: __ZNSt3__114__unwrap_rangeB7v160006INS_16reverse_iteratorIP6VertexEES4_EENS_4pairIT0_S6_EET_S8_, symObjAddr: 0x7A14, symBinAddr: 0x100019EC4, symSize: 0x84 }
  - { offsetInCU: 0xAEEB, offset: 0x41D62, size: 0x8, addend: 0x0, symName: __ZNSt3__113__unwrap_iterB7v160006INS_16reverse_iteratorIP6VertexEENS_18__unwrap_iter_implIS4_Lb0EEELi0EEEDTclsrT0_8__unwrapclsr3stdE7declvalIT_EEEES8_, symObjAddr: 0x7B34, symBinAddr: 0x100019FE4, symSize: 0x44 }
  - { offsetInCU: 0xAF2F, offset: 0x41DA6, size: 0x8, addend: 0x0, symName: __ZNSt3__19make_pairB7v160006INS_16reverse_iteratorIP6VertexEES4_EENS_4pairINS_18__unwrap_ref_decayIT_E4typeENS6_IT0_E4typeEEEOS7_OSA_, symObjAddr: 0x7B78, symBinAddr: 0x10001A028, symSize: 0x38 }
  - { offsetInCU: 0xAF7E, offset: 0x41DF5, size: 0x8, addend: 0x0, symName: __ZNSt3__114__rewrap_rangeB7v160006INS_16reverse_iteratorIP6VertexEES4_EET_S5_T0_, symObjAddr: 0x7BB0, symBinAddr: 0x10001A060, symSize: 0x5C }
  - { offsetInCU: 0xAFCA, offset: 0x41E41, size: 0x8, addend: 0x0, symName: __ZNSt3__113__rewrap_iterB7v160006INS_16reverse_iteratorIP6VertexEES4_NS_18__unwrap_iter_implIS4_Lb0EEEEET_S7_T0_, symObjAddr: 0x7C0C, symBinAddr: 0x10001A0BC, symSize: 0x74 }
  - { offsetInCU: 0xB15A, offset: 0x41FD1, size: 0x8, addend: 0x0, symName: __ZNSt3__142__uninitialized_allocator_move_if_noexceptB7v160006INS_9allocatorIjEENS_16reverse_iteratorIPjEES5_jvEET1_RT_T0_S9_S6_, symObjAddr: 0x88B4, symBinAddr: 0x10001A980, symSize: 0x78 }
  - { offsetInCU: 0xB1D7, offset: 0x4204E, size: 0x8, addend: 0x0, symName: __ZNSt3__14swapB7v160006IPjEENS_9enable_ifIXaasr21is_move_constructibleIT_EE5valuesr18is_move_assignableIS3_EE5valueEvE4typeERS3_S6_, symObjAddr: 0x8978, symBinAddr: 0x10001A9F8, symSize: 0x3C }
  - { offsetInCU: 0xB228, offset: 0x4209F, size: 0x8, addend: 0x0, symName: __ZNSt3__14moveB7v160006INS_16reverse_iteratorIPjEES3_EET0_T_S5_S4_, symObjAddr: 0x8A70, symBinAddr: 0x10001AA34, symSize: 0x78 }
  - { offsetInCU: 0xB282, offset: 0x420F9, size: 0x8, addend: 0x0, symName: __ZNSt3__16__moveB7v160006INS_17_ClassicAlgPolicyENS_16reverse_iteratorIPjEES4_S4_EENS_4pairIT0_T2_EES6_T1_S7_, symObjAddr: 0x8AE8, symBinAddr: 0x10001AAAC, symSize: 0x64 }
  - { offsetInCU: 0xB2EE, offset: 0x42165, size: 0x8, addend: 0x0, symName: __ZNSt3__123__dispatch_copy_or_moveB7v160006INS_17_ClassicAlgPolicyENS_11__move_loopIS1_EENS_14__move_trivialENS_16reverse_iteratorIPjEES7_S7_EENS_4pairIT2_T4_EES9_T3_SA_, symObjAddr: 0x8B4C, symBinAddr: 0x10001AB10, symSize: 0x64 }
  - { offsetInCU: 0xB36C, offset: 0x421E3, size: 0x8, addend: 0x0, symName: __ZNSt3__121__unwrap_and_dispatchB7v160006INS_10__overloadINS_11__move_loopINS_17_ClassicAlgPolicyEEENS_14__move_trivialEEENS_16reverse_iteratorIPjEES9_S9_Li0EEENS_4pairIT0_T2_EESB_T1_SC_, symObjAddr: 0x8BB0, symBinAddr: 0x10001AB74, symSize: 0x12C }
  - { offsetInCU: 0xB3FC, offset: 0x42273, size: 0x8, addend: 0x0, symName: __ZNSt3__114__unwrap_rangeB7v160006INS_16reverse_iteratorIPjEES3_EENS_4pairIT0_S5_EET_S7_, symObjAddr: 0x8CDC, symBinAddr: 0x10001ACA0, symSize: 0x84 }
  - { offsetInCU: 0xB51C, offset: 0x42393, size: 0x8, addend: 0x0, symName: __ZNSt3__113__unwrap_iterB7v160006INS_16reverse_iteratorIPjEENS_18__unwrap_iter_implIS3_Lb0EEELi0EEEDTclsrT0_8__unwrapclsr3stdE7declvalIT_EEEES7_, symObjAddr: 0x8E00, symBinAddr: 0x10001ADC4, symSize: 0x44 }
  - { offsetInCU: 0xB560, offset: 0x423D7, size: 0x8, addend: 0x0, symName: __ZNSt3__19make_pairB7v160006INS_16reverse_iteratorIPjEES3_EENS_4pairINS_18__unwrap_ref_decayIT_E4typeENS5_IT0_E4typeEEEOS6_OS9_, symObjAddr: 0x8E44, symBinAddr: 0x10001AE08, symSize: 0x38 }
  - { offsetInCU: 0xB5AF, offset: 0x42426, size: 0x8, addend: 0x0, symName: __ZNSt3__114__rewrap_rangeB7v160006INS_16reverse_iteratorIPjEES3_EET_S4_T0_, symObjAddr: 0x8E7C, symBinAddr: 0x10001AE40, symSize: 0x5C }
  - { offsetInCU: 0xB5FB, offset: 0x42472, size: 0x8, addend: 0x0, symName: __ZNSt3__113__rewrap_iterB7v160006INS_16reverse_iteratorIPjEES3_NS_18__unwrap_iter_implIS3_Lb0EEEEET_S6_T0_, symObjAddr: 0x8ED8, symBinAddr: 0x10001AE9C, symSize: 0x74 }
  - { offsetInCU: 0xB6BC, offset: 0x42533, size: 0x8, addend: 0x0, symName: __ZNSt3__1miB7v160006IPK7TexturePS1_EEDTmicldtfp_4baseEcldtfp0_4baseEERKNS_11__wrap_iterIT_EERKNS6_IT0_EE, symObjAddr: 0x93D0, symBinAddr: 0x10001B27C, symSize: 0x48 }
  - { offsetInCU: 0xB708, offset: 0x4257F, size: 0x8, addend: 0x0, symName: __ZNSt3__18distanceB7v160006INS_11__wrap_iterIP7TextureEEEENS_15iterator_traitsIT_E15difference_typeES6_S6_, symObjAddr: 0x9418, symBinAddr: 0x10001B2C4, symSize: 0x3C }
  - { offsetInCU: 0xB74B, offset: 0x425C2, size: 0x8, addend: 0x0, symName: __ZNSt3__14copyB7v160006INS_11__wrap_iterIP7TextureEES3_EET0_T_S6_S5_, symObjAddr: 0x967C, symBinAddr: 0x10001B528, symSize: 0x50 }
  - { offsetInCU: 0xB7A5, offset: 0x4261C, size: 0x8, addend: 0x0, symName: __ZNSt3__110__distanceB7v160006INS_11__wrap_iterIP7TextureEEEENS_15iterator_traitsIT_E15difference_typeES6_S6_NS_26random_access_iterator_tagE, symObjAddr: 0x9A4C, symBinAddr: 0x10001B7D4, symSize: 0x30 }
  - { offsetInCU: 0xB7F3, offset: 0x4266A, size: 0x8, addend: 0x0, symName: __ZNSt3__1miB7v160006IP7TextureS2_EEDTmicldtfp_4baseEcldtfp0_4baseEERKNS_11__wrap_iterIT_EERKNS4_IT0_EE, symObjAddr: 0x9A7C, symBinAddr: 0x10001B804, symSize: 0x48 }
  - { offsetInCU: 0xB83F, offset: 0x426B6, size: 0x8, addend: 0x0, symName: __ZNSt3__121__convert_to_integralB7v160006El, symObjAddr: 0x9AC4, symBinAddr: 0x10001B84C, symSize: 0x14 }
  - { offsetInCU: 0xB86B, offset: 0x426E2, size: 0x8, addend: 0x0, symName: __ZNSt3__19__advanceB7v160006INS_11__wrap_iterIP7TextureEEEEvRT_NS_15iterator_traitsIS5_E15difference_typeENS_26random_access_iterator_tagE, symObjAddr: 0x9AD8, symBinAddr: 0x10001B860, symSize: 0x2C }
  - { offsetInCU: 0xB8B6, offset: 0x4272D, size: 0x8, addend: 0x0, symName: __ZNSt3__130__uninitialized_allocator_copyB7v160006INS_9allocatorI7TextureEENS_11__wrap_iterIPS2_EES6_S5_EET2_RT_T0_T1_S7_, symObjAddr: 0x9B70, symBinAddr: 0x10001B8BC, symSize: 0xF8 }
  - { offsetInCU: 0xB954, offset: 0x427CB, size: 0x8, addend: 0x0, symName: __ZNSt3__1neB7v160006IP7TextureEEbRKNS_11__wrap_iterIT_EES7_, symObjAddr: 0x9D70, symBinAddr: 0x10001B9B4, symSize: 0x34 }
  - { offsetInCU: 0xB997, offset: 0x4280E, size: 0x8, addend: 0x0, symName: __ZNSt3__1eqB7v160006IP7TextureEEbRKNS_11__wrap_iterIT_EES7_, symObjAddr: 0x9EF4, symBinAddr: 0x10001BA20, symSize: 0x48 }
  - { offsetInCU: 0xB9DA, offset: 0x42851, size: 0x8, addend: 0x0, symName: __ZNSt3__113move_backwardB7v160006IP7TextureS2_EET0_T_S4_S3_, symObjAddr: 0xA328, symBinAddr: 0x10001BA68, symSize: 0x40 }
  - { offsetInCU: 0xBA34, offset: 0x428AB, size: 0x8, addend: 0x0, symName: __ZNSt3__115__move_backwardB7v160006INS_17_ClassicAlgPolicyEP7TextureS3_S3_EENS_4pairIT0_T2_EES5_T1_S6_, symObjAddr: 0xA4F0, symBinAddr: 0x10001BAA8, symSize: 0x44 }
  - { offsetInCU: 0xBAA0, offset: 0x42917, size: 0x8, addend: 0x0, symName: __ZNSt3__123__dispatch_copy_or_moveB7v160006INS_17_ClassicAlgPolicyENS_20__move_backward_loopIS1_EENS_23__move_backward_trivialEP7TextureS6_S6_EENS_4pairIT2_T4_EES8_T3_S9_, symObjAddr: 0xA534, symBinAddr: 0x10001BAEC, symSize: 0x44 }
  - { offsetInCU: 0xBB1E, offset: 0x42995, size: 0x8, addend: 0x0, symName: __ZNSt3__121__unwrap_and_dispatchB7v160006INS_10__overloadINS_20__move_backward_loopINS_17_ClassicAlgPolicyEEENS_23__move_backward_trivialEEEP7TextureS8_S8_Li0EEENS_4pairIT0_T2_EESA_T1_SB_, symObjAddr: 0xA578, symBinAddr: 0x10001BB30, symSize: 0xB4 }
  - { offsetInCU: 0xBCF6, offset: 0x42B6D, size: 0x8, addend: 0x0, symName: __ZNSt3__16__copyB7v160006INS_17_ClassicAlgPolicyENS_11__wrap_iterIP7TextureEES5_S4_EENS_4pairIT0_T2_EES7_T1_S8_, symObjAddr: 0xA980, symBinAddr: 0x10001BD28, symSize: 0x54 }
  - { offsetInCU: 0xBD62, offset: 0x42BD9, size: 0x8, addend: 0x0, symName: __ZNSt3__123__dispatch_copy_or_moveB7v160006INS_17_ClassicAlgPolicyENS_11__copy_loopIS1_EENS_14__copy_trivialENS_11__wrap_iterIP7TextureEES8_S7_EENS_4pairIT2_T4_EESA_T3_SB_, symObjAddr: 0xA9D4, symBinAddr: 0x10001BD7C, symSize: 0x54 }
  - { offsetInCU: 0xBDE0, offset: 0x42C57, size: 0x8, addend: 0x0, symName: __ZNSt3__121__unwrap_and_dispatchB7v160006INS_10__overloadINS_11__copy_loopINS_17_ClassicAlgPolicyEEENS_14__copy_trivialEEENS_11__wrap_iterIP7TextureEESA_S9_Li0EEENS_4pairIT0_T2_EESC_T1_SD_, symObjAddr: 0xAA28, symBinAddr: 0x10001BDD0, symSize: 0xCC }
  - { offsetInCU: 0xBE6E, offset: 0x42CE5, size: 0x8, addend: 0x0, symName: __ZNSt3__114__unwrap_rangeB7v160006INS_11__wrap_iterIP7TextureEES3_EENS_4pairIT0_S6_EET_S8_, symObjAddr: 0xAAF4, symBinAddr: 0x10001BE9C, symSize: 0x70 }
  - { offsetInCU: 0xBEBA, offset: 0x42D31, size: 0x8, addend: 0x0, symName: __ZNSt3__19make_pairB7v160006INS_11__wrap_iterIP7TextureEES3_EENS_4pairINS_18__unwrap_ref_decayIT_E4typeENS6_IT0_E4typeEEEOS7_OSA_, symObjAddr: 0xABEC, symBinAddr: 0x10001BF0C, symSize: 0x38 }
  - { offsetInCU: 0xBF09, offset: 0x42D80, size: 0x8, addend: 0x0, symName: __ZNSt3__114__rewrap_rangeB7v160006INS_11__wrap_iterIP7TextureEES3_EET_S5_T0_, symObjAddr: 0xAC24, symBinAddr: 0x10001BF44, symSize: 0x3C }
  - { offsetInCU: 0xBF55, offset: 0x42DCC, size: 0x8, addend: 0x0, symName: __ZNSt3__113__unwrap_iterB7v160006INS_11__wrap_iterIP7TextureEENS_18__unwrap_iter_implIS4_Lb1EEELi0EEEDTclsrT0_8__unwrapclsr3stdE7declvalIT_EEEES8_, symObjAddr: 0xAC60, symBinAddr: 0x10001BF80, symSize: 0x2C }
  - { offsetInCU: 0xBFEC, offset: 0x42E63, size: 0x8, addend: 0x0, symName: __ZNSt3__112__to_addressB7v160006INS_11__wrap_iterIP7TextureEEvEENS_5decayIDTclsr19__to_address_helperIT_EE6__callclsr3stdE7declvalIRKS6_EEEEE4typeES8_, symObjAddr: 0xACB4, symBinAddr: 0x10001BFD4, symSize: 0x24 }
  - { offsetInCU: 0xC19F, offset: 0x43016, size: 0x8, addend: 0x0, symName: __ZNSt3__113__rewrap_iterB7v160006INS_11__wrap_iterIP7TextureEES3_NS_18__unwrap_iter_implIS4_Lb1EEEEET_S7_T0_, symObjAddr: 0xAE00, symBinAddr: 0x10001C0C4, symSize: 0x4C }
  - { offsetInCU: 0xC1F4, offset: 0x4306B, size: 0x8, addend: 0x0, symName: __ZNSt3__142__uninitialized_allocator_move_if_noexceptB7v160006INS_9allocatorI7TextureEEPS2_S4_S4_EET2_RT_T0_T1_S5_, symObjAddr: 0xB4C8, symBinAddr: 0x10001C27C, symSize: 0xF4 }
  - { offsetInCU: 0xC292, offset: 0x43109, size: 0x8, addend: 0x0, symName: __ZNSt3__122__make_exception_guardB7v160006INS_6vectorI7TextureNS_9allocatorIS2_EEE16__destroy_vectorEEENS_28__exception_guard_exceptionsIT_EES8_, symObjAddr: 0xCEB0, symBinAddr: 0x10001C490, symSize: 0x40 }
  - { offsetInCU: 0xC4B4, offset: 0x4332B, size: 0x8, addend: 0x0, symName: __ZNSt3__14copyB7v160006IPKcPcEET0_T_S5_S4_, symObjAddr: 0xDC58, symBinAddr: 0x10001CC70, symSize: 0x40 }
  - { offsetInCU: 0xC50E, offset: 0x43385, size: 0x8, addend: 0x0, symName: __ZNSt3__16__copyB7v160006INS_17_ClassicAlgPolicyEPKcS3_PcEENS_4pairIT0_T2_EES6_T1_S7_, symObjAddr: 0xDC98, symBinAddr: 0x10001CCB0, symSize: 0x44 }
  - { offsetInCU: 0xC57A, offset: 0x433F1, size: 0x8, addend: 0x0, symName: __ZNSt3__123__dispatch_copy_or_moveB7v160006INS_17_ClassicAlgPolicyENS_11__copy_loopIS1_EENS_14__copy_trivialEPKcS6_PcEENS_4pairIT2_T4_EES9_T3_SA_, symObjAddr: 0xDCDC, symBinAddr: 0x10001CCF4, symSize: 0x44 }
  - { offsetInCU: 0xC5F8, offset: 0x4346F, size: 0x8, addend: 0x0, symName: __ZNSt3__121__unwrap_and_dispatchB7v160006INS_10__overloadINS_11__copy_loopINS_17_ClassicAlgPolicyEEENS_14__copy_trivialEEEPKcS8_PcLi0EEENS_4pairIT0_T2_EESB_T1_SC_, symObjAddr: 0xDD20, symBinAddr: 0x10001CD38, symSize: 0xB4 }
  - { offsetInCU: 0xC686, offset: 0x434FD, size: 0x8, addend: 0x0, symName: __ZNSt3__114__unwrap_rangeB7v160006IPKcS2_EENS_4pairIT0_S4_EET_S6_, symObjAddr: 0xDDD4, symBinAddr: 0x10001CDEC, symSize: 0x60 }
  - { offsetInCU: 0xC81B, offset: 0x43692, size: 0x8, addend: 0x0, symName: __ZNSt3__113__unwrap_iterB7v160006IPcNS_18__unwrap_iter_implIS1_Lb1EEELi0EEEDTclsrT0_8__unwrapclsr3stdE7declvalIT_EEEES5_, symObjAddr: 0xDE7C, symBinAddr: 0x10001CE94, symSize: 0x24 }
  - { offsetInCU: 0xC85F, offset: 0x436D6, size: 0x8, addend: 0x0, symName: __ZNSt3__19make_pairB7v160006IPKcPcEENS_4pairINS_18__unwrap_ref_decayIT_E4typeENS5_IT0_E4typeEEEOS6_OS9_, symObjAddr: 0xDEA0, symBinAddr: 0x10001CEB8, symSize: 0x38 }
  - { offsetInCU: 0xC8AE, offset: 0x43725, size: 0x8, addend: 0x0, symName: __ZNSt3__114__rewrap_rangeB7v160006IPKcS2_EET_S3_T0_, symObjAddr: 0xDED8, symBinAddr: 0x10001CEF0, symSize: 0x2C }
  - { offsetInCU: 0xC8FA, offset: 0x43771, size: 0x8, addend: 0x0, symName: __ZNSt3__113__rewrap_iterB7v160006IPcS1_NS_18__unwrap_iter_implIS1_Lb1EEEEET_S4_T0_, symObjAddr: 0xDF04, symBinAddr: 0x10001CF1C, symSize: 0x3C }
  - { offsetInCU: 0xC94F, offset: 0x437C6, size: 0x8, addend: 0x0, symName: __ZNSt3__19make_pairB7v160006IPKcS2_EENS_4pairINS_18__unwrap_ref_decayIT_E4typeENS4_IT0_E4typeEEEOS5_OS8_, symObjAddr: 0xDF40, symBinAddr: 0x10001CF58, symSize: 0x38 }
  - { offsetInCU: 0xC99E, offset: 0x43815, size: 0x8, addend: 0x0, symName: __ZNSt3__113__unwrap_iterB7v160006IPKcNS_18__unwrap_iter_implIS2_Lb1EEELi0EEEDTclsrT0_8__unwrapclsr3stdE7declvalIT_EEEES6_, symObjAddr: 0xDF78, symBinAddr: 0x10001CF90, symSize: 0x24 }
  - { offsetInCU: 0xCB09, offset: 0x43980, size: 0x8, addend: 0x0, symName: __ZNSt3__119__copy_trivial_implB7v160006IKccEENS_4pairIPT_PT0_EES4_S4_S6_, symObjAddr: 0xE030, symBinAddr: 0x10001D048, symSize: 0x7C }
  - { offsetInCU: 0xCB71, offset: 0x439E8, size: 0x8, addend: 0x0, symName: __ZNSt3__19make_pairB7v160006IRPKcPcEENS_4pairINS_18__unwrap_ref_decayIT_E4typeENS6_IT0_E4typeEEEOS7_OSA_, symObjAddr: 0xE0AC, symBinAddr: 0x10001D0C4, symSize: 0x38 }
  - { offsetInCU: 0xCC13, offset: 0x43A8A, size: 0x8, addend: 0x0, symName: __ZNSt3__113__rewrap_iterB7v160006IPKcS2_NS_18__unwrap_iter_implIS2_Lb1EEEEET_S5_T0_, symObjAddr: 0xE1E8, symBinAddr: 0x10001D200, symSize: 0x3C }
  - { offsetInCU: 0xCC68, offset: 0x43ADF, size: 0x8, addend: 0x0, symName: __ZNSt3__16fill_nB7v160006IPcmcEET_S2_T0_RKT1_, symObjAddr: 0xE2B4, symBinAddr: 0x10001D2CC, symSize: 0x44 }
  - { offsetInCU: 0xCCCB, offset: 0x43B42, size: 0x8, addend: 0x0, symName: __ZNSt3__18__fill_nB7v160006IPcmcEET_S2_T0_RKT1_, symObjAddr: 0xE2F8, symBinAddr: 0x10001D310, symSize: 0x64 }
  - { offsetInCU: 0xD7CC, offset: 0x44643, size: 0x8, addend: 0x0, symName: __ZNSt3__16vectorI4MeshNS_9allocatorIS1_EEE26__swap_out_circular_bufferERNS_14__split_bufferIS1_RS3_EE, symObjAddr: 0x5A24, symBinAddr: 0x100018654, symSize: 0x118 }
  - { offsetInCU: 0xD85F, offset: 0x446D6, size: 0x8, addend: 0x0, symName: __ZNSt3__16vectorI6VertexNS_9allocatorIS1_EEE26__swap_out_circular_bufferERNS_14__split_bufferIS1_RS3_EE, symObjAddr: 0x7098, symBinAddr: 0x100019828, symSize: 0x118 }
  - { offsetInCU: 0xD8A6, offset: 0x4471D, size: 0x8, addend: 0x0, symName: __ZNSt3__16vectorIjNS_9allocatorIjEEE26__swap_out_circular_bufferERNS_14__split_bufferIjRS2_EE, symObjAddr: 0x8398, symBinAddr: 0x10001A610, symSize: 0x118 }
  - { offsetInCU: 0xD92A, offset: 0x447A1, size: 0x8, addend: 0x0, symName: __ZNSt3__16vectorI7TextureNS_9allocatorIS1_EEE26__swap_out_circular_bufferERNS_14__split_bufferIS1_RS3_EEPS1_, symObjAddr: 0x98B4, symBinAddr: 0x10001B668, symSize: 0x154 }
  - { offsetInCU: 0xF85C, offset: 0x466D3, size: 0x8, addend: 0x0, symName: __ZN5ModelC2ERKNSt3__112basic_stringIcNS0_11char_traitsIcEENS0_9allocatorIcEEEEb, symObjAddr: 0x0, symBinAddr: 0x100015E20, symSize: 0xAC }
  - { offsetInCU: 0xF8A2, offset: 0x46719, size: 0x8, addend: 0x0, symName: __ZNSt3__16vectorI4MeshNS_9allocatorIS1_EEEC1B7v160006Ev, symObjAddr: 0xD8, symBinAddr: 0x100015ECC, symSize: 0x2C }
  - { offsetInCU: 0xF8CB, offset: 0x46742, size: 0x8, addend: 0x0, symName: __ZN5Model9loadModelERKNSt3__112basic_stringIcNS0_11char_traitsIcEENS0_9allocatorIcEEEE, symObjAddr: 0x130, symBinAddr: 0x100015EF8, symSize: 0x190 }
  - { offsetInCU: 0xF91B, offset: 0x46792, size: 0x8, addend: 0x0, symName: __ZN5ModelC1ERKNSt3__112basic_stringIcNS0_11char_traitsIcEENS0_9allocatorIcEEEEb, symObjAddr: 0x318, symBinAddr: 0x100016088, symSize: 0x48 }
  - { offsetInCU: 0xF961, offset: 0x467D8, size: 0x8, addend: 0x0, symName: __ZN5Model4drawER6Shader, symObjAddr: 0x360, symBinAddr: 0x1000160D0, symSize: 0x88 }
  - { offsetInCU: 0x10044, offset: 0x46EBB, size: 0x8, addend: 0x0, symName: __ZN6Assimp8Importer8ReadFileERKNSt3__112basic_stringIcNS1_11char_traitsIcEENS1_9allocatorIcEEEEj, symObjAddr: 0x43C, symBinAddr: 0x100016158, symSize: 0x44 }
  - { offsetInCU: 0x10089, offset: 0x46F00, size: 0x8, addend: 0x0, symName: __ZNKSt3__112basic_stringIcNS_11char_traitsIcEENS_9allocatorIcEEE6substrB7v160006Emm, symObjAddr: 0x54C, symBinAddr: 0x10001619C, symSize: 0x68 }
  - { offsetInCU: 0x100CC, offset: 0x46F43, size: 0x8, addend: 0x0, symName: __ZNKSt3__112basic_stringIcNS_11char_traitsIcEENS_9allocatorIcEEE12find_last_ofB7v160006Ecm, symObjAddr: 0x5B4, symBinAddr: 0x100016204, symSize: 0x34 }
  - { offsetInCU: 0x10111, offset: 0x46F88, size: 0x8, addend: 0x0, symName: __ZN5Model11processNodeEP6aiNodePK7aiScene, symObjAddr: 0x61C, symBinAddr: 0x100016238, symSize: 0x134 }
  - { offsetInCU: 0x10199, offset: 0x47010, size: 0x8, addend: 0x0, symName: __ZNSt3__16vectorI4MeshNS_9allocatorIS1_EEE9push_backB7v160006EOS1_, symObjAddr: 0x750, symBinAddr: 0x10001636C, symSize: 0x6C }
  - { offsetInCU: 0x101CF, offset: 0x47046, size: 0x8, addend: 0x0, symName: __ZN5Model11processMeshEP6aiMeshPK7aiScene, symObjAddr: 0x7BC, symBinAddr: 0x1000163D8, symSize: 0x84C }
  - { offsetInCU: 0x1033F, offset: 0x471B6, size: 0x8, addend: 0x0, symName: __ZNK6aiMesh10HasNormalsEv, symObjAddr: 0x108C, symBinAddr: 0x100016C24, symSize: 0x54 }
  - { offsetInCU: 0x10364, offset: 0x471DB, size: 0x8, addend: 0x0, symName: __ZNSt3__16vectorI6VertexNS_9allocatorIS1_EEE9push_backB7v160006ERKS1_, symObjAddr: 0x111C, symBinAddr: 0x100016C78, symSize: 0x6C }
  - { offsetInCU: 0x1039A, offset: 0x47211, size: 0x8, addend: 0x0, symName: __ZN6aiFaceC1ERKS_, symObjAddr: 0x1188, symBinAddr: 0x100016CE4, symSize: 0x34 }
  - { offsetInCU: 0x103D1, offset: 0x47248, size: 0x8, addend: 0x0, symName: __ZNSt3__16vectorIjNS_9allocatorIjEEE9push_backB7v160006ERKj, symObjAddr: 0x11BC, symBinAddr: 0x100016D18, symSize: 0x6C }
  - { offsetInCU: 0x10407, offset: 0x4727E, size: 0x8, addend: 0x0, symName: __ZN6aiFaceD1Ev, symObjAddr: 0x1228, symBinAddr: 0x100016D84, symSize: 0x2C }
  - { offsetInCU: 0x10430, offset: 0x472A7, size: 0x8, addend: 0x0, symName: __ZN5Model20loadMaterialTexturesEP10aiMaterial13aiTextureTypeRKNSt3__112basic_stringIcNS3_11char_traitsIcEENS3_9allocatorIcEEEE, symObjAddr: 0x1254, symBinAddr: 0x100016DB0, symSize: 0x2FC }
  - { offsetInCU: 0x10507, offset: 0x4737E, size: 0x8, addend: 0x0, symName: __ZNSt3__16vectorI7TextureNS_9allocatorIS1_EEE6insertINS_11__wrap_iterIPS1_EELi0EEES8_NS6_IPKS1_EET_SC_, symObjAddr: 0x1584, symBinAddr: 0x1000170AC, symSize: 0x328 }
  - { offsetInCU: 0x1061C, offset: 0x47493, size: 0x8, addend: 0x0, symName: __ZNSt3__16vectorI7TextureNS_9allocatorIS1_EEE3endB7v160006Ev, symObjAddr: 0x18AC, symBinAddr: 0x1000173D4, symSize: 0x30 }
  - { offsetInCU: 0x1064D, offset: 0x474C4, size: 0x8, addend: 0x0, symName: __ZNSt3__111__wrap_iterIPK7TextureEC1B7v160006IPS1_EERKNS0_IT_EEPNS_9enable_ifIXsr14is_convertibleIS7_S3_EE5valueEvE4typeE, symObjAddr: 0x18DC, symBinAddr: 0x100017404, symSize: 0x3C }
  - { offsetInCU: 0x10698, offset: 0x4750F, size: 0x8, addend: 0x0, symName: __ZNSt3__16vectorI7TextureNS_9allocatorIS1_EEE5beginB7v160006Ev, symObjAddr: 0x1918, symBinAddr: 0x100017440, symSize: 0x30 }
  - { offsetInCU: 0x106BF, offset: 0x47536, size: 0x8, addend: 0x0, symName: __ZNSt3__16vectorI7TextureNS_9allocatorIS1_EEEC1ERKS4_, symObjAddr: 0x19B0, symBinAddr: 0x100017470, symSize: 0x34 }
  - { offsetInCU: 0x106F9, offset: 0x47570, size: 0x8, addend: 0x0, symName: __ZNK10aiMaterial15GetTextureCountE13aiTextureType, symObjAddr: 0x1A3C, symBinAddr: 0x1000174A4, symSize: 0x2C }
  - { offsetInCU: 0x1072D, offset: 0x475A4, size: 0x8, addend: 0x0, symName: __ZN8aiStringC1Ev, symObjAddr: 0x1A68, symBinAddr: 0x1000174D0, symSize: 0x2C }
  - { offsetInCU: 0x10756, offset: 0x475CD, size: 0x8, addend: 0x0, symName: __ZNK10aiMaterial10GetTextureE13aiTextureTypejP8aiStringP16aiTextureMappingPjPfP11aiTextureOpP16aiTextureMapMode, symObjAddr: 0x1A94, symBinAddr: 0x1000174FC, symSize: 0x74 }
  - { offsetInCU: 0x107EC, offset: 0x47663, size: 0x8, addend: 0x0, symName: __ZNK8aiString5C_StrEv, symObjAddr: 0x1B84, symBinAddr: 0x100017570, symSize: 0x18 }
  - { offsetInCU: 0x10815, offset: 0x4768C, size: 0x8, addend: 0x0, symName: __Z15TextureFromFilePKcRKNSt3__112basic_stringIcNS1_11char_traitsIcEENS1_9allocatorIcEEEEb, symObjAddr: 0x1C34, symBinAddr: 0x100017588, symSize: 0x3A4 }
  - { offsetInCU: 0x108D4, offset: 0x4774B, size: 0x8, addend: 0x0, symName: __ZN6aiFaceC2ERKS_, symObjAddr: 0x2260, symBinAddr: 0x100017A3C, symSize: 0x3C }
  - { offsetInCU: 0x1090B, offset: 0x47782, size: 0x8, addend: 0x0, symName: __ZN6aiFaceaSERKS_, symObjAddr: 0x229C, symBinAddr: 0x100017A78, symSize: 0x100 }
  - { offsetInCU: 0x1093E, offset: 0x477B5, size: 0x8, addend: 0x0, symName: __ZN6aiFaceD2Ev, symObjAddr: 0x239C, symBinAddr: 0x100017B78, symSize: 0x50 }
  - { offsetInCU: 0x10967, offset: 0x477DE, size: 0x8, addend: 0x0, symName: __ZNSt3__111__wrap_iterIPK7TextureEC2B7v160006IPS1_EERKNS0_IT_EEPNS_9enable_ifIXsr14is_convertibleIS7_S3_EE5valueEvE4typeE, symObjAddr: 0x23EC, symBinAddr: 0x100017BC8, symSize: 0x40 }
  - { offsetInCU: 0x109B2, offset: 0x47829, size: 0x8, addend: 0x0, symName: __ZNKSt3__111__wrap_iterIP7TextureE4baseB7v160006Ev, symObjAddr: 0x242C, symBinAddr: 0x100017C08, symSize: 0x18 }
  - { offsetInCU: 0x109D7, offset: 0x4784E, size: 0x8, addend: 0x0, symName: __ZN8aiStringC2Ev, symObjAddr: 0x2444, symBinAddr: 0x100017C20, symSize: 0x40 }
  - { offsetInCU: 0x10A0C, offset: 0x47883, size: 0x8, addend: 0x0, symName: __ZNSt3__16vectorI4MeshNS_9allocatorIS1_EEEC2B7v160006Ev, symObjAddr: 0x4024, symBinAddr: 0x100017C60, symSize: 0x58 }
  - { offsetInCU: 0x10A35, offset: 0x478AC, size: 0x8, addend: 0x0, symName: __ZNSt3__117__compressed_pairIP4MeshNS_9allocatorIS1_EEEC1B7v160006IDnNS_18__default_init_tagEEEOT_OT0_, symObjAddr: 0x407C, symBinAddr: 0x100017CB8, symSize: 0x3C }
  - { offsetInCU: 0x10A8C, offset: 0x47903, size: 0x8, addend: 0x0, symName: __ZNSt3__117__compressed_pairIP4MeshNS_9allocatorIS1_EEEC2B7v160006IDnNS_18__default_init_tagEEEOT_OT0_, symObjAddr: 0x40C8, symBinAddr: 0x100017D04, symSize: 0x40 }
  - { offsetInCU: 0x10AE3, offset: 0x4795A, size: 0x8, addend: 0x0, symName: __ZNSt3__122__compressed_pair_elemIP4MeshLi0ELb0EEC2B7v160006IDnvEEOT_, symObjAddr: 0x4108, symBinAddr: 0x100017D44, symSize: 0x1C }
  - { offsetInCU: 0x10B24, offset: 0x4799B, size: 0x8, addend: 0x0, symName: __ZNSt3__122__compressed_pair_elemINS_9allocatorI4MeshEELi1ELb1EEC2B7v160006ENS_18__default_init_tagE, symObjAddr: 0x4124, symBinAddr: 0x100017D60, symSize: 0x2C }
  - { offsetInCU: 0x10B58, offset: 0x479CF, size: 0x8, addend: 0x0, symName: __ZNSt3__19allocatorI4MeshEC2B7v160006Ev, symObjAddr: 0x4150, symBinAddr: 0x100017D8C, symSize: 0x2C }
  - { offsetInCU: 0x10B81, offset: 0x479F8, size: 0x8, addend: 0x0, symName: __ZNSt3__116__non_trivial_ifILb1ENS_9allocatorI4MeshEEEC2B7v160006Ev, symObjAddr: 0x417C, symBinAddr: 0x100017DB8, symSize: 0x14 }
  - { offsetInCU: 0x10BAA, offset: 0x47A21, size: 0x8, addend: 0x0, symName: __ZNSt3__19allocatorIcEC1B7v160006Ev, symObjAddr: 0x4F10, symBinAddr: 0x100017DCC, symSize: 0x2C }
  - { offsetInCU: 0x10BD3, offset: 0x47A4A, size: 0x8, addend: 0x0, symName: __ZNSt3__16vectorI4MeshNS_9allocatorIS1_EEE9__end_capB7v160006Ev, symObjAddr: 0x4F3C, symBinAddr: 0x100017DF8, symSize: 0x28 }
  - { offsetInCU: 0x10BFE, offset: 0x47A75, size: 0x8, addend: 0x0, symName: __ZNSt3__16vectorI4MeshNS_9allocatorIS1_EEE22__construct_one_at_endB7v160006IJS1_EEEvDpOT_, symObjAddr: 0x4F64, symBinAddr: 0x100017E20, symSize: 0x90 }
  - { offsetInCU: 0x10C4C, offset: 0x47AC3, size: 0x8, addend: 0x0, symName: __ZNSt3__16vectorI4MeshNS_9allocatorIS1_EEE21__push_back_slow_pathIS1_EEvOT_, symObjAddr: 0x4FF4, symBinAddr: 0x100017EB0, symSize: 0xD8 }
  - { offsetInCU: 0x10CA9, offset: 0x47B20, size: 0x8, addend: 0x0, symName: __ZNSt3__117__compressed_pairIP4MeshNS_9allocatorIS1_EEE5firstB7v160006Ev, symObjAddr: 0x50CC, symBinAddr: 0x100017F88, symSize: 0x24 }
  - { offsetInCU: 0x10CCE, offset: 0x47B45, size: 0x8, addend: 0x0, symName: __ZNSt3__122__compressed_pair_elemIP4MeshLi0ELb0EE5__getB7v160006Ev, symObjAddr: 0x50F0, symBinAddr: 0x100017FAC, symSize: 0x14 }
  - { offsetInCU: 0x10D0C, offset: 0x47B83, size: 0x8, addend: 0x0, symName: __ZNSt3__16vectorI4MeshNS_9allocatorIS1_EEE21_ConstructTransactionC1B7v160006ERS4_m, symObjAddr: 0x5104, symBinAddr: 0x100017FC0, symSize: 0x3C }
  - { offsetInCU: 0x10D53, offset: 0x47BCA, size: 0x8, addend: 0x0, symName: __ZNSt3__116allocator_traitsINS_9allocatorI4MeshEEE9constructB7v160006IS2_JS2_EvEEvRS3_PT_DpOT0_, symObjAddr: 0x5140, symBinAddr: 0x100017FFC, symSize: 0x34 }
  - { offsetInCU: 0x10DA9, offset: 0x47C20, size: 0x8, addend: 0x0, symName: __ZNSt3__16vectorI4MeshNS_9allocatorIS1_EEE21_ConstructTransactionD1B7v160006Ev, symObjAddr: 0x5174, symBinAddr: 0x100018030, symSize: 0x2C }
  - { offsetInCU: 0x10DD2, offset: 0x47C49, size: 0x8, addend: 0x0, symName: __ZNSt3__16vectorI4MeshNS_9allocatorIS1_EEE21_ConstructTransactionC2B7v160006ERS4_m, symObjAddr: 0x51A0, symBinAddr: 0x10001805C, symSize: 0x4C }
  - { offsetInCU: 0x10E19, offset: 0x47C90, size: 0x8, addend: 0x0, symName: __ZNSt3__19allocatorI4MeshE9constructB7v160006IS1_JS1_EEEvPT_DpOT0_, symObjAddr: 0x51EC, symBinAddr: 0x1000180A8, symSize: 0x30 }
  - { offsetInCU: 0x10E6E, offset: 0x47CE5, size: 0x8, addend: 0x0, symName: __ZN4MeshC1EOS_, symObjAddr: 0x521C, symBinAddr: 0x1000180D8, symSize: 0x34 }
  - { offsetInCU: 0x10EA1, offset: 0x47D18, size: 0x8, addend: 0x0, symName: __ZN4MeshC2EOS_, symObjAddr: 0x5250, symBinAddr: 0x10001810C, symSize: 0x68 }
  - { offsetInCU: 0x10ED4, offset: 0x47D4B, size: 0x8, addend: 0x0, symName: __ZNSt3__16vectorI6VertexNS_9allocatorIS1_EEEC1B7v160006EOS4_, symObjAddr: 0x52B8, symBinAddr: 0x100018174, symSize: 0x34 }
  - { offsetInCU: 0x10F0E, offset: 0x47D85, size: 0x8, addend: 0x0, symName: __ZNSt3__16vectorIjNS_9allocatorIjEEEC1B7v160006EOS3_, symObjAddr: 0x52EC, symBinAddr: 0x1000181A8, symSize: 0x34 }
  - { offsetInCU: 0x10F48, offset: 0x47DBF, size: 0x8, addend: 0x0, symName: __ZNSt3__16vectorI7TextureNS_9allocatorIS1_EEEC1B7v160006EOS4_, symObjAddr: 0x5320, symBinAddr: 0x1000181DC, symSize: 0x34 }
  - { offsetInCU: 0x10F82, offset: 0x47DF9, size: 0x8, addend: 0x0, symName: __ZNSt3__16vectorI6VertexNS_9allocatorIS1_EEEC2B7v160006EOS4_, symObjAddr: 0x5354, symBinAddr: 0x100018210, symSize: 0xDC }
  - { offsetInCU: 0x10FBC, offset: 0x47E33, size: 0x8, addend: 0x0, symName: __ZNSt3__16vectorIjNS_9allocatorIjEEEC2B7v160006EOS3_, symObjAddr: 0x553C, symBinAddr: 0x1000182EC, symSize: 0xDC }
  - { offsetInCU: 0x10FF6, offset: 0x47E6D, size: 0x8, addend: 0x0, symName: __ZNSt3__16vectorI7TextureNS_9allocatorIS1_EEEC2B7v160006EOS4_, symObjAddr: 0x5724, symBinAddr: 0x1000183C8, symSize: 0xDC }
  - { offsetInCU: 0x11036, offset: 0x47EAD, size: 0x8, addend: 0x0, symName: __ZNSt3__117__compressed_pairIP7TextureNS_9allocatorIS1_EEEC1B7v160006IDnS4_EEOT_OT0_, symObjAddr: 0x5800, symBinAddr: 0x1000184A4, symSize: 0x3C }
  - { offsetInCU: 0x1108D, offset: 0x47F04, size: 0x8, addend: 0x0, symName: __ZNSt3__117__compressed_pairIP7TextureNS_9allocatorIS1_EEEC2B7v160006IDnS4_EEOT_OT0_, symObjAddr: 0x5878, symBinAddr: 0x1000184E0, symSize: 0x44 }
  - { offsetInCU: 0x110E4, offset: 0x47F5B, size: 0x8, addend: 0x0, symName: __ZNSt3__122__compressed_pair_elemINS_9allocatorI7TextureEELi1ELb1EEC2B7v160006IS3_vEEOT_, symObjAddr: 0x58BC, symBinAddr: 0x100018524, symSize: 0x18 }
  - { offsetInCU: 0x11125, offset: 0x47F9C, size: 0x8, addend: 0x0, symName: __ZNSt3__16vectorI4MeshNS_9allocatorIS1_EEE21_ConstructTransactionD2B7v160006Ev, symObjAddr: 0x590C, symBinAddr: 0x10001853C, symSize: 0x20 }
  - { offsetInCU: 0x1114E, offset: 0x47FC5, size: 0x8, addend: 0x0, symName: __ZNKSt3__16vectorI4MeshNS_9allocatorIS1_EEE11__recommendB7v160006Em, symObjAddr: 0x592C, symBinAddr: 0x10001855C, symSize: 0xB4 }
  - { offsetInCU: 0x111A2, offset: 0x48019, size: 0x8, addend: 0x0, symName: __ZNSt3__114__split_bufferI4MeshRNS_9allocatorIS1_EEEC1EmmS4_, symObjAddr: 0x59E0, symBinAddr: 0x100018610, symSize: 0x44 }
  - { offsetInCU: 0x111F7, offset: 0x4806E, size: 0x8, addend: 0x0, symName: __ZNSt3__114__split_bufferI4MeshRNS_9allocatorIS1_EEED1Ev, symObjAddr: 0x5B3C, symBinAddr: 0x10001876C, symSize: 0x2C }
  - { offsetInCU: 0x11222, offset: 0x48099, size: 0x8, addend: 0x0, symName: __ZNKSt3__16vectorI4MeshNS_9allocatorIS1_EEE8max_sizeEv, symObjAddr: 0x5B68, symBinAddr: 0x100018798, symSize: 0x60 }
  - { offsetInCU: 0x11249, offset: 0x480C0, size: 0x8, addend: 0x0, symName: __ZNKSt3__16vectorI4MeshNS_9allocatorIS1_EEE20__throw_length_errorB7v160006Ev, symObjAddr: 0x5BC8, symBinAddr: 0x1000187F8, symSize: 0x1C }
  - { offsetInCU: 0x11278, offset: 0x480EF, size: 0x8, addend: 0x0, symName: __ZNSt3__116allocator_traitsINS_9allocatorI4MeshEEE8max_sizeB7v160006IS3_vEEmRKS3_, symObjAddr: 0x5C3C, symBinAddr: 0x100018814, symSize: 0x24 }
  - { offsetInCU: 0x112A5, offset: 0x4811C, size: 0x8, addend: 0x0, symName: __ZNKSt3__16vectorI4MeshNS_9allocatorIS1_EEE7__allocB7v160006Ev, symObjAddr: 0x5C60, symBinAddr: 0x100018838, symSize: 0x28 }
  - { offsetInCU: 0x112CA, offset: 0x48141, size: 0x8, addend: 0x0, symName: __ZNKSt3__19allocatorI4MeshE8max_sizeB7v160006Ev, symObjAddr: 0x5D24, symBinAddr: 0x100018860, symSize: 0x20 }
  - { offsetInCU: 0x112EF, offset: 0x48166, size: 0x8, addend: 0x0, symName: __ZNKSt3__117__compressed_pairIP4MeshNS_9allocatorIS1_EEE6secondB7v160006Ev, symObjAddr: 0x5D44, symBinAddr: 0x100018880, symSize: 0x24 }
  - { offsetInCU: 0x11314, offset: 0x4818B, size: 0x8, addend: 0x0, symName: __ZNKSt3__122__compressed_pair_elemINS_9allocatorI4MeshEELi1ELb1EE5__getB7v160006Ev, symObjAddr: 0x5D68, symBinAddr: 0x1000188A4, symSize: 0x14 }
  - { offsetInCU: 0x11339, offset: 0x481B0, size: 0x8, addend: 0x0, symName: __ZNSt3__114__split_bufferI4MeshRNS_9allocatorIS1_EEEC2EmmS4_, symObjAddr: 0x5EBC, symBinAddr: 0x1000188B8, symSize: 0xE0 }
  - { offsetInCU: 0x113AB, offset: 0x48222, size: 0x8, addend: 0x0, symName: __ZNSt3__117__compressed_pairIP4MeshRNS_9allocatorIS1_EEEC1B7v160006IDnS5_EEOT_OT0_, symObjAddr: 0x5F9C, symBinAddr: 0x100018998, symSize: 0x3C }
  - { offsetInCU: 0x11402, offset: 0x48279, size: 0x8, addend: 0x0, symName: __ZNSt3__114__split_bufferI4MeshRNS_9allocatorIS1_EEE7__allocB7v160006Ev, symObjAddr: 0x6018, symBinAddr: 0x100018A14, symSize: 0x28 }
  - { offsetInCU: 0x11427, offset: 0x4829E, size: 0x8, addend: 0x0, symName: __ZNSt3__114__split_bufferI4MeshRNS_9allocatorIS1_EEE9__end_capB7v160006Ev, symObjAddr: 0x6040, symBinAddr: 0x100018A3C, symSize: 0x28 }
  - { offsetInCU: 0x1144C, offset: 0x482C3, size: 0x8, addend: 0x0, symName: __ZNSt3__117__compressed_pairIP4MeshRNS_9allocatorIS1_EEEC2B7v160006IDnS5_EEOT_OT0_, symObjAddr: 0x6068, symBinAddr: 0x100018A64, symSize: 0x48 }
  - { offsetInCU: 0x114A3, offset: 0x4831A, size: 0x8, addend: 0x0, symName: __ZNSt3__122__compressed_pair_elemIRNS_9allocatorI4MeshEELi1ELb0EEC2B7v160006IS4_vEEOT_, symObjAddr: 0x60B0, symBinAddr: 0x100018AAC, symSize: 0x20 }
  - { offsetInCU: 0x114E4, offset: 0x4835B, size: 0x8, addend: 0x0, symName: __ZNSt3__19allocatorI4MeshE8allocateB7v160006Em, symObjAddr: 0x60D0, symBinAddr: 0x100018ACC, symSize: 0x5C }
  - { offsetInCU: 0x11517, offset: 0x4838E, size: 0x8, addend: 0x0, symName: __ZNSt3__117__compressed_pairIP4MeshRNS_9allocatorIS1_EEE6secondB7v160006Ev, symObjAddr: 0x6210, symBinAddr: 0x100018B28, symSize: 0x28 }
  - { offsetInCU: 0x1153C, offset: 0x483B3, size: 0x8, addend: 0x0, symName: __ZNSt3__122__compressed_pair_elemIRNS_9allocatorI4MeshEELi1ELb0EE5__getB7v160006Ev, symObjAddr: 0x6238, symBinAddr: 0x100018B50, symSize: 0x18 }
  - { offsetInCU: 0x11561, offset: 0x483D8, size: 0x8, addend: 0x0, symName: __ZNSt3__117__compressed_pairIP4MeshRNS_9allocatorIS1_EEE5firstB7v160006Ev, symObjAddr: 0x6250, symBinAddr: 0x100018B68, symSize: 0x24 }
  - { offsetInCU: 0x11586, offset: 0x483FD, size: 0x8, addend: 0x0, symName: __ZNSt3__116reverse_iteratorIP4MeshEC1B7v160006ES2_, symObjAddr: 0x63A0, symBinAddr: 0x100018CB8, symSize: 0x34 }
  - { offsetInCU: 0x115BD, offset: 0x48434, size: 0x8, addend: 0x0, symName: __ZNKSt3__116reverse_iteratorIP4MeshE4baseB7v160006Ev, symObjAddr: 0x63D4, symBinAddr: 0x100018CEC, symSize: 0x18 }
  - { offsetInCU: 0x115E2, offset: 0x48459, size: 0x8, addend: 0x0, symName: __ZNKSt3__16vectorI4MeshNS_9allocatorIS1_EEE14__annotate_newB7v160006Em, symObjAddr: 0x6428, symBinAddr: 0x100018D40, symSize: 0xC8 }
  - { offsetInCU: 0x11616, offset: 0x4848D, size: 0x8, addend: 0x0, symName: __ZNSt3__129_AllocatorDestroyRangeReverseINS_9allocatorI4MeshEENS_16reverse_iteratorIPS2_EEEC1B7v160006ERS3_RS6_S9_, symObjAddr: 0x654C, symBinAddr: 0x100018E64, symSize: 0x44 }
  - { offsetInCU: 0x1166C, offset: 0x484E3, size: 0x8, addend: 0x0, symName: __ZNKSt3__116reverse_iteratorIP4MeshEdeB7v160006Ev, symObjAddr: 0x65FC, symBinAddr: 0x100018F14, symSize: 0x28 }
  - { offsetInCU: 0x1169F, offset: 0x48516, size: 0x8, addend: 0x0, symName: __ZNSt3__116reverse_iteratorIP4MeshEppB7v160006Ev, symObjAddr: 0x6624, symBinAddr: 0x100018F3C, symSize: 0x20 }
  - { offsetInCU: 0x116C4, offset: 0x4853B, size: 0x8, addend: 0x0, symName: __ZNSt3__128__exception_guard_exceptionsINS_29_AllocatorDestroyRangeReverseINS_9allocatorI4MeshEENS_16reverse_iteratorIPS3_EEEEE10__completeB7v160006Ev, symObjAddr: 0x6644, symBinAddr: 0x100018F5C, symSize: 0x1C }
  - { offsetInCU: 0x116E9, offset: 0x48560, size: 0x8, addend: 0x0, symName: __ZNSt3__128__exception_guard_exceptionsINS_29_AllocatorDestroyRangeReverseINS_9allocatorI4MeshEENS_16reverse_iteratorIPS3_EEEEED1B7v160006Ev, symObjAddr: 0x6660, symBinAddr: 0x100018F78, symSize: 0x2C }
  - { offsetInCU: 0x11712, offset: 0x48589, size: 0x8, addend: 0x0, symName: __ZNSt3__128__exception_guard_exceptionsINS_29_AllocatorDestroyRangeReverseINS_9allocatorI4MeshEENS_16reverse_iteratorIPS3_EEEEEC1B7v160006ES8_, symObjAddr: 0x668C, symBinAddr: 0x100018FA4, symSize: 0x34 }
  - { offsetInCU: 0x1174A, offset: 0x485C1, size: 0x8, addend: 0x0, symName: __ZNSt3__128__exception_guard_exceptionsINS_29_AllocatorDestroyRangeReverseINS_9allocatorI4MeshEENS_16reverse_iteratorIPS3_EEEEEC2B7v160006ES8_, symObjAddr: 0x66C0, symBinAddr: 0x100018FD8, symSize: 0x30 }
  - { offsetInCU: 0x11782, offset: 0x485F9, size: 0x8, addend: 0x0, symName: __ZNSt3__129_AllocatorDestroyRangeReverseINS_9allocatorI4MeshEENS_16reverse_iteratorIPS2_EEEC2B7v160006ERS3_RS6_S9_, symObjAddr: 0x66F0, symBinAddr: 0x100019008, symSize: 0x38 }
  - { offsetInCU: 0x117DD, offset: 0x48654, size: 0x8, addend: 0x0, symName: __ZNSt3__119__to_address_helperINS_16reverse_iteratorIP4MeshEEvE6__callB7v160006ERKS4_, symObjAddr: 0x6728, symBinAddr: 0x100019040, symSize: 0x38 }
  - { offsetInCU: 0x117FF, offset: 0x48676, size: 0x8, addend: 0x0, symName: __ZNKSt3__116reverse_iteratorIP4MeshEptB7v160006Ev, symObjAddr: 0x6760, symBinAddr: 0x100019078, symSize: 0x24 }
  - { offsetInCU: 0x11824, offset: 0x4869B, size: 0x8, addend: 0x0, symName: __ZNSt3__128__exception_guard_exceptionsINS_29_AllocatorDestroyRangeReverseINS_9allocatorI4MeshEENS_16reverse_iteratorIPS3_EEEEED2B7v160006Ev, symObjAddr: 0x6784, symBinAddr: 0x10001909C, symSize: 0x50 }
  - { offsetInCU: 0x1184D, offset: 0x486C4, size: 0x8, addend: 0x0, symName: __ZNKSt3__129_AllocatorDestroyRangeReverseINS_9allocatorI4MeshEENS_16reverse_iteratorIPS2_EEEclB7v160006Ev, symObjAddr: 0x67D4, symBinAddr: 0x1000190EC, symSize: 0xB4 }
  - { offsetInCU: 0x11873, offset: 0x486EA, size: 0x8, addend: 0x0, symName: __ZNSt3__116reverse_iteratorINS0_IP4MeshEEEC1B7v160006ES3_, symObjAddr: 0x68F8, symBinAddr: 0x100019210, symSize: 0x3C }
  - { offsetInCU: 0x118AA, offset: 0x48721, size: 0x8, addend: 0x0, symName: __ZNSt3__116reverse_iteratorINS0_IP4MeshEEEppB7v160006Ev, symObjAddr: 0x69B8, symBinAddr: 0x1000192D0, symSize: 0x30 }
  - { offsetInCU: 0x118CF, offset: 0x48746, size: 0x8, addend: 0x0, symName: __ZNKSt3__116reverse_iteratorINS0_IP4MeshEEE4baseB7v160006Ev, symObjAddr: 0x69E8, symBinAddr: 0x100019300, symSize: 0x24 }
  - { offsetInCU: 0x118F9, offset: 0x48770, size: 0x8, addend: 0x0, symName: __ZNSt3__119__to_address_helperINS_16reverse_iteratorINS1_IP4MeshEEEEvE6__callB7v160006ERKS5_, symObjAddr: 0x6A0C, symBinAddr: 0x100019324, symSize: 0x38 }
  - { offsetInCU: 0x1191B, offset: 0x48792, size: 0x8, addend: 0x0, symName: __ZNKSt3__116reverse_iteratorINS0_IP4MeshEEEptB7v160006Ev, symObjAddr: 0x6A44, symBinAddr: 0x10001935C, symSize: 0x24 }
  - { offsetInCU: 0x11940, offset: 0x487B7, size: 0x8, addend: 0x0, symName: __ZNKSt3__116reverse_iteratorINS0_IP4MeshEEEdeB7v160006Ev, symObjAddr: 0x6A68, symBinAddr: 0x100019380, symSize: 0x34 }
  - { offsetInCU: 0x11973, offset: 0x487EA, size: 0x8, addend: 0x0, symName: __ZNSt3__116reverse_iteratorIP4MeshEmmB7v160006Ev, symObjAddr: 0x6A9C, symBinAddr: 0x1000193B4, symSize: 0x20 }
  - { offsetInCU: 0x11998, offset: 0x4880F, size: 0x8, addend: 0x0, symName: __ZNSt3__116reverse_iteratorINS0_IP4MeshEEEC2B7v160006ES3_, symObjAddr: 0x6ABC, symBinAddr: 0x1000193D4, symSize: 0x2C }
  - { offsetInCU: 0x119CF, offset: 0x48846, size: 0x8, addend: 0x0, symName: __ZNSt3__116reverse_iteratorIP4MeshEC2B7v160006ES2_, symObjAddr: 0x6AE8, symBinAddr: 0x100019400, symSize: 0x28 }
  - { offsetInCU: 0x11A06, offset: 0x4887D, size: 0x8, addend: 0x0, symName: __ZNSt3__114__split_bufferI4MeshRNS_9allocatorIS1_EEED2Ev, symObjAddr: 0x6B10, symBinAddr: 0x100019428, symSize: 0x8C }
  - { offsetInCU: 0x11A31, offset: 0x488A8, size: 0x8, addend: 0x0, symName: __ZNSt3__114__split_bufferI4MeshRNS_9allocatorIS1_EEE5clearB7v160006Ev, symObjAddr: 0x6B9C, symBinAddr: 0x1000194B4, symSize: 0x28 }
  - { offsetInCU: 0x11A56, offset: 0x488CD, size: 0x8, addend: 0x0, symName: __ZNKSt3__114__split_bufferI4MeshRNS_9allocatorIS1_EEE8capacityB7v160006Ev, symObjAddr: 0x6BC4, symBinAddr: 0x1000194DC, symSize: 0x40 }
  - { offsetInCU: 0x11A7B, offset: 0x488F2, size: 0x8, addend: 0x0, symName: __ZNSt3__114__split_bufferI4MeshRNS_9allocatorIS1_EEE17__destruct_at_endB7v160006EPS1_, symObjAddr: 0x6C04, symBinAddr: 0x10001951C, symSize: 0x2C }
  - { offsetInCU: 0x11AAE, offset: 0x48925, size: 0x8, addend: 0x0, symName: __ZNSt3__114__split_bufferI4MeshRNS_9allocatorIS1_EEE17__destruct_at_endB7v160006EPS1_NS_17integral_constantIbLb0EEE, symObjAddr: 0x6C30, symBinAddr: 0x100019548, symSize: 0x80 }
  - { offsetInCU: 0x11AEE, offset: 0x48965, size: 0x8, addend: 0x0, symName: __ZNKSt3__114__split_bufferI4MeshRNS_9allocatorIS1_EEE9__end_capB7v160006Ev, symObjAddr: 0x6CB0, symBinAddr: 0x1000195C8, symSize: 0x28 }
  - { offsetInCU: 0x11B13, offset: 0x4898A, size: 0x8, addend: 0x0, symName: __ZNKSt3__117__compressed_pairIP4MeshRNS_9allocatorIS1_EEE5firstB7v160006Ev, symObjAddr: 0x6CD8, symBinAddr: 0x1000195F0, symSize: 0x24 }
  - { offsetInCU: 0x11B38, offset: 0x489AF, size: 0x8, addend: 0x0, symName: __ZNSt3__16vectorI6VertexNS_9allocatorIS1_EEE22__construct_one_at_endB7v160006IJRKS1_EEEvDpOT_, symObjAddr: 0x6CFC, symBinAddr: 0x100019614, symSize: 0x90 }
  - { offsetInCU: 0x11B86, offset: 0x489FD, size: 0x8, addend: 0x0, symName: __ZNSt3__16vectorI6VertexNS_9allocatorIS1_EEE21__push_back_slow_pathIRKS1_EEvOT_, symObjAddr: 0x6D8C, symBinAddr: 0x1000196A4, symSize: 0xD8 }
  - { offsetInCU: 0x11BFC, offset: 0x48A73, size: 0x8, addend: 0x0, symName: __ZNSt3__116allocator_traitsINS_9allocatorI6VertexEEE9constructB7v160006IS2_JRKS2_EvEEvRS3_PT_DpOT0_, symObjAddr: 0x6EA0, symBinAddr: 0x10001977C, symSize: 0x34 }
  - { offsetInCU: 0x11C52, offset: 0x48AC9, size: 0x8, addend: 0x0, symName: __ZNSt3__19allocatorI6VertexE9constructB7v160006IS1_JRKS1_EEEvPT_DpOT0_, symObjAddr: 0x6F4C, symBinAddr: 0x1000197B0, symSize: 0x34 }
  - { offsetInCU: 0x11CA7, offset: 0x48B1E, size: 0x8, addend: 0x0, symName: __ZNSt3__114__split_bufferI6VertexRNS_9allocatorIS1_EEEC1EmmS4_, symObjAddr: 0x7054, symBinAddr: 0x1000197E4, symSize: 0x44 }
  - { offsetInCU: 0x11CFC, offset: 0x48B73, size: 0x8, addend: 0x0, symName: __ZNSt3__114__split_bufferI6VertexRNS_9allocatorIS1_EEED1Ev, symObjAddr: 0x71B0, symBinAddr: 0x100019940, symSize: 0x2C }
  - { offsetInCU: 0x11D31, offset: 0x48BA8, size: 0x8, addend: 0x0, symName: __ZNSt3__114__split_bufferI6VertexRNS_9allocatorIS1_EEEC2EmmS4_, symObjAddr: 0x72FC, symBinAddr: 0x10001996C, symSize: 0xE0 }
  - { offsetInCU: 0x11DA3, offset: 0x48C1A, size: 0x8, addend: 0x0, symName: __ZNSt3__117__compressed_pairIP6VertexRNS_9allocatorIS1_EEEC1B7v160006IDnS5_EEOT_OT0_, symObjAddr: 0x73DC, symBinAddr: 0x100019A4C, symSize: 0x3C }
  - { offsetInCU: 0x11DFA, offset: 0x48C71, size: 0x8, addend: 0x0, symName: __ZNSt3__114__split_bufferI6VertexRNS_9allocatorIS1_EEE7__allocB7v160006Ev, symObjAddr: 0x7458, symBinAddr: 0x100019A88, symSize: 0x28 }
  - { offsetInCU: 0x11E1F, offset: 0x48C96, size: 0x8, addend: 0x0, symName: __ZNSt3__114__split_bufferI6VertexRNS_9allocatorIS1_EEE9__end_capB7v160006Ev, symObjAddr: 0x7480, symBinAddr: 0x100019AB0, symSize: 0x28 }
  - { offsetInCU: 0x11E44, offset: 0x48CBB, size: 0x8, addend: 0x0, symName: __ZNSt3__117__compressed_pairIP6VertexRNS_9allocatorIS1_EEEC2B7v160006IDnS5_EEOT_OT0_, symObjAddr: 0x74A8, symBinAddr: 0x100019AD8, symSize: 0x48 }
  - { offsetInCU: 0x11E9B, offset: 0x48D12, size: 0x8, addend: 0x0, symName: __ZNSt3__122__compressed_pair_elemIRNS_9allocatorI6VertexEELi1ELb0EEC2B7v160006IS4_vEEOT_, symObjAddr: 0x74F0, symBinAddr: 0x100019B20, symSize: 0x20 }
  - { offsetInCU: 0x11EDC, offset: 0x48D53, size: 0x8, addend: 0x0, symName: __ZNSt3__117__compressed_pairIP6VertexRNS_9allocatorIS1_EEE6secondB7v160006Ev, symObjAddr: 0x756C, symBinAddr: 0x100019B40, symSize: 0x28 }
  - { offsetInCU: 0x11F01, offset: 0x48D78, size: 0x8, addend: 0x0, symName: __ZNSt3__122__compressed_pair_elemIRNS_9allocatorI6VertexEELi1ELb0EE5__getB7v160006Ev, symObjAddr: 0x7594, symBinAddr: 0x100019B68, symSize: 0x18 }
  - { offsetInCU: 0x11F26, offset: 0x48D9D, size: 0x8, addend: 0x0, symName: __ZNSt3__117__compressed_pairIP6VertexRNS_9allocatorIS1_EEE5firstB7v160006Ev, symObjAddr: 0x75AC, symBinAddr: 0x100019B80, symSize: 0x24 }
  - { offsetInCU: 0x11F6F, offset: 0x48DE6, size: 0x8, addend: 0x0, symName: __ZNKSt3__111__move_loopINS_17_ClassicAlgPolicyEEclB7v160006INS_16reverse_iteratorIP6VertexEES7_S7_EENS_4pairIT_T1_EES9_T0_SA_, symObjAddr: 0x7A98, symBinAddr: 0x100019F48, symSize: 0x9C }
  - { offsetInCU: 0x11FDF, offset: 0x48E56, size: 0x8, addend: 0x0, symName: __ZNSt3__18_IterOpsINS_17_ClassicAlgPolicyEE11__iter_moveB7v160006IRNS_16reverse_iteratorIP6VertexEEEENS_9enable_ifIXsr12is_referenceIDTdeclsr3stdE7declvalIRT_EEEEE5valueEDTclsr3stdE4movedeclsr3stdE7declvalISB_EEEEE4typeEOSA_, symObjAddr: 0x7CC8, symBinAddr: 0x10001A130, symSize: 0x28 }
  - { offsetInCU: 0x1200A, offset: 0x48E81, size: 0x8, addend: 0x0, symName: __ZNSt3__18_IterOpsINS_17_ClassicAlgPolicyEE25__validate_iter_referenceB7v160006IRNS_16reverse_iteratorIP6VertexEEEEvv, symObjAddr: 0x7D38, symBinAddr: 0x10001A158, symSize: 0x4 }
  - { offsetInCU: 0x12028, offset: 0x48E9F, size: 0x8, addend: 0x0, symName: __ZNSt3__118__unwrap_iter_implINS_16reverse_iteratorIP6VertexEELb0EE8__unwrapB7v160006ES4_, symObjAddr: 0x7D3C, symBinAddr: 0x10001A15C, symSize: 0x24 }
  - { offsetInCU: 0x12051, offset: 0x48EC8, size: 0x8, addend: 0x0, symName: __ZNSt3__14pairINS_16reverse_iteratorIP6VertexEES4_EC1B7v160006IS4_S4_LPv0EEEOT_OT0_, symObjAddr: 0x7D60, symBinAddr: 0x10001A180, symSize: 0x3C }
  - { offsetInCU: 0x120AE, offset: 0x48F25, size: 0x8, addend: 0x0, symName: __ZNSt3__14pairINS_16reverse_iteratorIP6VertexEES4_EC2B7v160006IS4_S4_LPv0EEEOT_OT0_, symObjAddr: 0x7D9C, symBinAddr: 0x10001A1BC, symSize: 0x34 }
  - { offsetInCU: 0x1210B, offset: 0x48F82, size: 0x8, addend: 0x0, symName: __ZNSt3__118__unwrap_iter_implINS_16reverse_iteratorIP6VertexEELb0EE8__rewrapB7v160006ES4_S4_, symObjAddr: 0x7DD0, symBinAddr: 0x10001A1F0, symSize: 0x2C }
  - { offsetInCU: 0x12139, offset: 0x48FB0, size: 0x8, addend: 0x0, symName: __ZNSt3__114__split_bufferI6VertexRNS_9allocatorIS1_EEED2Ev, symObjAddr: 0x7E24, symBinAddr: 0x10001A21C, symSize: 0x8C }
  - { offsetInCU: 0x12164, offset: 0x48FDB, size: 0x8, addend: 0x0, symName: __ZNSt3__114__split_bufferI6VertexRNS_9allocatorIS1_EEE5clearB7v160006Ev, symObjAddr: 0x7EB0, symBinAddr: 0x10001A2A8, symSize: 0x28 }
  - { offsetInCU: 0x12189, offset: 0x49000, size: 0x8, addend: 0x0, symName: __ZNKSt3__114__split_bufferI6VertexRNS_9allocatorIS1_EEE8capacityB7v160006Ev, symObjAddr: 0x7ED8, symBinAddr: 0x10001A2D0, symSize: 0x40 }
  - { offsetInCU: 0x121AE, offset: 0x49025, size: 0x8, addend: 0x0, symName: __ZNSt3__114__split_bufferI6VertexRNS_9allocatorIS1_EEE17__destruct_at_endB7v160006EPS1_, symObjAddr: 0x7F18, symBinAddr: 0x10001A310, symSize: 0x2C }
  - { offsetInCU: 0x121E1, offset: 0x49058, size: 0x8, addend: 0x0, symName: __ZNSt3__114__split_bufferI6VertexRNS_9allocatorIS1_EEE17__destruct_at_endB7v160006EPS1_NS_17integral_constantIbLb0EEE, symObjAddr: 0x7F44, symBinAddr: 0x10001A33C, symSize: 0x80 }
  - { offsetInCU: 0x12221, offset: 0x49098, size: 0x8, addend: 0x0, symName: __ZNKSt3__114__split_bufferI6VertexRNS_9allocatorIS1_EEE9__end_capB7v160006Ev, symObjAddr: 0x7FC4, symBinAddr: 0x10001A3BC, symSize: 0x28 }
  - { offsetInCU: 0x12246, offset: 0x490BD, size: 0x8, addend: 0x0, symName: __ZNKSt3__117__compressed_pairIP6VertexRNS_9allocatorIS1_EEE5firstB7v160006Ev, symObjAddr: 0x7FEC, symBinAddr: 0x10001A3E4, symSize: 0x24 }
  - { offsetInCU: 0x1226B, offset: 0x490E2, size: 0x8, addend: 0x0, symName: __ZNSt3__16vectorIjNS_9allocatorIjEEE22__construct_one_at_endB7v160006IJRKjEEEvDpOT_, symObjAddr: 0x8010, symBinAddr: 0x10001A408, symSize: 0x90 }
  - { offsetInCU: 0x122B9, offset: 0x49130, size: 0x8, addend: 0x0, symName: __ZNSt3__16vectorIjNS_9allocatorIjEEE21__push_back_slow_pathIRKjEEvOT_, symObjAddr: 0x80A0, symBinAddr: 0x10001A498, symSize: 0xD8 }
  - { offsetInCU: 0x1232F, offset: 0x491A6, size: 0x8, addend: 0x0, symName: __ZNSt3__116allocator_traitsINS_9allocatorIjEEE9constructB7v160006IjJRKjEvEEvRS2_PT_DpOT0_, symObjAddr: 0x81B4, symBinAddr: 0x10001A570, symSize: 0x34 }
  - { offsetInCU: 0x12385, offset: 0x491FC, size: 0x8, addend: 0x0, symName: __ZNSt3__19allocatorIjE9constructB7v160006IjJRKjEEEvPT_DpOT0_, symObjAddr: 0x8258, symBinAddr: 0x10001A5A4, symSize: 0x28 }
  - { offsetInCU: 0x123DA, offset: 0x49251, size: 0x8, addend: 0x0, symName: __ZNSt3__114__split_bufferIjRNS_9allocatorIjEEEC1EmmS3_, symObjAddr: 0x8354, symBinAddr: 0x10001A5CC, symSize: 0x44 }
  - { offsetInCU: 0x1242F, offset: 0x492A6, size: 0x8, addend: 0x0, symName: __ZNSt3__114__split_bufferIjRNS_9allocatorIjEEED1Ev, symObjAddr: 0x84B0, symBinAddr: 0x10001A728, symSize: 0x2C }
  - { offsetInCU: 0x12464, offset: 0x492DB, size: 0x8, addend: 0x0, symName: __ZNSt3__114__split_bufferIjRNS_9allocatorIjEEEC2EmmS3_, symObjAddr: 0x85F0, symBinAddr: 0x10001A754, symSize: 0xD4 }
  - { offsetInCU: 0x124D6, offset: 0x4934D, size: 0x8, addend: 0x0, symName: __ZNSt3__117__compressed_pairIPjRNS_9allocatorIjEEEC1B7v160006IDnS4_EEOT_OT0_, symObjAddr: 0x86C4, symBinAddr: 0x10001A828, symSize: 0x3C }
  - { offsetInCU: 0x1252D, offset: 0x493A4, size: 0x8, addend: 0x0, symName: __ZNSt3__114__split_bufferIjRNS_9allocatorIjEEE7__allocB7v160006Ev, symObjAddr: 0x8740, symBinAddr: 0x10001A864, symSize: 0x28 }
  - { offsetInCU: 0x12552, offset: 0x493C9, size: 0x8, addend: 0x0, symName: __ZNSt3__114__split_bufferIjRNS_9allocatorIjEEE9__end_capB7v160006Ev, symObjAddr: 0x8768, symBinAddr: 0x10001A88C, symSize: 0x28 }
  - { offsetInCU: 0x12577, offset: 0x493EE, size: 0x8, addend: 0x0, symName: __ZNSt3__117__compressed_pairIPjRNS_9allocatorIjEEEC2B7v160006IDnS4_EEOT_OT0_, symObjAddr: 0x8790, symBinAddr: 0x10001A8B4, symSize: 0x48 }
  - { offsetInCU: 0x125CE, offset: 0x49445, size: 0x8, addend: 0x0, symName: __ZNSt3__122__compressed_pair_elemIRNS_9allocatorIjEELi1ELb0EEC2B7v160006IS3_vEEOT_, symObjAddr: 0x87D8, symBinAddr: 0x10001A8FC, symSize: 0x20 }
  - { offsetInCU: 0x1260F, offset: 0x49486, size: 0x8, addend: 0x0, symName: __ZNSt3__117__compressed_pairIPjRNS_9allocatorIjEEE6secondB7v160006Ev, symObjAddr: 0x8850, symBinAddr: 0x10001A91C, symSize: 0x28 }
  - { offsetInCU: 0x12634, offset: 0x494AB, size: 0x8, addend: 0x0, symName: __ZNSt3__122__compressed_pair_elemIRNS_9allocatorIjEELi1ELb0EE5__getB7v160006Ev, symObjAddr: 0x8878, symBinAddr: 0x10001A944, symSize: 0x18 }
  - { offsetInCU: 0x12659, offset: 0x494D0, size: 0x8, addend: 0x0, symName: __ZNSt3__117__compressed_pairIPjRNS_9allocatorIjEEE5firstB7v160006Ev, symObjAddr: 0x8890, symBinAddr: 0x10001A95C, symSize: 0x24 }
  - { offsetInCU: 0x12698, offset: 0x4950F, size: 0x8, addend: 0x0, symName: __ZNKSt3__111__move_loopINS_17_ClassicAlgPolicyEEclB7v160006INS_16reverse_iteratorIPjEES6_S6_EENS_4pairIT_T1_EES8_T0_S9_, symObjAddr: 0x8D60, symBinAddr: 0x10001AD24, symSize: 0xA0 }
  - { offsetInCU: 0x12708, offset: 0x4957F, size: 0x8, addend: 0x0, symName: __ZNSt3__18_IterOpsINS_17_ClassicAlgPolicyEE11__iter_moveB7v160006IRNS_16reverse_iteratorIPjEEEENS_9enable_ifIXsr12is_referenceIDTdeclsr3stdE7declvalIRT_EEEEE5valueEDTclsr3stdE4movedeclsr3stdE7declvalISA_EEEEE4typeEOS9_, symObjAddr: 0x8F94, symBinAddr: 0x10001AF10, symSize: 0x28 }
  - { offsetInCU: 0x12733, offset: 0x495AA, size: 0x8, addend: 0x0, symName: __ZNSt3__18_IterOpsINS_17_ClassicAlgPolicyEE25__validate_iter_referenceB7v160006IRNS_16reverse_iteratorIPjEEEEvv, symObjAddr: 0x9004, symBinAddr: 0x10001AF38, symSize: 0x4 }
  - { offsetInCU: 0x12751, offset: 0x495C8, size: 0x8, addend: 0x0, symName: __ZNSt3__118__unwrap_iter_implINS_16reverse_iteratorIPjEELb0EE8__unwrapB7v160006ES3_, symObjAddr: 0x9008, symBinAddr: 0x10001AF3C, symSize: 0x24 }
  - { offsetInCU: 0x1277A, offset: 0x495F1, size: 0x8, addend: 0x0, symName: __ZNSt3__14pairINS_16reverse_iteratorIPjEES3_EC1B7v160006IS3_S3_LPv0EEEOT_OT0_, symObjAddr: 0x902C, symBinAddr: 0x10001AF60, symSize: 0x3C }
  - { offsetInCU: 0x127D7, offset: 0x4964E, size: 0x8, addend: 0x0, symName: __ZNSt3__14pairINS_16reverse_iteratorIPjEES3_EC2B7v160006IS3_S3_LPv0EEEOT_OT0_, symObjAddr: 0x9068, symBinAddr: 0x10001AF9C, symSize: 0x34 }
  - { offsetInCU: 0x12834, offset: 0x496AB, size: 0x8, addend: 0x0, symName: __ZNSt3__118__unwrap_iter_implINS_16reverse_iteratorIPjEELb0EE8__rewrapB7v160006ES3_S3_, symObjAddr: 0x909C, symBinAddr: 0x10001AFD0, symSize: 0x2C }
  - { offsetInCU: 0x12862, offset: 0x496D9, size: 0x8, addend: 0x0, symName: __ZNSt3__114__split_bufferIjRNS_9allocatorIjEEED2Ev, symObjAddr: 0x90F0, symBinAddr: 0x10001AFFC, symSize: 0x8C }
  - { offsetInCU: 0x1288D, offset: 0x49704, size: 0x8, addend: 0x0, symName: __ZNSt3__114__split_bufferIjRNS_9allocatorIjEEE5clearB7v160006Ev, symObjAddr: 0x917C, symBinAddr: 0x10001B088, symSize: 0x28 }
  - { offsetInCU: 0x128B2, offset: 0x49729, size: 0x8, addend: 0x0, symName: __ZNKSt3__114__split_bufferIjRNS_9allocatorIjEEE8capacityB7v160006Ev, symObjAddr: 0x91A4, symBinAddr: 0x10001B0B0, symSize: 0x40 }
  - { offsetInCU: 0x128D7, offset: 0x4974E, size: 0x8, addend: 0x0, symName: __ZNSt3__114__split_bufferIjRNS_9allocatorIjEEE17__destruct_at_endB7v160006EPj, symObjAddr: 0x91E4, symBinAddr: 0x10001B0F0, symSize: 0x2C }
  - { offsetInCU: 0x1290A, offset: 0x49781, size: 0x8, addend: 0x0, symName: __ZNSt3__114__split_bufferIjRNS_9allocatorIjEEE17__destruct_at_endB7v160006EPjNS_17integral_constantIbLb0EEE, symObjAddr: 0x9210, symBinAddr: 0x10001B11C, symSize: 0x80 }
  - { offsetInCU: 0x1294A, offset: 0x497C1, size: 0x8, addend: 0x0, symName: __ZNKSt3__114__split_bufferIjRNS_9allocatorIjEEE9__end_capB7v160006Ev, symObjAddr: 0x9290, symBinAddr: 0x10001B19C, symSize: 0x28 }
  - { offsetInCU: 0x1296F, offset: 0x497E6, size: 0x8, addend: 0x0, symName: __ZNKSt3__117__compressed_pairIPjRNS_9allocatorIjEEE5firstB7v160006Ev, symObjAddr: 0x92B8, symBinAddr: 0x10001B1C4, symSize: 0x24 }
  - { offsetInCU: 0x12994, offset: 0x4980B, size: 0x8, addend: 0x0, symName: __ZNSt3__16vectorI7TextureNS_9allocatorIS1_EEE11__make_iterB7v160006EPS1_, symObjAddr: 0x933C, symBinAddr: 0x10001B1E8, symSize: 0x34 }
  - { offsetInCU: 0x129C8, offset: 0x4983F, size: 0x8, addend: 0x0, symName: __ZNSt3__111__wrap_iterIP7TextureEC1B7v160006EPKvS2_, symObjAddr: 0x9370, symBinAddr: 0x10001B21C, symSize: 0x3C }
  - { offsetInCU: 0x12A0D, offset: 0x49884, size: 0x8, addend: 0x0, symName: __ZNSt3__111__wrap_iterIP7TextureEC2B7v160006EPKvS2_, symObjAddr: 0x93AC, symBinAddr: 0x10001B258, symSize: 0x24 }
  - { offsetInCU: 0x12A52, offset: 0x498C9, size: 0x8, addend: 0x0, symName: __ZNSt3__16vectorI7TextureNS_9allocatorIS1_EEE18__construct_at_endINS_11__wrap_iterIPS1_EELi0EEEvT_S9_m, symObjAddr: 0x94A4, symBinAddr: 0x10001B350, symSize: 0x9C }
  - { offsetInCU: 0x12AC4, offset: 0x4993B, size: 0x8, addend: 0x0, symName: __ZNSt3__16vectorI7TextureNS_9allocatorIS1_EEE12__move_rangeEPS1_S5_S5_, symObjAddr: 0x9540, symBinAddr: 0x10001B3EC, symSize: 0x13C }
  - { offsetInCU: 0x12B7F, offset: 0x499F6, size: 0x8, addend: 0x0, symName: __ZNSt3__114__split_bufferI7TextureRNS_9allocatorIS1_EEE18__construct_at_endINS_11__wrap_iterIPS1_EEEENS_9enable_ifIXsr27__is_cpp17_forward_iteratorIT_EE5valueEvE4typeESB_SB_, symObjAddr: 0x97C4, symBinAddr: 0x10001B578, symSize: 0xF0 }
  - { offsetInCU: 0x12BDA, offset: 0x49A51, size: 0x8, addend: 0x0, symName: __ZNKSt3__111__wrap_iterIPK7TextureE4baseB7v160006Ev, symObjAddr: 0x9A34, symBinAddr: 0x10001B7BC, symSize: 0x18 }
  - { offsetInCU: 0x12BFF, offset: 0x49A76, size: 0x8, addend: 0x0, symName: __ZNSt3__111__wrap_iterIP7TextureEpLB7v160006El, symObjAddr: 0x9B04, symBinAddr: 0x10001B88C, symSize: 0x30 }
  - { offsetInCU: 0x12C4B, offset: 0x49AC2, size: 0x8, addend: 0x0, symName: __ZNKSt3__111__wrap_iterIP7TextureEdeB7v160006Ev, symObjAddr: 0x9DD8, symBinAddr: 0x10001B9E8, symSize: 0x18 }
  - { offsetInCU: 0x12C70, offset: 0x49AE7, size: 0x8, addend: 0x0, symName: __ZNSt3__111__wrap_iterIP7TextureEppB7v160006Ev, symObjAddr: 0x9DF0, symBinAddr: 0x10001BA00, symSize: 0x20 }
  - { offsetInCU: 0x12CBF, offset: 0x49B36, size: 0x8, addend: 0x0, symName: __ZNKSt3__120__move_backward_loopINS_17_ClassicAlgPolicyEEclB7v160006IP7TextureS5_S5_EENS_4pairIT_T1_EES7_T0_S8_, symObjAddr: 0xA68C, symBinAddr: 0x10001BBE4, symSize: 0xA4 }
  - { offsetInCU: 0x12D45, offset: 0x49BBC, size: 0x8, addend: 0x0, symName: __ZNSt3__18_IterOpsINS_17_ClassicAlgPolicyEE4nextB7v160006IP7TextureEET_S6_S6_, symObjAddr: 0xA7F4, symBinAddr: 0x10001BC88, symSize: 0x18 }
  - { offsetInCU: 0x12D7C, offset: 0x49BF3, size: 0x8, addend: 0x0, symName: __ZNSt3__18_IterOpsINS_17_ClassicAlgPolicyEE11__iter_moveB7v160006IRP7TextureEENS_9enable_ifIXsr12is_referenceIDTdeclsr3stdE7declvalIRT_EEEEE5valueEDTclsr3stdE4movedeclsr3stdE7declvalIS9_EEEEE4typeEOS8_, symObjAddr: 0xA80C, symBinAddr: 0x10001BCA0, symSize: 0x28 }
  - { offsetInCU: 0x12DA7, offset: 0x49C1E, size: 0x8, addend: 0x0, symName: __ZN7TextureaSEOS_, symObjAddr: 0xA834, symBinAddr: 0x10001BCC8, symSize: 0x5C }
  - { offsetInCU: 0x12DD6, offset: 0x49C4D, size: 0x8, addend: 0x0, symName: __ZNSt3__18_IterOpsINS_17_ClassicAlgPolicyEE25__validate_iter_referenceB7v160006IRP7TextureEEvv, symObjAddr: 0xA890, symBinAddr: 0x10001BD24, symSize: 0x4 }
  - { offsetInCU: 0x12DFA, offset: 0x49C71, size: 0x8, addend: 0x0, symName: __ZNSt3__118__unwrap_iter_implINS_11__wrap_iterIP7TextureEELb1EE8__unwrapB7v160006ES4_, symObjAddr: 0xAC8C, symBinAddr: 0x10001BFAC, symSize: 0x28 }
  - { offsetInCU: 0x12E21, offset: 0x49C98, size: 0x8, addend: 0x0, symName: __ZNSt3__119__to_address_helperINS_11__wrap_iterIP7TextureEEvE6__callB7v160006ERKS4_, symObjAddr: 0xACD8, symBinAddr: 0x10001BFF8, symSize: 0x30 }
  - { offsetInCU: 0x12E43, offset: 0x49CBA, size: 0x8, addend: 0x0, symName: __ZNSt3__114pointer_traitsINS_11__wrap_iterIP7TextureEEE10to_addressB7v160006ES4_, symObjAddr: 0xAD08, symBinAddr: 0x10001C028, symSize: 0x2C }
  - { offsetInCU: 0x12E86, offset: 0x49CFD, size: 0x8, addend: 0x0, symName: __ZNSt3__14pairINS_11__wrap_iterIP7TextureEES3_EC1B7v160006IS4_S3_LPv0EEEOT_OT0_, symObjAddr: 0xAD90, symBinAddr: 0x10001C054, symSize: 0x3C }
  - { offsetInCU: 0x12EE3, offset: 0x49D5A, size: 0x8, addend: 0x0, symName: __ZNSt3__14pairINS_11__wrap_iterIP7TextureEES3_EC2B7v160006IS4_S3_LPv0EEEOT_OT0_, symObjAddr: 0xADCC, symBinAddr: 0x10001C090, symSize: 0x34 }
  - { offsetInCU: 0x12F40, offset: 0x49DB7, size: 0x8, addend: 0x0, symName: __ZNSt3__118__unwrap_iter_implINS_11__wrap_iterIP7TextureEELb1EE8__rewrapB7v160006ES4_S3_, symObjAddr: 0xAE4C, symBinAddr: 0x10001C110, symSize: 0x5C }
  - { offsetInCU: 0x12F70, offset: 0x49DE7, size: 0x8, addend: 0x0, symName: __ZNKSt3__111__wrap_iterIP7TextureEplB7v160006El, symObjAddr: 0xAEA8, symBinAddr: 0x10001C16C, symSize: 0x3C }
  - { offsetInCU: 0x12FC5, offset: 0x49E3C, size: 0x8, addend: 0x0, symName: __ZNSt3__114__split_bufferI7TextureRNS_9allocatorIS1_EEE21_ConstructTransactionC1B7v160006EPPS1_m, symObjAddr: 0xB2D8, symBinAddr: 0x10001C1A8, symSize: 0x3C }
  - { offsetInCU: 0x1300A, offset: 0x49E81, size: 0x8, addend: 0x0, symName: __ZNSt3__114__split_bufferI7TextureRNS_9allocatorIS1_EEE21_ConstructTransactionD1B7v160006Ev, symObjAddr: 0xB314, symBinAddr: 0x10001C1E4, symSize: 0x2C }
  - { offsetInCU: 0x13033, offset: 0x49EAA, size: 0x8, addend: 0x0, symName: __ZNSt3__114__split_bufferI7TextureRNS_9allocatorIS1_EEE21_ConstructTransactionC2B7v160006EPPS1_m, symObjAddr: 0xB340, symBinAddr: 0x10001C210, symSize: 0x4C }
  - { offsetInCU: 0x13078, offset: 0x49EEF, size: 0x8, addend: 0x0, symName: __ZNSt3__114__split_bufferI7TextureRNS_9allocatorIS1_EEE21_ConstructTransactionD2B7v160006Ev, symObjAddr: 0xB38C, symBinAddr: 0x10001C25C, symSize: 0x20 }
  - { offsetInCU: 0x130A1, offset: 0x49F18, size: 0x8, addend: 0x0, symName: __ZNSt3__16vectorI7TextureNS_9allocatorIS1_EEEC2ERKS4_, symObjAddr: 0xCD90, symBinAddr: 0x10001C370, symSize: 0x110 }
  - { offsetInCU: 0x13100, offset: 0x49F77, size: 0x8, addend: 0x0, symName: __ZNSt3__116allocator_traitsINS_9allocatorI7TextureEEE37select_on_container_copy_constructionB7v160006IS3_vvEES3_RKS3_, symObjAddr: 0xCEA0, symBinAddr: 0x10001C480, symSize: 0x10 }
  - { offsetInCU: 0x1312F, offset: 0x49FA6, size: 0x8, addend: 0x0, symName: __ZNSt3__128__exception_guard_exceptionsINS_6vectorI7TextureNS_9allocatorIS2_EEE16__destroy_vectorEE10__completeB7v160006Ev, symObjAddr: 0xD030, symBinAddr: 0x10001C4D0, symSize: 0x1C }
  - { offsetInCU: 0x13154, offset: 0x49FCB, size: 0x8, addend: 0x0, symName: __ZNSt3__128__exception_guard_exceptionsINS_6vectorI7TextureNS_9allocatorIS2_EEE16__destroy_vectorEED1B7v160006Ev, symObjAddr: 0xD04C, symBinAddr: 0x10001C4EC, symSize: 0x2C }
  - { offsetInCU: 0x1317D, offset: 0x49FF4, size: 0x8, addend: 0x0, symName: __ZNSt3__128__exception_guard_exceptionsINS_6vectorI7TextureNS_9allocatorIS2_EEE16__destroy_vectorEEC1B7v160006ES6_, symObjAddr: 0xD078, symBinAddr: 0x10001C518, symSize: 0x34 }
  - { offsetInCU: 0x131B4, offset: 0x4A02B, size: 0x8, addend: 0x0, symName: __ZNSt3__128__exception_guard_exceptionsINS_6vectorI7TextureNS_9allocatorIS2_EEE16__destroy_vectorEEC2B7v160006ES6_, symObjAddr: 0xD0AC, symBinAddr: 0x10001C54C, symSize: 0x24 }
  - { offsetInCU: 0x131EB, offset: 0x4A062, size: 0x8, addend: 0x0, symName: __ZNSt3__128__exception_guard_exceptionsINS_6vectorI7TextureNS_9allocatorIS2_EEE16__destroy_vectorEED2B7v160006Ev, symObjAddr: 0xD1C4, symBinAddr: 0x10001C570, symSize: 0x50 }
  - { offsetInCU: 0x1321E, offset: 0x4A095, size: 0x8, addend: 0x0, symName: __ZNSt3__116allocator_traitsINS_9allocatorIcEEE37select_on_container_copy_constructionB7v160006IS2_vvEES2_RKS2_, symObjAddr: 0xD54C, symBinAddr: 0x10001C5C0, symSize: 0x10 }
  - { offsetInCU: 0x1324D, offset: 0x4A0C4, size: 0x8, addend: 0x0, symName: __ZNKSt3__112basic_stringIcNS_11char_traitsIcEENS_9allocatorIcEEE13get_allocatorB7v160006Ev, symObjAddr: 0xD55C, symBinAddr: 0x10001C5D0, symSize: 0x24 }
  - { offsetInCU: 0x13272, offset: 0x4A0E9, size: 0x8, addend: 0x0, symName: __ZNSt3__112basic_stringIcNS_11char_traitsIcEENS_9allocatorIcEEEC1B7v160006ENS_24__uninitialized_size_tagEmRKS4_, symObjAddr: 0xD580, symBinAddr: 0x10001C5F4, symSize: 0x3C }
  - { offsetInCU: 0x132C4, offset: 0x4A13B, size: 0x8, addend: 0x0, symName: __ZNSt3__111char_traitsIcE4copyEPcPKcm, symObjAddr: 0xD5BC, symBinAddr: 0x10001C630, symSize: 0x5C }
  - { offsetInCU: 0x13302, offset: 0x4A179, size: 0x8, addend: 0x0, symName: __ZNSt3__111char_traitsIcE6assignEPcmc, symObjAddr: 0xD618, symBinAddr: 0x10001C68C, symSize: 0x44 }
  - { offsetInCU: 0x13340, offset: 0x4A1B7, size: 0x8, addend: 0x0, symName: __ZNKSt3__112basic_stringIcNS_11char_traitsIcEENS_9allocatorIcEEE7__allocB7v160006Ev, symObjAddr: 0xD6B8, symBinAddr: 0x10001C6D0, symSize: 0x24 }
  - { offsetInCU: 0x13365, offset: 0x4A1DC, size: 0x8, addend: 0x0, symName: __ZNKSt3__117__compressed_pairINS_12basic_stringIcNS_11char_traitsIcEENS_9allocatorIcEEE5__repES5_E6secondB7v160006Ev, symObjAddr: 0xD6DC, symBinAddr: 0x10001C6F4, symSize: 0x24 }
  - { offsetInCU: 0x1338A, offset: 0x4A201, size: 0x8, addend: 0x0, symName: __ZNKSt3__122__compressed_pair_elemINS_9allocatorIcEELi1ELb1EE5__getB7v160006Ev, symObjAddr: 0xD700, symBinAddr: 0x10001C718, symSize: 0x14 }
  - { offsetInCU: 0x133AF, offset: 0x4A226, size: 0x8, addend: 0x0, symName: __ZNSt3__112basic_stringIcNS_11char_traitsIcEENS_9allocatorIcEEEC2B7v160006ENS_24__uninitialized_size_tagEmRKS4_, symObjAddr: 0xD714, symBinAddr: 0x10001C72C, symSize: 0x118 }
  - { offsetInCU: 0x1342D, offset: 0x4A2A4, size: 0x8, addend: 0x0, symName: __ZNSt3__117__compressed_pairINS_12basic_stringIcNS_11char_traitsIcEENS_9allocatorIcEEE5__repES5_EC1B7v160006INS_18__default_init_tagERKS5_EEOT_OT0_, symObjAddr: 0xD82C, symBinAddr: 0x10001C844, symSize: 0x3C }
  - { offsetInCU: 0x13484, offset: 0x4A2FB, size: 0x8, addend: 0x0, symName: __ZNKSt3__112basic_stringIcNS_11char_traitsIcEENS_9allocatorIcEEE8max_sizeB7v160006Ev, symObjAddr: 0xD868, symBinAddr: 0x10001C880, symSize: 0xAC }
  - { offsetInCU: 0x134D5, offset: 0x4A34C, size: 0x8, addend: 0x0, symName: __ZNKSt3__112basic_stringIcNS_11char_traitsIcEENS_9allocatorIcEEE20__throw_length_errorB7v160006Ev, symObjAddr: 0xD914, symBinAddr: 0x10001C92C, symSize: 0x1C }
  - { offsetInCU: 0x134FA, offset: 0x4A371, size: 0x8, addend: 0x0, symName: __ZNSt3__112basic_stringIcNS_11char_traitsIcEENS_9allocatorIcEEE13__fits_in_ssoB7v160006Em, symObjAddr: 0xD930, symBinAddr: 0x10001C948, symSize: 0x20 }
  - { offsetInCU: 0x1351E, offset: 0x4A395, size: 0x8, addend: 0x0, symName: __ZNSt3__112basic_stringIcNS_11char_traitsIcEENS_9allocatorIcEEE11__recommendB7v160006Em, symObjAddr: 0xD950, symBinAddr: 0x10001C968, symSize: 0x84 }
  - { offsetInCU: 0x13550, offset: 0x4A3C7, size: 0x8, addend: 0x0, symName: __ZNSt3__116allocator_traitsINS_9allocatorIcEEE8allocateB7v160006ERS2_m, symObjAddr: 0xD9D4, symBinAddr: 0x10001C9EC, symSize: 0x2C }
  - { offsetInCU: 0x13582, offset: 0x4A3F9, size: 0x8, addend: 0x0, symName: __ZNSt3__112basic_stringIcNS_11char_traitsIcEENS_9allocatorIcEEE16__begin_lifetimeB7v160006EPcm, symObjAddr: 0xDA00, symBinAddr: 0x10001CA18, symSize: 0x14 }
  - { offsetInCU: 0x135B5, offset: 0x4A42C, size: 0x8, addend: 0x0, symName: __ZNSt3__112basic_stringIcNS_11char_traitsIcEENS_9allocatorIcEEE14__set_long_capB7v160006Em, symObjAddr: 0xDA14, symBinAddr: 0x10001CA2C, symSize: 0x70 }
  - { offsetInCU: 0x135E9, offset: 0x4A460, size: 0x8, addend: 0x0, symName: __ZNSt3__112basic_stringIcNS_11char_traitsIcEENS_9allocatorIcEEE18__set_long_pointerB7v160006EPc, symObjAddr: 0xDA84, symBinAddr: 0x10001CA9C, symSize: 0x38 }
  - { offsetInCU: 0x1361D, offset: 0x4A494, size: 0x8, addend: 0x0, symName: __ZNSt3__112basic_stringIcNS_11char_traitsIcEENS_9allocatorIcEEE15__set_long_sizeB7v160006Em, symObjAddr: 0xDABC, symBinAddr: 0x10001CAD4, symSize: 0x38 }
  - { offsetInCU: 0x13651, offset: 0x4A4C8, size: 0x8, addend: 0x0, symName: __ZNSt3__117__compressed_pairINS_12basic_stringIcNS_11char_traitsIcEENS_9allocatorIcEEE5__repES5_EC2B7v160006INS_18__default_init_tagERKS5_EEOT_OT0_, symObjAddr: 0xDAF4, symBinAddr: 0x10001CB0C, symSize: 0x40 }
  - { offsetInCU: 0x136A8, offset: 0x4A51F, size: 0x8, addend: 0x0, symName: __ZNSt3__122__compressed_pair_elemINS_9allocatorIcEELi1ELb1EEC2B7v160006IRKS2_vEEOT_, symObjAddr: 0xDB34, symBinAddr: 0x10001CB4C, symSize: 0x18 }
  - { offsetInCU: 0x136E9, offset: 0x4A560, size: 0x8, addend: 0x0, symName: __ZNSt3__116allocator_traitsINS_9allocatorIcEEE8max_sizeB7v160006IS2_vEEmRKS2_, symObjAddr: 0xDB4C, symBinAddr: 0x10001CB64, symSize: 0x24 }
  - { offsetInCU: 0x13716, offset: 0x4A58D, size: 0x8, addend: 0x0, symName: __ZNSt3__114numeric_limitsImE3maxB7v160006Ev, symObjAddr: 0xDB70, symBinAddr: 0x10001CB88, symSize: 0x14 }
  - { offsetInCU: 0x1372A, offset: 0x4A5A1, size: 0x8, addend: 0x0, symName: __ZNKSt3__19allocatorIcE8max_sizeB7v160006Ev, symObjAddr: 0xDB84, symBinAddr: 0x10001CB9C, symSize: 0x14 }
  - { offsetInCU: 0x1374F, offset: 0x4A5C6, size: 0x8, addend: 0x0, symName: __ZNSt3__123__libcpp_numeric_limitsImLb1EE3maxB7v160006Ev, symObjAddr: 0xDB98, symBinAddr: 0x10001CBB0, symSize: 0x8 }
  - { offsetInCU: 0x13762, offset: 0x4A5D9, size: 0x8, addend: 0x0, symName: __ZNSt3__112basic_stringIcNS_11char_traitsIcEENS_9allocatorIcEEE10__align_itB7v160006ILm16EEEmm, symObjAddr: 0xDBA0, symBinAddr: 0x10001CBB8, symSize: 0x1C }
  - { offsetInCU: 0x13790, offset: 0x4A607, size: 0x8, addend: 0x0, symName: __ZNSt3__19allocatorIcE8allocateB7v160006Em, symObjAddr: 0xDBBC, symBinAddr: 0x10001CBD4, symSize: 0x58 }
  - { offsetInCU: 0x137E7, offset: 0x4A65E, size: 0x8, addend: 0x0, symName: __ZNKSt3__114__copy_trivialclB7v160006IKccLi0EEENS_4pairIPT_PT0_EES5_S5_S7_, symObjAddr: 0xDE34, symBinAddr: 0x10001CE4C, symSize: 0x48 }
  - { offsetInCU: 0x1386E, offset: 0x4A6E5, size: 0x8, addend: 0x0, symName: __ZNSt3__14pairIPKcS2_EC1B7v160006IS2_S2_LPv0EEEOT_OT0_, symObjAddr: 0xDF9C, symBinAddr: 0x10001CFB4, symSize: 0x3C }
  - { offsetInCU: 0x138CB, offset: 0x4A742, size: 0x8, addend: 0x0, symName: __ZNSt3__14pairIPKcS2_EC2B7v160006IS2_S2_LPv0EEEOT_OT0_, symObjAddr: 0xDFD8, symBinAddr: 0x10001CFF0, symSize: 0x34 }
  - { offsetInCU: 0x13928, offset: 0x4A79F, size: 0x8, addend: 0x0, symName: __ZNSt3__118__unwrap_iter_implIPKcLb1EE8__unwrapB7v160006ES2_, symObjAddr: 0xE00C, symBinAddr: 0x10001D024, symSize: 0x24 }
  - { offsetInCU: 0x13955, offset: 0x4A7CC, size: 0x8, addend: 0x0, symName: __ZNSt3__14pairIPKcPcEC1B7v160006IRS2_S3_LPv0EEEOT_OT0_, symObjAddr: 0xE0E4, symBinAddr: 0x10001D0FC, symSize: 0x3C }
  - { offsetInCU: 0x139B2, offset: 0x4A829, size: 0x8, addend: 0x0, symName: __ZNSt3__14pairIPKcPcEC2B7v160006IRS2_S3_LPv0EEEOT_OT0_, symObjAddr: 0xE120, symBinAddr: 0x10001D138, symSize: 0x34 }
  - { offsetInCU: 0x13A0F, offset: 0x4A886, size: 0x8, addend: 0x0, symName: __ZNSt3__118__unwrap_iter_implIPcLb1EE8__unwrapB7v160006ES1_, symObjAddr: 0xE154, symBinAddr: 0x10001D16C, symSize: 0x24 }
  - { offsetInCU: 0x13A31, offset: 0x4A8A8, size: 0x8, addend: 0x0, symName: __ZNSt3__14pairIPKcPcEC1B7v160006IS2_S3_LPv0EEEOT_OT0_, symObjAddr: 0xE178, symBinAddr: 0x10001D190, symSize: 0x3C }
  - { offsetInCU: 0x13A8E, offset: 0x4A905, size: 0x8, addend: 0x0, symName: __ZNSt3__14pairIPKcPcEC2B7v160006IS2_S3_LPv0EEEOT_OT0_, symObjAddr: 0xE1B4, symBinAddr: 0x10001D1CC, symSize: 0x34 }
  - { offsetInCU: 0x13AEB, offset: 0x4A962, size: 0x8, addend: 0x0, symName: __ZNSt3__118__unwrap_iter_implIPKcLb1EE8__rewrapB7v160006ES2_S2_, symObjAddr: 0xE224, symBinAddr: 0x10001D23C, symSize: 0x48 }
  - { offsetInCU: 0x13B1B, offset: 0x4A992, size: 0x8, addend: 0x0, symName: __ZNSt3__118__unwrap_iter_implIPcLb1EE8__rewrapB7v160006ES1_S1_, symObjAddr: 0xE26C, symBinAddr: 0x10001D284, symSize: 0x48 }
  - { offsetInCU: 0x635, offset: 0x4B0FF, size: 0x8, addend: 0x0, symName: __ZN3glm6lengthILi2EfLNS_9qualifierE0EEET0_RKNS_3vecIXT_ES2_XT1_EEE, symObjAddr: 0x10F8, symBinAddr: 0x10001E1B4, symSize: 0x24 }
  - { offsetInCU: 0x67E, offset: 0x4B148, size: 0x8, addend: 0x0, symName: __ZN3glmmiIfLNS_9qualifierE0EEENS_3vecILi2ET_XT0_EEERKS4_S6_, symObjAddr: 0x1820, symBinAddr: 0x10001E8B0, symSize: 0x58 }
  - { offsetInCU: 0x6CE, offset: 0x4B198, size: 0x8, addend: 0x0, symName: __ZN3glmdvIfLNS_9qualifierE0EEENS_3vecILi2ET_XT0_EEERKS4_S3_, symObjAddr: 0x1878, symBinAddr: 0x10001E908, symSize: 0x50 }
  - { offsetInCU: 0x71E, offset: 0x4B1E8, size: 0x8, addend: 0x0, symName: __ZN3glmplIfLNS_9qualifierE0EEENS_3vecILi2ET_XT0_EEERKS4_S6_, symObjAddr: 0x18C8, symBinAddr: 0x10001E958, symSize: 0x58 }
  - { offsetInCU: 0x76E, offset: 0x4B238, size: 0x8, addend: 0x0, symName: __ZN3glmmlIfLNS_9qualifierE0EEENS_3vecILi2ET_XT0_EEES3_RKS4_, symObjAddr: 0x1920, symBinAddr: 0x10001E9B0, symSize: 0x50 }
  - { offsetInCU: 0x7BE, offset: 0x4B288, size: 0x8, addend: 0x0, symName: __ZN3glmneIfLNS_9qualifierE0EEEbRKNS_3vecILi2ET_XT0_EEES6_, symObjAddr: 0x2104, symBinAddr: 0x10001EE70, symSize: 0x34 }
  - { offsetInCU: 0x80E, offset: 0x4B2D8, size: 0x8, addend: 0x0, symName: __ZN3glmngIfLNS_9qualifierE0EEENS_3vecILi2ET_XT0_EEERKS4_, symObjAddr: 0x31E0, symBinAddr: 0x10001FEE4, symSize: 0x44 }
  - { offsetInCU: 0x84F, offset: 0x4B319, size: 0x8, addend: 0x0, symName: __ZN3glm8distanceILi2EfLNS_9qualifierE0EEET0_RKNS_3vecIXT_ES2_XT1_EEES6_, symObjAddr: 0xA0E4, symBinAddr: 0x1000211D0, symSize: 0x2C }
  - { offsetInCU: 0x9B4, offset: 0x4B47E, size: 0x8, addend: 0x0, symName: __ZN3glmeqIfLNS_9qualifierE0EEEbRKNS_3vecILi2ET_XT0_EEES6_, symObjAddr: 0xA17C, symBinAddr: 0x100021268, symSize: 0x68 }
  - { offsetInCU: 0xA04, offset: 0x4B4CE, size: 0x8, addend: 0x0, symName: __ZN3glm3dotILi2EfLNS_9qualifierE0EEET0_RKNS_3vecIXT_ES2_XT1_EEES6_, symObjAddr: 0xE7A4, symBinAddr: 0x100021438, symSize: 0x2C }
  - { offsetInCU: 0xA5B, offset: 0x4B525, size: 0x8, addend: 0x0, symName: __ZN3glmmlIfLNS_9qualifierE0EEENS_3vecILi2ET_XT0_EEERKS4_S6_, symObjAddr: 0xE810, symBinAddr: 0x1000214A4, symSize: 0x58 }
  - { offsetInCU: 0xAE4B, offset: 0x55915, size: 0x8, addend: 0x0, symName: __ZNSt3__1L19piecewise_constructE, symObjAddr: 0x16214, symBinAddr: 0x10004A248, symSize: 0x0 }
  - { offsetInCU: 0xDD37, offset: 0x58801, size: 0x8, addend: 0x0, symName: __ZNSt3__1neB7v160006IPP4MeshEEbRKNS_11__wrap_iterIT_EES8_, symObjAddr: 0x19D0, symBinAddr: 0x10001EA60, symSize: 0x34 }
  - { offsetInCU: 0xDD7A, offset: 0x58844, size: 0x8, addend: 0x0, symName: __ZNSt3__1neB7v160006IP6VertexEEbRKNS_11__wrap_iterIT_EES7_, symObjAddr: 0x30CC, symBinAddr: 0x10001FDD0, symSize: 0x34 }
  - { offsetInCU: 0xDDBD, offset: 0x58887, size: 0x8, addend: 0x0, symName: __ZNSt3__1eqB7v160006IPP4MeshEEbRKNS_11__wrap_iterIT_EES8_, symObjAddr: 0x62C8, symBinAddr: 0x100020D58, symSize: 0x48 }
  - { offsetInCU: 0xDE00, offset: 0x588CA, size: 0x8, addend: 0x0, symName: __ZNSt3__1eqB7v160006IP6VertexEEbRKNS_11__wrap_iterIT_EES7_, symObjAddr: 0xB0D4, symBinAddr: 0x1000213AC, symSize: 0x48 }
  - { offsetInCU: 0xDE43, offset: 0x5890D, size: 0x8, addend: 0x0, symName: __ZNSt3__119__debug_db_insert_cB7v160006INS_13unordered_mapI14PlayerMovementN6Player13AnimationDataENS_4hashIS2_EENS_8equal_toIS2_EENS_9allocatorINS_4pairIKS2_S4_EEEEEEEEvPT_, symObjAddr: 0xE8D0, symBinAddr: 0x100021564, symSize: 0x10 }
  - { offsetInCU: 0xDE74, offset: 0x5893E, size: 0x8, addend: 0x0, symName: __ZNSt3__118__debug_db_erase_cB7v160006INS_12__hash_tableINS_17__hash_value_typeI14PlayerMovementN6Player13AnimationDataEEENS_22__unordered_map_hasherIS3_S6_NS_4hashIS3_EENS_8equal_toIS3_EELb1EEENS_21__unordered_map_equalIS3_S6_SB_S9_Lb1EEENS_9allocatorIS6_EEEEEEvPT_, symObjAddr: 0xF050, symBinAddr: 0x100021CE4, symSize: 0x10 }
  - { offsetInCU: 0xDED8, offset: 0x589A2, size: 0x8, addend: 0x0, symName: __ZNSt3__17launderB7v160006INS_4pairIK14PlayerMovementN6Player13AnimationDataEEEEEPT_S8_, symObjAddr: 0xF1B4, symBinAddr: 0x100021E48, symSize: 0x24 }
  - { offsetInCU: 0xDF0F, offset: 0x589D9, size: 0x8, addend: 0x0, symName: __ZNSt3__19__launderB7v160006INS_4pairIK14PlayerMovementN6Player13AnimationDataEEEEEPT_S8_, symObjAddr: 0xF1D8, symBinAddr: 0x100021E6C, symSize: 0x14 }
  - { offsetInCU: 0xDF7D, offset: 0x58A47, size: 0x8, addend: 0x0, symName: __ZNSt3__116forward_as_tupleB7v160006IJ14PlayerMovementEEENS_5tupleIJDpOT_EEES5_, symObjAddr: 0x10EAC, symBinAddr: 0x10002263C, symSize: 0x2C }
  - { offsetInCU: 0xDFB6, offset: 0x58A80, size: 0x8, addend: 0x0, symName: __ZNSt3__116forward_as_tupleB7v160006IJEEENS_5tupleIJDpOT_EEES4_, symObjAddr: 0x10ED8, symBinAddr: 0x100022668, symSize: 0x4 }
  - { offsetInCU: 0xDFDA, offset: 0x58AA4, size: 0x8, addend: 0x0, symName: __ZNSt3__116__constrain_hashB7v160006Emm, symObjAddr: 0x10F8C, symBinAddr: 0x10002271C, symSize: 0x98 }
  - { offsetInCU: 0xE014, offset: 0x58ADE, size: 0x8, addend: 0x0, symName: __ZNSt3__116__is_hash_power2B7v160006Em, symObjAddr: 0x112AC, symBinAddr: 0x100022A3C, symSize: 0x50 }
  - { offsetInCU: 0xE098, offset: 0x58B62, size: 0x8, addend: 0x0, symName: __ZNSt3__17launderB7v160006IKNS_4pairIK14PlayerMovementN6Player13AnimationDataEEEEEPT_S9_, symObjAddr: 0x11678, symBinAddr: 0x100022E08, symSize: 0x24 }
  - { offsetInCU: 0xE0CF, offset: 0x58B99, size: 0x8, addend: 0x0, symName: __ZNSt3__19__launderB7v160006IKNS_4pairIK14PlayerMovementN6Player13AnimationDataEEEEEPT_S9_, symObjAddr: 0x1169C, symBinAddr: 0x100022E2C, symSize: 0x14 }
  - { offsetInCU: 0xE130, offset: 0x58BFA, size: 0x8, addend: 0x0, symName: __ZNSt3__13getB7v160006ILm0EJO14PlayerMovementEEERNS_13tuple_elementIXT_ENS_5tupleIJDpT0_EEEE4typeERS7_, symObjAddr: 0x11AB4, symBinAddr: 0x100023244, symSize: 0x24 }
  - { offsetInCU: 0xE173, offset: 0x58C3D, size: 0x8, addend: 0x0, symName: __ZNSt3__116__next_hash_pow2B7v160006Em, symObjAddr: 0x12028, symBinAddr: 0x1000237B8, symSize: 0x6C }
  - { offsetInCU: 0xE19F, offset: 0x58C69, size: 0x8, addend: 0x0, symName: __ZNSt3__125__debug_db_invalidate_allB7v160006INS_12__hash_tableINS_17__hash_value_typeI14PlayerMovementN6Player13AnimationDataEEENS_22__unordered_map_hasherIS3_S6_NS_4hashIS3_EENS_8equal_toIS3_EELb1EEENS_21__unordered_map_equalIS3_S6_SB_S9_Lb1EEENS_9allocatorIS6_EEEEEEvPT_, symObjAddr: 0x12094, symBinAddr: 0x100023824, symSize: 0x10 }
  - { offsetInCU: 0xE1D0, offset: 0x58C9A, size: 0x8, addend: 0x0, symName: __ZNSt3__112__libcpp_clzB7v160006Em, symObjAddr: 0x121FC, symBinAddr: 0x10002398C, symSize: 0x1C }
  - { offsetInCU: 0xE253, offset: 0x58D1D, size: 0x8, addend: 0x0, symName: __ZNSt3__122__make_exception_guardB7v160006INS_6vectorIP4MeshNS_9allocatorIS3_EEE16__destroy_vectorEEENS_28__exception_guard_exceptionsIT_EES9_, symObjAddr: 0x13140, symBinAddr: 0x100023EA8, symSize: 0x40 }
  - { offsetInCU: 0xE288, offset: 0x58D52, size: 0x8, addend: 0x0, symName: __ZNSt3__130__uninitialized_allocator_copyB7v160006INS_9allocatorIP4MeshEEPS3_S5_S5_EET2_RT_T0_T1_S6_, symObjAddr: 0x13884, symBinAddr: 0x10002411C, symSize: 0xF4 }
  - { offsetInCU: 0xE326, offset: 0x58DF0, size: 0x8, addend: 0x0, symName: __ZNSt3__122__make_exception_guardB7v160006INS_29_AllocatorDestroyRangeReverseINS_9allocatorIP4MeshEEPS4_EEEENS_28__exception_guard_exceptionsIT_EES9_, symObjAddr: 0x139E8, symBinAddr: 0x100024210, symSize: 0x4C }
  - { offsetInCU: 0xE35C, offset: 0x58E26, size: 0x8, addend: 0x0, symName: __ZNSt3__119__allocator_destroyB7v160006INS_9allocatorIP4MeshEENS_16reverse_iteratorIPS3_EES7_EEvRT_T0_T1_, symObjAddr: 0x13C70, symBinAddr: 0x100024498, symSize: 0x70 }
  - { offsetInCU: 0xE3BF, offset: 0x58E89, size: 0x8, addend: 0x0, symName: __ZNSt3__112__to_addressB7v160006INS_16reverse_iteratorIPP4MeshEEvEENS_5decayIDTclsr19__to_address_helperIT_EE6__callclsr3stdE7declvalIRKS7_EEEEE4typeES9_, symObjAddr: 0x13D88, symBinAddr: 0x100024508, symSize: 0x24 }
  - { offsetInCU: 0xE41E, offset: 0x58EE8, size: 0x8, addend: 0x0, symName: __ZNSt3__119__debug_db_insert_cB7v160006INS_6vectorI12IntersectionNS_9allocatorIS2_EEEEEEvPT_, symObjAddr: 0x14278, symBinAddr: 0x10002466C, symSize: 0x10 }
  - { offsetInCU: 0xE44F, offset: 0x58F19, size: 0x8, addend: 0x0, symName: __ZNSt3__118__debug_db_erase_cB7v160006INS_6vectorI12IntersectionNS_9allocatorIS2_EEEEEEvPT_, symObjAddr: 0x14558, symBinAddr: 0x10002494C, symSize: 0x10 }
  - { offsetInCU: 0xE480, offset: 0x58F4A, size: 0x8, addend: 0x0, symName: __ZNSt3__112__to_addressB7v160006I12IntersectionEEPT_S3_, symObjAddr: 0x1469C, symBinAddr: 0x100024A90, symSize: 0x14 }
  - { offsetInCU: 0xE4B5, offset: 0x58F7F, size: 0x8, addend: 0x0, symName: __ZNSt3__116forward_as_tupleB7v160006IJRK14PlayerMovementEEENS_5tupleIJDpOT_EEES7_, symObjAddr: 0x14D84, symBinAddr: 0x100025178, symSize: 0x2C }
  - { offsetInCU: 0xE4EE, offset: 0x58FB8, size: 0x8, addend: 0x0, symName: __ZNSt3__13getB7v160006ILm0EJRK14PlayerMovementEEERNS_13tuple_elementIXT_ENS_5tupleIJDpT0_EEEE4typeERS8_, symObjAddr: 0x1504C, symBinAddr: 0x100025440, symSize: 0x24 }
  - { offsetInCU: 0xF0A3, offset: 0x59B6D, size: 0x8, addend: 0x0, symName: __ZN6Player14handle_physicsEfNSt3__16vectorIP4MeshNS0_9allocatorIS3_EEEE, symObjAddr: 0x256C, symBinAddr: 0x10001F270, symSize: 0x124 }
  - { offsetInCU: 0xF0C8, offset: 0x59B92, size: 0x8, addend: 0x0, symName: __ZZN6Player14handle_physicsEfNSt3__16vectorIP4MeshNS0_9allocatorIS3_EEEEE7substep, symObjAddr: 0x16210, symBinAddr: 0x100050000, symSize: 0x0 }
  - { offsetInCU: 0xF1B8, offset: 0x59C82, size: 0x8, addend: 0x0, symName: __ZNKSt3__111__enum_hashI14PlayerMovementLb1EEclB7v160006ES1_, symObjAddr: 0x114A8, symBinAddr: 0x100022C38, symSize: 0x2C }
  - { offsetInCU: 0x1117D, offset: 0x5BC47, size: 0x8, addend: 0x0, symName: __ZN6PlayerC2Ev, symObjAddr: 0x0, symBinAddr: 0x10001D374, symSize: 0xD14 }
  - { offsetInCU: 0x11254, offset: 0x5BD1E, size: 0x8, addend: 0x0, symName: __ZN3glm3vecILi2EfLNS_9qualifierE0EEC1IifEET_T0_, symObjAddr: 0xD50, symBinAddr: 0x10001E088, symSize: 0x3C }
  - { offsetInCU: 0x112AC, offset: 0x5BD76, size: 0x8, addend: 0x0, symName: __ZNSt3__113unordered_mapI14PlayerMovementN6Player13AnimationDataENS_4hashIS1_EENS_8equal_toIS1_EENS_9allocatorINS_4pairIKS1_S3_EEEEEC1B7v160006Ev, symObjAddr: 0xDB8, symBinAddr: 0x10001E0C4, symSize: 0x2C }
  - { offsetInCU: 0x112DA, offset: 0x5BDA4, size: 0x8, addend: 0x0, symName: __ZN6Player13AnimationDataC1Eii10CycleStyle, symObjAddr: 0xE54, symBinAddr: 0x10001E0F0, symSize: 0x44 }
  - { offsetInCU: 0x1132D, offset: 0x5BDF7, size: 0x8, addend: 0x0, symName: __ZNSt3__113unordered_mapI14PlayerMovementN6Player13AnimationDataENS_4hashIS1_EENS_8equal_toIS1_EENS_9allocatorINS_4pairIKS1_S3_EEEEEixEOS1_, symObjAddr: 0xE98, symBinAddr: 0x10001E134, symSize: 0x80 }
  - { offsetInCU: 0x11369, offset: 0x5BE33, size: 0x8, addend: 0x0, symName: __ZN6Player22getVec_centre_to_rightEv, symObjAddr: 0x111C, symBinAddr: 0x10001E1D8, symSize: 0x90 }
  - { offsetInCU: 0x114B8, offset: 0x5BF82, size: 0x8, addend: 0x0, symName: __ZNSt3__113unordered_mapI14PlayerMovementN6Player13AnimationDataENS_4hashIS1_EENS_8equal_toIS1_EENS_9allocatorINS_4pairIKS1_S3_EEEEED1B7v160006Ev, symObjAddr: 0x11D8, symBinAddr: 0x10001E268, symSize: 0x2C }
  - { offsetInCU: 0x114E1, offset: 0x5BFAB, size: 0x8, addend: 0x0, symName: __ZN6PlayerC1Ev, symObjAddr: 0x1204, symBinAddr: 0x10001E294, symSize: 0x2C }
  - { offsetInCU: 0x1150A, offset: 0x5BFD4, size: 0x8, addend: 0x0, symName: __ZN6Player12step_physicsEfNSt3__16vectorIP4MeshNS0_9allocatorIS3_EEEE, symObjAddr: 0x1230, symBinAddr: 0x10001E2C0, symSize: 0x538 }
  - { offsetInCU: 0x1169C, offset: 0x5C166, size: 0x8, addend: 0x0, symName: __ZN6Player11getGlobalBLEv, symObjAddr: 0x1768, symBinAddr: 0x10001E7F8, symSize: 0x5C }
  - { offsetInCU: 0x116C3, offset: 0x5C18D, size: 0x8, addend: 0x0, symName: __ZN6Player11getGlobalBREv, symObjAddr: 0x17C4, symBinAddr: 0x10001E854, symSize: 0x5C }
  - { offsetInCU: 0x116EA, offset: 0x5C1B4, size: 0x8, addend: 0x0, symName: __ZNSt3__16vectorIP4MeshNS_9allocatorIS2_EEE5beginB7v160006Ev, symObjAddr: 0x1970, symBinAddr: 0x10001EA00, symSize: 0x30 }
  - { offsetInCU: 0x11711, offset: 0x5C1DB, size: 0x8, addend: 0x0, symName: __ZNSt3__16vectorIP4MeshNS_9allocatorIS2_EEE3endB7v160006Ev, symObjAddr: 0x19A0, symBinAddr: 0x10001EA30, symSize: 0x30 }
  - { offsetInCU: 0x11738, offset: 0x5C202, size: 0x8, addend: 0x0, symName: __ZNKSt3__111__wrap_iterIPP4MeshEdeB7v160006Ev, symObjAddr: 0x1A04, symBinAddr: 0x10001EA94, symSize: 0x18 }
  - { offsetInCU: 0x1175D, offset: 0x5C227, size: 0x8, addend: 0x0, symName: __ZL21find_min_intersectionN3glm3vecILi2EfLNS_9qualifierE0EEES2_3Tri, symObjAddr: 0x1CA4, symBinAddr: 0x10001EAAC, symSize: 0x31C }
  - { offsetInCU: 0x117E5, offset: 0x5C2AF, size: 0x8, addend: 0x0, symName: __ZNSt3__111__wrap_iterIPP4MeshEppB7v160006Ev, symObjAddr: 0x200C, symBinAddr: 0x10001EDC8, symSize: 0x20 }
  - { offsetInCU: 0x1180A, offset: 0x5C2D4, size: 0x8, addend: 0x0, symName: __ZN3glm3vecILi2EfLNS_9qualifierE0EEC1IfiEET_T0_, symObjAddr: 0x202C, symBinAddr: 0x10001EDE8, symSize: 0x3C }
  - { offsetInCU: 0x11862, offset: 0x5C32C, size: 0x8, addend: 0x0, symName: __ZN6Player4moveEN3glm3vecILi2EfLNS0_9qualifierE0EEE, symObjAddr: 0x2068, symBinAddr: 0x10001EE24, symSize: 0x4C }
  - { offsetInCU: 0x11898, offset: 0x5C362, size: 0x8, addend: 0x0, symName: __ZN6Player17handle_collisionsENSt3__16vectorIP4MeshNS0_9allocatorIS3_EEEE, symObjAddr: 0x2138, symBinAddr: 0x10001EEA4, symSize: 0x398 }
  - { offsetInCU: 0x11A41, offset: 0x5C50B, size: 0x8, addend: 0x0, symName: __ZNSt3__16vectorIP4MeshNS_9allocatorIS2_EEEC1ERKS5_, symObjAddr: 0x24D0, symBinAddr: 0x10001F23C, symSize: 0x34 }
  - { offsetInCU: 0x11A7A, offset: 0x5C544, size: 0x8, addend: 0x0, symName: __ZN6Player20get_collision_offsetER3Tri, symObjAddr: 0x2690, symBinAddr: 0x10001F394, symSize: 0x898 }
  - { offsetInCU: 0x11CA0, offset: 0x5C76A, size: 0x8, addend: 0x0, symName: __ZNSt3__16vectorI12IntersectionNS_9allocatorIS1_EEEC1B7v160006Ev, symObjAddr: 0x2F28, symBinAddr: 0x10001FC2C, symSize: 0x2C }
  - { offsetInCU: 0x11CC9, offset: 0x5C793, size: 0x8, addend: 0x0, symName: __ZN6Player11getGlobalTLEv, symObjAddr: 0x2F54, symBinAddr: 0x10001FC58, symSize: 0x5C }
  - { offsetInCU: 0x11CF0, offset: 0x5C7BA, size: 0x8, addend: 0x0, symName: __ZN6Player11getGlobalTREv, symObjAddr: 0x2FB0, symBinAddr: 0x10001FCB4, symSize: 0x5C }
  - { offsetInCU: 0x11D17, offset: 0x5C7E1, size: 0x8, addend: 0x0, symName: __ZNSt3__16vectorI12IntersectionNS_9allocatorIS1_EEED1B7v160006Ev, symObjAddr: 0x300C, symBinAddr: 0x10001FD10, symSize: 0x2C }
  - { offsetInCU: 0x11D40, offset: 0x5C80A, size: 0x8, addend: 0x0, symName: __ZN4MeshC1ERKS_, symObjAddr: 0x3038, symBinAddr: 0x10001FD3C, symSize: 0x34 }
  - { offsetInCU: 0x11D73, offset: 0x5C83D, size: 0x8, addend: 0x0, symName: __ZNSt3__16vectorI6VertexNS_9allocatorIS1_EEE5beginB7v160006Ev, symObjAddr: 0x306C, symBinAddr: 0x10001FD70, symSize: 0x30 }
  - { offsetInCU: 0x11D9A, offset: 0x5C864, size: 0x8, addend: 0x0, symName: __ZNSt3__16vectorI6VertexNS_9allocatorIS1_EEE3endB7v160006Ev, symObjAddr: 0x309C, symBinAddr: 0x10001FDA0, symSize: 0x30 }
  - { offsetInCU: 0x11DC1, offset: 0x5C88B, size: 0x8, addend: 0x0, symName: __ZNKSt3__111__wrap_iterIP6VertexEdeB7v160006Ev, symObjAddr: 0x3100, symBinAddr: 0x10001FE04, symSize: 0x18 }
  - { offsetInCU: 0x11DE6, offset: 0x5C8B0, size: 0x8, addend: 0x0, symName: __ZNSt3__111__wrap_iterIP6VertexEppB7v160006Ev, symObjAddr: 0x3118, symBinAddr: 0x10001FE1C, symSize: 0x20 }
  - { offsetInCU: 0x11E0B, offset: 0x5C8D5, size: 0x8, addend: 0x0, symName: __ZN3glm3vecILi2EfLNS_9qualifierE0EEpLIfEERS2_RKNS0_ILi2ET_LS1_0EEE, symObjAddr: 0x3138, symBinAddr: 0x10001FE3C, symSize: 0x40 }
  - { offsetInCU: 0x11E47, offset: 0x5C911, size: 0x8, addend: 0x0, symName: __ZN4MeshaSERKS_, symObjAddr: 0x3178, symBinAddr: 0x10001FE7C, symSize: 0x68 }
  - { offsetInCU: 0x11E77, offset: 0x5C941, size: 0x8, addend: 0x0, symName: __ZN6Player11apply_forceEff, symObjAddr: 0x3224, symBinAddr: 0x10001FF28, symSize: 0x3C }
  - { offsetInCU: 0x11EBC, offset: 0x5C986, size: 0x8, addend: 0x0, symName: __ZN6Player4drawER6Shader, symObjAddr: 0x3260, symBinAddr: 0x10001FF64, symSize: 0x15C }
  - { offsetInCU: 0x11EF2, offset: 0x5C9BC, size: 0x8, addend: 0x0, symName: __ZN6Player7animateEf, symObjAddr: 0x33BC, symBinAddr: 0x1000200C0, symSize: 0x1A4 }
  - { offsetInCU: 0x11F37, offset: 0x5CA01, size: 0x8, addend: 0x0, symName: __ZNSt3__113unordered_mapI14PlayerMovementN6Player13AnimationDataENS_4hashIS1_EENS_8equal_toIS1_EENS_9allocatorINS_4pairIKS1_S3_EEEEEixERSA_, symObjAddr: 0x3560, symBinAddr: 0x100020264, symSize: 0x80 }
  - { offsetInCU: 0x11F6D, offset: 0x5CA37, size: 0x8, addend: 0x0, symName: __ZN6Player12processInputEP10GLFWwindowf, symObjAddr: 0x35E0, symBinAddr: 0x1000202E4, symSize: 0x17C }
  - { offsetInCU: 0x11FC1, offset: 0x5CA8B, size: 0x8, addend: 0x0, symName: __ZN6Player15processMovementE11PlayerInputf, symObjAddr: 0x375C, symBinAddr: 0x100020460, symSize: 0x2E8 }
  - { offsetInCU: 0x12024, offset: 0x5CAEE, size: 0x8, addend: 0x0, symName: __ZN6Player15getGlobalCenterEv, symObjAddr: 0x3A44, symBinAddr: 0x100020748, symSize: 0x78 }
  - { offsetInCU: 0x1204B, offset: 0x5CB15, size: 0x8, addend: 0x0, symName: __ZL6toVec2RKN3glm3vecILi3EfLNS_9qualifierE0EEE, symObjAddr: 0x3ABC, symBinAddr: 0x1000207C0, symSize: 0x3C }
  - { offsetInCU: 0x12078, offset: 0x5CB42, size: 0x8, addend: 0x0, symName: __ZN6Player20getVec_centre_to_topEv, symObjAddr: 0x3B24, symBinAddr: 0x1000207FC, symSize: 0x90 }
  - { offsetInCU: 0x1209F, offset: 0x5CB69, size: 0x8, addend: 0x0, symName: __ZN6Player23getVec_centre_to_bottomEv, symObjAddr: 0x3BB4, symBinAddr: 0x10002088C, symSize: 0x90 }
  - { offsetInCU: 0x120C6, offset: 0x5CB90, size: 0x8, addend: 0x0, symName: __ZN6Player21getVec_centre_to_leftEv, symObjAddr: 0x3C44, symBinAddr: 0x10002091C, symSize: 0x90 }
  - { offsetInCU: 0x120ED, offset: 0x5CBB7, size: 0x8, addend: 0x0, symName: __ZN6Player5printEv, symObjAddr: 0x3CD4, symBinAddr: 0x1000209AC, symSize: 0x11C }
  - { offsetInCU: 0x12114, offset: 0x5CBDE, size: 0x8, addend: 0x0, symName: __ZN6Player17movement_toStringE14PlayerMovement, symObjAddr: 0x3DF0, symBinAddr: 0x100020AC8, symSize: 0x114 }
  - { offsetInCU: 0x1214A, offset: 0x5CC14, size: 0x8, addend: 0x0, symName: __ZN6Player14input_toStringE11PlayerInput, symObjAddr: 0x3F4C, symBinAddr: 0x100020C00, symSize: 0xB0 }
  - { offsetInCU: 0x12180, offset: 0x5CC4A, size: 0x8, addend: 0x0, symName: __ZN3glm3vecILi2EfLNS_9qualifierE0EEC2IifEET_T0_, symObjAddr: 0x4040, symBinAddr: 0x100020CC0, symSize: 0x30 }
  - { offsetInCU: 0x121E4, offset: 0x5CCAE, size: 0x8, addend: 0x0, symName: __ZN6Player13AnimationDataC2Eii10CycleStyle, symObjAddr: 0x4590, symBinAddr: 0x100020CF0, symSize: 0x68 }
  - { offsetInCU: 0x1223C, offset: 0x5CD06, size: 0x8, addend: 0x0, symName: __ZNKSt3__111__wrap_iterIPP4MeshE4baseB7v160006Ev, symObjAddr: 0x6310, symBinAddr: 0x100020DA0, symSize: 0x18 }
  - { offsetInCU: 0x12280, offset: 0x5CD4A, size: 0x8, addend: 0x0, symName: __ZL17find_intersectionN3glm3vecILi2EfLNS_9qualifierE0EEES2_S2_S2_, symObjAddr: 0x9CCC, symBinAddr: 0x100020DB8, symSize: 0x250 }
  - { offsetInCU: 0x12330, offset: 0x5CDFA, size: 0x8, addend: 0x0, symName: __ZL25find_closest_intersectionP12IntersectionjN3glm3vecILi2EfLNS1_9qualifierE0EEE, symObjAddr: 0x9F1C, symBinAddr: 0x100021008, symSize: 0x194 }
  - { offsetInCU: 0x123A3, offset: 0x5CE6D, size: 0x8, addend: 0x0, symName: __ZL7cross2DN3glm3vecILi2EfLNS_9qualifierE0EEES2_, symObjAddr: 0xA0B0, symBinAddr: 0x10002119C, symSize: 0x34 }
  - { offsetInCU: 0x123DE, offset: 0x5CEA8, size: 0x8, addend: 0x0, symName: __ZN3glm6detail16compute_distanceILi2EfLNS_9qualifierE0ELb0EE4callERKNS_3vecILi2EfLS2_0EEES7_, symObjAddr: 0xA110, symBinAddr: 0x1000211FC, symSize: 0x3C }
  - { offsetInCU: 0x1240E, offset: 0x5CED8, size: 0x8, addend: 0x0, symName: __ZN3glm3vecILi2EfLNS_9qualifierE0EEC2IfiEET_T0_, symObjAddr: 0xA14C, symBinAddr: 0x100021238, symSize: 0x30 }
  - { offsetInCU: 0x12466, offset: 0x5CF30, size: 0x8, addend: 0x0, symName: __ZN3glm6detail13compute_equalIfLb1EE4callEff, symObjAddr: 0xA1E4, symBinAddr: 0x1000212D0, symSize: 0x28 }
  - { offsetInCU: 0x12497, offset: 0x5CF61, size: 0x8, addend: 0x0, symName: __ZN4MeshC2ERKS_, symObjAddr: 0xA238, symBinAddr: 0x1000212F8, symSize: 0xB4 }
  - { offsetInCU: 0x124ED, offset: 0x5CFB7, size: 0x8, addend: 0x0, symName: __ZNKSt3__111__wrap_iterIP6VertexE4baseB7v160006Ev, symObjAddr: 0xB11C, symBinAddr: 0x1000213F4, symSize: 0x18 }
  - { offsetInCU: 0x12544, offset: 0x5D00E, size: 0x8, addend: 0x0, symName: __ZN3glm6detail14compute_lengthILi2EfLNS_9qualifierE0ELb0EE4callERKNS_3vecILi2EfLS2_0EEE, symObjAddr: 0xE760, symBinAddr: 0x10002140C, symSize: 0x2C }
  - { offsetInCU: 0x12566, offset: 0x5D030, size: 0x8, addend: 0x0, symName: __ZN3glm6detail11compute_dotINS_3vecILi2EfLNS_9qualifierE0EEEfLb0EE4callERKS4_S7_, symObjAddr: 0xE7D0, symBinAddr: 0x100021464, symSize: 0x40 }
  - { offsetInCU: 0x125A4, offset: 0x5D06E, size: 0x8, addend: 0x0, symName: __ZNSt3__113unordered_mapI14PlayerMovementN6Player13AnimationDataENS_4hashIS1_EENS_8equal_toIS1_EENS_9allocatorINS_4pairIKS1_S3_EEEEEC2B7v160006Ev, symObjAddr: 0xE868, symBinAddr: 0x1000214FC, symSize: 0x3C }
  - { offsetInCU: 0x125CD, offset: 0x5D097, size: 0x8, addend: 0x0, symName: __ZNSt3__112__hash_tableINS_17__hash_value_typeI14PlayerMovementN6Player13AnimationDataEEENS_22__unordered_map_hasherIS2_S5_NS_4hashIS2_EENS_8equal_toIS2_EELb1EEENS_21__unordered_map_equalIS2_S5_SA_S8_Lb1EEENS_9allocatorIS5_EEEC1Ev, symObjAddr: 0xE8A4, symBinAddr: 0x100021538, symSize: 0x2C }
  - { offsetInCU: 0x125F8, offset: 0x5D0C2, size: 0x8, addend: 0x0, symName: __ZNSt3__112__hash_tableINS_17__hash_value_typeI14PlayerMovementN6Player13AnimationDataEEENS_22__unordered_map_hasherIS2_S5_NS_4hashIS2_EENS_8equal_toIS2_EELb1EEENS_21__unordered_map_equalIS2_S5_SA_S8_Lb1EEENS_9allocatorIS5_EEEC2Ev, symObjAddr: 0xE8E0, symBinAddr: 0x100021574, symSize: 0x7C }
  - { offsetInCU: 0x12623, offset: 0x5D0ED, size: 0x8, addend: 0x0, symName: __ZNSt3__110unique_ptrIA_PNS_16__hash_node_baseIPNS_11__hash_nodeINS_17__hash_value_typeI14PlayerMovementN6Player13AnimationDataEEEPvEEEENS_25__bucket_list_deallocatorINS_9allocatorISC_EEEEEC1B7v160006ILb1EvEEv, symObjAddr: 0xE95C, symBinAddr: 0x1000215F0, symSize: 0x2C }
  - { offsetInCU: 0x12657, offset: 0x5D121, size: 0x8, addend: 0x0, symName: __ZNSt3__117__compressed_pairINS_16__hash_node_baseIPNS_11__hash_nodeINS_17__hash_value_typeI14PlayerMovementN6Player13AnimationDataEEEPvEEEENS_9allocatorIS9_EEEC1B7v160006ILb1EvEEv, symObjAddr: 0xE988, symBinAddr: 0x10002161C, symSize: 0x2C }
  - { offsetInCU: 0x12691, offset: 0x5D15B, size: 0x8, addend: 0x0, symName: __ZNSt3__117__compressed_pairImNS_22__unordered_map_hasherI14PlayerMovementNS_17__hash_value_typeIS2_N6Player13AnimationDataEEENS_4hashIS2_EENS_8equal_toIS2_EELb1EEEEC1B7v160006IiNS_18__default_init_tagEEEOT_OT0_, symObjAddr: 0xE9B4, symBinAddr: 0x100021648, symSize: 0x3C }
  - { offsetInCU: 0x126EE, offset: 0x5D1B8, size: 0x8, addend: 0x0, symName: __ZNSt3__117__compressed_pairIfNS_21__unordered_map_equalI14PlayerMovementNS_17__hash_value_typeIS2_N6Player13AnimationDataEEENS_8equal_toIS2_EENS_4hashIS2_EELb1EEEEC1B7v160006IfNS_18__default_init_tagEEEOT_OT0_, symObjAddr: 0xE9F0, symBinAddr: 0x100021684, symSize: 0x3C }
  - { offsetInCU: 0x12745, offset: 0x5D20F, size: 0x8, addend: 0x0, symName: __ZNSt3__110unique_ptrIA_PNS_16__hash_node_baseIPNS_11__hash_nodeINS_17__hash_value_typeI14PlayerMovementN6Player13AnimationDataEEEPvEEEENS_25__bucket_list_deallocatorINS_9allocatorISC_EEEEEC2B7v160006ILb1EvEEv, symObjAddr: 0xEA2C, symBinAddr: 0x1000216C0, symSize: 0x3C }
  - { offsetInCU: 0x1277F, offset: 0x5D249, size: 0x8, addend: 0x0, symName: __ZNSt3__117__compressed_pairIPPNS_16__hash_node_baseIPNS_11__hash_nodeINS_17__hash_value_typeI14PlayerMovementN6Player13AnimationDataEEEPvEEEENS_25__bucket_list_deallocatorINS_9allocatorISC_EEEEEC1B7v160006INS_16__value_init_tagESK_EEOT_OT0_, symObjAddr: 0xEA68, symBinAddr: 0x1000216FC, symSize: 0x3C }
  - { offsetInCU: 0x127D6, offset: 0x5D2A0, size: 0x8, addend: 0x0, symName: __ZNSt3__117__compressed_pairIPPNS_16__hash_node_baseIPNS_11__hash_nodeINS_17__hash_value_typeI14PlayerMovementN6Player13AnimationDataEEEPvEEEENS_25__bucket_list_deallocatorINS_9allocatorISC_EEEEEC2B7v160006INS_16__value_init_tagESK_EEOT_OT0_, symObjAddr: 0xEAA4, symBinAddr: 0x100021738, symSize: 0x40 }
  - { offsetInCU: 0x1282D, offset: 0x5D2F7, size: 0x8, addend: 0x0, symName: __ZNSt3__122__compressed_pair_elemIPPNS_16__hash_node_baseIPNS_11__hash_nodeINS_17__hash_value_typeI14PlayerMovementN6Player13AnimationDataEEEPvEEEELi0ELb0EEC2B7v160006ENS_16__value_init_tagE, symObjAddr: 0xEAE4, symBinAddr: 0x100021778, symSize: 0x18 }
  - { offsetInCU: 0x12861, offset: 0x5D32B, size: 0x8, addend: 0x0, symName: __ZNSt3__122__compressed_pair_elemINS_25__bucket_list_deallocatorINS_9allocatorIPNS_16__hash_node_baseIPNS_11__hash_nodeINS_17__hash_value_typeI14PlayerMovementN6Player13AnimationDataEEEPvEEEEEEEELi1ELb0EEC2B7v160006ENS_16__value_init_tagE, symObjAddr: 0xEAFC, symBinAddr: 0x100021790, symSize: 0x2C }
  - { offsetInCU: 0x12895, offset: 0x5D35F, size: 0x8, addend: 0x0, symName: __ZNSt3__125__bucket_list_deallocatorINS_9allocatorIPNS_16__hash_node_baseIPNS_11__hash_nodeINS_17__hash_value_typeI14PlayerMovementN6Player13AnimationDataEEEPvEEEEEEEC1B7v160006Ev, symObjAddr: 0xEB28, symBinAddr: 0x1000217BC, symSize: 0x2C }
  - { offsetInCU: 0x128BE, offset: 0x5D388, size: 0x8, addend: 0x0, symName: __ZNSt3__125__bucket_list_deallocatorINS_9allocatorIPNS_16__hash_node_baseIPNS_11__hash_nodeINS_17__hash_value_typeI14PlayerMovementN6Player13AnimationDataEEEPvEEEEEEEC2B7v160006Ev, symObjAddr: 0xEB54, symBinAddr: 0x1000217E8, symSize: 0x40 }
  - { offsetInCU: 0x128E7, offset: 0x5D3B1, size: 0x8, addend: 0x0, symName: __ZNSt3__117__compressed_pairImNS_9allocatorIPNS_16__hash_node_baseIPNS_11__hash_nodeINS_17__hash_value_typeI14PlayerMovementN6Player13AnimationDataEEEPvEEEEEEEC1B7v160006IiNS_18__default_init_tagEEEOT_OT0_, symObjAddr: 0xEB94, symBinAddr: 0x100021828, symSize: 0x3C }
  - { offsetInCU: 0x1293E, offset: 0x5D408, size: 0x8, addend: 0x0, symName: __ZNSt3__117__compressed_pairImNS_9allocatorIPNS_16__hash_node_baseIPNS_11__hash_nodeINS_17__hash_value_typeI14PlayerMovementN6Player13AnimationDataEEEPvEEEEEEEC2B7v160006IiNS_18__default_init_tagEEEOT_OT0_, symObjAddr: 0xEBD0, symBinAddr: 0x100021864, symSize: 0x40 }
  - { offsetInCU: 0x12995, offset: 0x5D45F, size: 0x8, addend: 0x0, symName: __ZNSt3__122__compressed_pair_elemImLi0ELb0EEC2B7v160006IivEEOT_, symObjAddr: 0xEC10, symBinAddr: 0x1000218A4, symSize: 0x24 }
  - { offsetInCU: 0x129D6, offset: 0x5D4A0, size: 0x8, addend: 0x0, symName: __ZNSt3__122__compressed_pair_elemINS_9allocatorIPNS_16__hash_node_baseIPNS_11__hash_nodeINS_17__hash_value_typeI14PlayerMovementN6Player13AnimationDataEEEPvEEEEEELi1ELb1EEC2B7v160006ENS_18__default_init_tagE, symObjAddr: 0xEC34, symBinAddr: 0x1000218C8, symSize: 0x2C }
  - { offsetInCU: 0x12A0A, offset: 0x5D4D4, size: 0x8, addend: 0x0, symName: __ZNSt3__19allocatorIPNS_16__hash_node_baseIPNS_11__hash_nodeINS_17__hash_value_typeI14PlayerMovementN6Player13AnimationDataEEEPvEEEEEC2B7v160006Ev, symObjAddr: 0xEC60, symBinAddr: 0x1000218F4, symSize: 0x2C }
  - { offsetInCU: 0x12A33, offset: 0x5D4FD, size: 0x8, addend: 0x0, symName: __ZNSt3__116__non_trivial_ifILb1ENS_9allocatorIPNS_16__hash_node_baseIPNS_11__hash_nodeINS_17__hash_value_typeI14PlayerMovementN6Player13AnimationDataEEEPvEEEEEEEC2B7v160006Ev, symObjAddr: 0xEC8C, symBinAddr: 0x100021920, symSize: 0x14 }
  - { offsetInCU: 0x12A5C, offset: 0x5D526, size: 0x8, addend: 0x0, symName: __ZNSt3__117__compressed_pairINS_16__hash_node_baseIPNS_11__hash_nodeINS_17__hash_value_typeI14PlayerMovementN6Player13AnimationDataEEEPvEEEENS_9allocatorIS9_EEEC2B7v160006ILb1EvEEv, symObjAddr: 0xECA0, symBinAddr: 0x100021934, symSize: 0x34 }
  - { offsetInCU: 0x12A90, offset: 0x5D55A, size: 0x8, addend: 0x0, symName: __ZNSt3__122__compressed_pair_elemINS_16__hash_node_baseIPNS_11__hash_nodeINS_17__hash_value_typeI14PlayerMovementN6Player13AnimationDataEEEPvEEEELi0ELb0EEC2B7v160006ENS_16__value_init_tagE, symObjAddr: 0xECD4, symBinAddr: 0x100021968, symSize: 0x2C }
  - { offsetInCU: 0x12AC4, offset: 0x5D58E, size: 0x8, addend: 0x0, symName: __ZNSt3__122__compressed_pair_elemINS_9allocatorINS_11__hash_nodeINS_17__hash_value_typeI14PlayerMovementN6Player13AnimationDataEEEPvEEEELi1ELb1EEC2B7v160006ENS_16__value_init_tagE, symObjAddr: 0xED00, symBinAddr: 0x100021994, symSize: 0x2C }
  - { offsetInCU: 0x12AF8, offset: 0x5D5C2, size: 0x8, addend: 0x0, symName: __ZNSt3__116__hash_node_baseIPNS_11__hash_nodeINS_17__hash_value_typeI14PlayerMovementN6Player13AnimationDataEEEPvEEEC1B7v160006Ev, symObjAddr: 0xED2C, symBinAddr: 0x1000219C0, symSize: 0x2C }
  - { offsetInCU: 0x12B21, offset: 0x5D5EB, size: 0x8, addend: 0x0, symName: __ZNSt3__116__hash_node_baseIPNS_11__hash_nodeINS_17__hash_value_typeI14PlayerMovementN6Player13AnimationDataEEEPvEEEC2B7v160006Ev, symObjAddr: 0xED58, symBinAddr: 0x1000219EC, symSize: 0x18 }
  - { offsetInCU: 0x12B4A, offset: 0x5D614, size: 0x8, addend: 0x0, symName: __ZNSt3__19allocatorINS_11__hash_nodeINS_17__hash_value_typeI14PlayerMovementN6Player13AnimationDataEEEPvEEEC2B7v160006Ev, symObjAddr: 0xED70, symBinAddr: 0x100021A04, symSize: 0x2C }
  - { offsetInCU: 0x12B73, offset: 0x5D63D, size: 0x8, addend: 0x0, symName: __ZNSt3__116__non_trivial_ifILb1ENS_9allocatorINS_11__hash_nodeINS_17__hash_value_typeI14PlayerMovementN6Player13AnimationDataEEEPvEEEEEC2B7v160006Ev, symObjAddr: 0xED9C, symBinAddr: 0x100021A30, symSize: 0x14 }
  - { offsetInCU: 0x12B9C, offset: 0x5D666, size: 0x8, addend: 0x0, symName: __ZNSt3__117__compressed_pairImNS_22__unordered_map_hasherI14PlayerMovementNS_17__hash_value_typeIS2_N6Player13AnimationDataEEENS_4hashIS2_EENS_8equal_toIS2_EELb1EEEEC2B7v160006IiNS_18__default_init_tagEEEOT_OT0_, symObjAddr: 0xEDB0, symBinAddr: 0x100021A44, symSize: 0x40 }
  - { offsetInCU: 0x12BF3, offset: 0x5D6BD, size: 0x8, addend: 0x0, symName: __ZNSt3__122__compressed_pair_elemINS_22__unordered_map_hasherI14PlayerMovementNS_17__hash_value_typeIS2_N6Player13AnimationDataEEENS_4hashIS2_EENS_8equal_toIS2_EELb1EEELi1ELb1EEC2B7v160006ENS_18__default_init_tagE, symObjAddr: 0xEDF0, symBinAddr: 0x100021A84, symSize: 0x2C }
  - { offsetInCU: 0x12C27, offset: 0x5D6F1, size: 0x8, addend: 0x0, symName: __ZNSt3__122__unordered_map_hasherI14PlayerMovementNS_17__hash_value_typeIS1_N6Player13AnimationDataEEENS_4hashIS1_EENS_8equal_toIS1_EELb1EEC2B7v160006Ev, symObjAddr: 0xEE1C, symBinAddr: 0x100021AB0, symSize: 0x14 }
  - { offsetInCU: 0x12C50, offset: 0x5D71A, size: 0x8, addend: 0x0, symName: __ZNSt3__117__compressed_pairIfNS_21__unordered_map_equalI14PlayerMovementNS_17__hash_value_typeIS2_N6Player13AnimationDataEEENS_8equal_toIS2_EENS_4hashIS2_EELb1EEEEC2B7v160006IfNS_18__default_init_tagEEEOT_OT0_, symObjAddr: 0xEE30, symBinAddr: 0x100021AC4, symSize: 0x40 }
  - { offsetInCU: 0x12CA7, offset: 0x5D771, size: 0x8, addend: 0x0, symName: __ZNSt3__122__compressed_pair_elemIfLi0ELb0EEC2B7v160006IfvEEOT_, symObjAddr: 0xEE70, symBinAddr: 0x100021B04, symSize: 0x24 }
  - { offsetInCU: 0x12CE8, offset: 0x5D7B2, size: 0x8, addend: 0x0, symName: __ZNSt3__122__compressed_pair_elemINS_21__unordered_map_equalI14PlayerMovementNS_17__hash_value_typeIS2_N6Player13AnimationDataEEENS_8equal_toIS2_EENS_4hashIS2_EELb1EEELi1ELb1EEC2B7v160006ENS_18__default_init_tagE, symObjAddr: 0xEE94, symBinAddr: 0x100021B28, symSize: 0x2C }
  - { offsetInCU: 0x12D1C, offset: 0x5D7E6, size: 0x8, addend: 0x0, symName: __ZNSt3__121__unordered_map_equalI14PlayerMovementNS_17__hash_value_typeIS1_N6Player13AnimationDataEEENS_8equal_toIS1_EENS_4hashIS1_EELb1EEC2B7v160006Ev, symObjAddr: 0xEEC0, symBinAddr: 0x100021B54, symSize: 0x14 }
  - { offsetInCU: 0x12D45, offset: 0x5D80F, size: 0x8, addend: 0x0, symName: __ZNSt3__113unordered_mapI14PlayerMovementN6Player13AnimationDataENS_4hashIS1_EENS_8equal_toIS1_EENS_9allocatorINS_4pairIKS1_S3_EEEEED2B7v160006Ev, symObjAddr: 0xEED4, symBinAddr: 0x100021B68, symSize: 0x2C }
  - { offsetInCU: 0x12D6E, offset: 0x5D838, size: 0x8, addend: 0x0, symName: __ZNSt3__112__hash_tableINS_17__hash_value_typeI14PlayerMovementN6Player13AnimationDataEEENS_22__unordered_map_hasherIS2_S5_NS_4hashIS2_EENS_8equal_toIS2_EELb1EEENS_21__unordered_map_equalIS2_S5_SA_S8_Lb1EEENS_9allocatorIS5_EEED1Ev, symObjAddr: 0xEF00, symBinAddr: 0x100021B94, symSize: 0x2C }
  - { offsetInCU: 0x12D99, offset: 0x5D863, size: 0x8, addend: 0x0, symName: __ZNSt3__112__hash_tableINS_17__hash_value_typeI14PlayerMovementN6Player13AnimationDataEEENS_22__unordered_map_hasherIS2_S5_NS_4hashIS2_EENS_8equal_toIS2_EELb1EEENS_21__unordered_map_equalIS2_S5_SA_S8_Lb1EEENS_9allocatorIS5_EEED2Ev, symObjAddr: 0xEF2C, symBinAddr: 0x100021BC0, symSize: 0x58 }
  - { offsetInCU: 0x12DC4, offset: 0x5D88E, size: 0x8, addend: 0x0, symName: __ZNSt3__112__hash_tableINS_17__hash_value_typeI14PlayerMovementN6Player13AnimationDataEEENS_22__unordered_map_hasherIS2_S5_NS_4hashIS2_EENS_8equal_toIS2_EELb1EEENS_21__unordered_map_equalIS2_S5_SA_S8_Lb1EEENS_9allocatorIS5_EEE17__deallocate_nodeEPNS_16__hash_node_baseIPNS_11__hash_nodeIS5_PvEEEE, symObjAddr: 0xEF84, symBinAddr: 0x100021C18, symSize: 0xA8 }
  - { offsetInCU: 0x12E2E, offset: 0x5D8F8, size: 0x8, addend: 0x0, symName: __ZNSt3__117__compressed_pairINS_16__hash_node_baseIPNS_11__hash_nodeINS_17__hash_value_typeI14PlayerMovementN6Player13AnimationDataEEEPvEEEENS_9allocatorIS9_EEE5firstB7v160006Ev, symObjAddr: 0xF02C, symBinAddr: 0x100021CC0, symSize: 0x24 }
  - { offsetInCU: 0x12E53, offset: 0x5D91D, size: 0x8, addend: 0x0, symName: __ZNSt3__110unique_ptrIA_PNS_16__hash_node_baseIPNS_11__hash_nodeINS_17__hash_value_typeI14PlayerMovementN6Player13AnimationDataEEEPvEEEENS_25__bucket_list_deallocatorINS_9allocatorISC_EEEEED1B7v160006Ev, symObjAddr: 0xF060, symBinAddr: 0x100021CF4, symSize: 0x2C }
  - { offsetInCU: 0x12E7C, offset: 0x5D946, size: 0x8, addend: 0x0, symName: __ZNSt3__112__hash_tableINS_17__hash_value_typeI14PlayerMovementN6Player13AnimationDataEEENS_22__unordered_map_hasherIS2_S5_NS_4hashIS2_EENS_8equal_toIS2_EELb1EEENS_21__unordered_map_equalIS2_S5_SA_S8_Lb1EEENS_9allocatorIS5_EEE12__node_allocB7v160006Ev, symObjAddr: 0xF08C, symBinAddr: 0x100021D20, symSize: 0x28 }
  - { offsetInCU: 0x12EA1, offset: 0x5D96B, size: 0x8, addend: 0x0, symName: __ZNSt3__116__hash_node_baseIPNS_11__hash_nodeINS_17__hash_value_typeI14PlayerMovementN6Player13AnimationDataEEEPvEEE8__upcastB7v160006Ev, symObjAddr: 0xF0B4, symBinAddr: 0x100021D48, symSize: 0x24 }
  - { offsetInCU: 0x12EC6, offset: 0x5D990, size: 0x8, addend: 0x0, symName: __ZNSt3__116allocator_traitsINS_9allocatorINS_11__hash_nodeINS_17__hash_value_typeI14PlayerMovementN6Player13AnimationDataEEEPvEEEEE7destroyB7v160006INS_4pairIKS4_S6_EEvvEEvRSA_PT_, symObjAddr: 0xF0D8, symBinAddr: 0x100021D6C, symSize: 0x14 }
  - { offsetInCU: 0x12F00, offset: 0x5D9CA, size: 0x8, addend: 0x0, symName: __ZNSt3__122__hash_key_value_typesINS_17__hash_value_typeI14PlayerMovementN6Player13AnimationDataEEEE9__get_ptrB7v160006ERS5_, symObjAddr: 0xF0EC, symBinAddr: 0x100021D80, symSize: 0x24 }
  - { offsetInCU: 0x12F22, offset: 0x5D9EC, size: 0x8, addend: 0x0, symName: __ZNSt3__116allocator_traitsINS_9allocatorINS_11__hash_nodeINS_17__hash_value_typeI14PlayerMovementN6Player13AnimationDataEEEPvEEEEE10deallocateB7v160006ERSA_PS9_m, symObjAddr: 0xF110, symBinAddr: 0x100021DA4, symSize: 0x34 }
  - { offsetInCU: 0x12F63, offset: 0x5DA2D, size: 0x8, addend: 0x0, symName: __ZNSt3__117__compressed_pairINS_16__hash_node_baseIPNS_11__hash_nodeINS_17__hash_value_typeI14PlayerMovementN6Player13AnimationDataEEEPvEEEENS_9allocatorIS9_EEE6secondB7v160006Ev, symObjAddr: 0xF144, symBinAddr: 0x100021DD8, symSize: 0x24 }
  - { offsetInCU: 0x12F88, offset: 0x5DA52, size: 0x8, addend: 0x0, symName: __ZNSt3__122__compressed_pair_elemINS_9allocatorINS_11__hash_nodeINS_17__hash_value_typeI14PlayerMovementN6Player13AnimationDataEEEPvEEEELi1ELb1EE5__getB7v160006Ev, symObjAddr: 0xF168, symBinAddr: 0x100021DFC, symSize: 0x14 }
  - { offsetInCU: 0x12FAD, offset: 0x5DA77, size: 0x8, addend: 0x0, symName: __ZNSt3__114pointer_traitsIPNS_16__hash_node_baseIPNS_11__hash_nodeINS_17__hash_value_typeI14PlayerMovementN6Player13AnimationDataEEEPvEEEEE10pointer_toB7v160006ERSB_, symObjAddr: 0xF17C, symBinAddr: 0x100021E10, symSize: 0x14 }
  - { offsetInCU: 0x12FD0, offset: 0x5DA9A, size: 0x8, addend: 0x0, symName: __ZNSt3__117__hash_value_typeI14PlayerMovementN6Player13AnimationDataEE11__get_valueB7v160006Ev, symObjAddr: 0xF190, symBinAddr: 0x100021E24, symSize: 0x24 }
  - { offsetInCU: 0x12FF5, offset: 0x5DABF, size: 0x8, addend: 0x0, symName: __ZNSt3__19allocatorINS_11__hash_nodeINS_17__hash_value_typeI14PlayerMovementN6Player13AnimationDataEEEPvEEE10deallocateB7v160006EPS8_m, symObjAddr: 0xF1EC, symBinAddr: 0x100021E80, symSize: 0x44 }
  - { offsetInCU: 0x13036, offset: 0x5DB00, size: 0x8, addend: 0x0, symName: __ZNSt3__122__compressed_pair_elemINS_16__hash_node_baseIPNS_11__hash_nodeINS_17__hash_value_typeI14PlayerMovementN6Player13AnimationDataEEEPvEEEELi0ELb0EE5__getB7v160006Ev, symObjAddr: 0xF230, symBinAddr: 0x100021EC4, symSize: 0x14 }
  - { offsetInCU: 0x1305B, offset: 0x5DB25, size: 0x8, addend: 0x0, symName: __ZNSt3__110unique_ptrIA_PNS_16__hash_node_baseIPNS_11__hash_nodeINS_17__hash_value_typeI14PlayerMovementN6Player13AnimationDataEEEPvEEEENS_25__bucket_list_deallocatorINS_9allocatorISC_EEEEED2B7v160006Ev, symObjAddr: 0xF244, symBinAddr: 0x100021ED8, symSize: 0x30 }
  - { offsetInCU: 0x13084, offset: 0x5DB4E, size: 0x8, addend: 0x0, symName: __ZNSt3__110unique_ptrIA_PNS_16__hash_node_baseIPNS_11__hash_nodeINS_17__hash_value_typeI14PlayerMovementN6Player13AnimationDataEEEPvEEEENS_25__bucket_list_deallocatorINS_9allocatorISC_EEEEE5resetB7v160006EDn, symObjAddr: 0xF274, symBinAddr: 0x100021F08, symSize: 0x6C }
  - { offsetInCU: 0x130C3, offset: 0x5DB8D, size: 0x8, addend: 0x0, symName: __ZNSt3__117__compressed_pairIPPNS_16__hash_node_baseIPNS_11__hash_nodeINS_17__hash_value_typeI14PlayerMovementN6Player13AnimationDataEEEPvEEEENS_25__bucket_list_deallocatorINS_9allocatorISC_EEEEE5firstB7v160006Ev, symObjAddr: 0xF2E0, symBinAddr: 0x100021F74, symSize: 0x24 }
  - { offsetInCU: 0x130E8, offset: 0x5DBB2, size: 0x8, addend: 0x0, symName: __ZNSt3__117__compressed_pairIPPNS_16__hash_node_baseIPNS_11__hash_nodeINS_17__hash_value_typeI14PlayerMovementN6Player13AnimationDataEEEPvEEEENS_25__bucket_list_deallocatorINS_9allocatorISC_EEEEE6secondB7v160006Ev, symObjAddr: 0xF304, symBinAddr: 0x100021F98, symSize: 0x28 }
  - { offsetInCU: 0x1310D, offset: 0x5DBD7, size: 0x8, addend: 0x0, symName: __ZNSt3__125__bucket_list_deallocatorINS_9allocatorIPNS_16__hash_node_baseIPNS_11__hash_nodeINS_17__hash_value_typeI14PlayerMovementN6Player13AnimationDataEEEPvEEEEEEEclB7v160006EPSD_, symObjAddr: 0xF32C, symBinAddr: 0x100021FC0, symSize: 0x58 }
  - { offsetInCU: 0x13141, offset: 0x5DC0B, size: 0x8, addend: 0x0, symName: __ZNSt3__122__compressed_pair_elemIPPNS_16__hash_node_baseIPNS_11__hash_nodeINS_17__hash_value_typeI14PlayerMovementN6Player13AnimationDataEEEPvEEEELi0ELb0EE5__getB7v160006Ev, symObjAddr: 0xF384, symBinAddr: 0x100022018, symSize: 0x14 }
  - { offsetInCU: 0x13166, offset: 0x5DC30, size: 0x8, addend: 0x0, symName: __ZNSt3__122__compressed_pair_elemINS_25__bucket_list_deallocatorINS_9allocatorIPNS_16__hash_node_baseIPNS_11__hash_nodeINS_17__hash_value_typeI14PlayerMovementN6Player13AnimationDataEEEPvEEEEEEEELi1ELb0EE5__getB7v160006Ev, symObjAddr: 0xF398, symBinAddr: 0x10002202C, symSize: 0x14 }
  - { offsetInCU: 0x1318B, offset: 0x5DC55, size: 0x8, addend: 0x0, symName: __ZNSt3__116allocator_traitsINS_9allocatorIPNS_16__hash_node_baseIPNS_11__hash_nodeINS_17__hash_value_typeI14PlayerMovementN6Player13AnimationDataEEEPvEEEEEEE10deallocateB7v160006ERSE_PSD_m, symObjAddr: 0xF3AC, symBinAddr: 0x100022040, symSize: 0x34 }
  - { offsetInCU: 0x131CC, offset: 0x5DC96, size: 0x8, addend: 0x0, symName: __ZNSt3__125__bucket_list_deallocatorINS_9allocatorIPNS_16__hash_node_baseIPNS_11__hash_nodeINS_17__hash_value_typeI14PlayerMovementN6Player13AnimationDataEEEPvEEEEEEE7__allocB7v160006Ev, symObjAddr: 0xF3E0, symBinAddr: 0x100022074, symSize: 0x24 }
  - { offsetInCU: 0x131F1, offset: 0x5DCBB, size: 0x8, addend: 0x0, symName: __ZNSt3__125__bucket_list_deallocatorINS_9allocatorIPNS_16__hash_node_baseIPNS_11__hash_nodeINS_17__hash_value_typeI14PlayerMovementN6Player13AnimationDataEEEPvEEEEEEE4sizeB7v160006Ev, symObjAddr: 0xF404, symBinAddr: 0x100022098, symSize: 0x24 }
  - { offsetInCU: 0x13216, offset: 0x5DCE0, size: 0x8, addend: 0x0, symName: __ZNSt3__19allocatorIPNS_16__hash_node_baseIPNS_11__hash_nodeINS_17__hash_value_typeI14PlayerMovementN6Player13AnimationDataEEEPvEEEEE10deallocateB7v160006EPSC_m, symObjAddr: 0xF428, symBinAddr: 0x1000220BC, symSize: 0x40 }
  - { offsetInCU: 0x13257, offset: 0x5DD21, size: 0x8, addend: 0x0, symName: __ZNSt3__117__compressed_pairImNS_9allocatorIPNS_16__hash_node_baseIPNS_11__hash_nodeINS_17__hash_value_typeI14PlayerMovementN6Player13AnimationDataEEEPvEEEEEEE6secondB7v160006Ev, symObjAddr: 0xF468, symBinAddr: 0x1000220FC, symSize: 0x24 }
  - { offsetInCU: 0x1327C, offset: 0x5DD46, size: 0x8, addend: 0x0, symName: __ZNSt3__122__compressed_pair_elemINS_9allocatorIPNS_16__hash_node_baseIPNS_11__hash_nodeINS_17__hash_value_typeI14PlayerMovementN6Player13AnimationDataEEEPvEEEEEELi1ELb1EE5__getB7v160006Ev, symObjAddr: 0xF48C, symBinAddr: 0x100022120, symSize: 0x14 }
  - { offsetInCU: 0x132A1, offset: 0x5DD6B, size: 0x8, addend: 0x0, symName: __ZNSt3__117__compressed_pairImNS_9allocatorIPNS_16__hash_node_baseIPNS_11__hash_nodeINS_17__hash_value_typeI14PlayerMovementN6Player13AnimationDataEEEPvEEEEEEE5firstB7v160006Ev, symObjAddr: 0xF4A0, symBinAddr: 0x100022134, symSize: 0x24 }
  - { offsetInCU: 0x132C6, offset: 0x5DD90, size: 0x8, addend: 0x0, symName: __ZNSt3__122__compressed_pair_elemImLi0ELb0EE5__getB7v160006Ev, symObjAddr: 0xF4C4, symBinAddr: 0x100022158, symSize: 0x14 }
  - { offsetInCU: 0x13323, offset: 0x5DDED, size: 0x8, addend: 0x0, symName: __ZNSt3__112__hash_tableINS_17__hash_value_typeI14PlayerMovementN6Player13AnimationDataEEENS_22__unordered_map_hasherIS2_S5_NS_4hashIS2_EENS_8equal_toIS2_EELb1EEENS_21__unordered_map_equalIS2_S5_SA_S8_Lb1EEENS_9allocatorIS5_EEE25__emplace_unique_key_argsIS2_JRKNS_21piecewise_construct_tENS_5tupleIJOS2_EEENSL_IJEEEEEENS_4pairINS_15__hash_iteratorIPNS_11__hash_nodeIS5_PvEEEEbEERKT_DpOT0_, symObjAddr: 0x109DC, symBinAddr: 0x10002216C, symSize: 0x4D0 }
  - { offsetInCU: 0x1342D, offset: 0x5DEF7, size: 0x8, addend: 0x0, symName: __ZNKSt3__115__hash_iteratorIPNS_11__hash_nodeINS_17__hash_value_typeI14PlayerMovementN6Player13AnimationDataEEEPvEEEptB7v160006Ev, symObjAddr: 0x10EDC, symBinAddr: 0x10002266C, symSize: 0x30 }
  - { offsetInCU: 0x13452, offset: 0x5DF1C, size: 0x8, addend: 0x0, symName: __ZNSt3__112__hash_tableINS_17__hash_value_typeI14PlayerMovementN6Player13AnimationDataEEENS_22__unordered_map_hasherIS2_S5_NS_4hashIS2_EENS_8equal_toIS2_EELb1EEENS_21__unordered_map_equalIS2_S5_SA_S8_Lb1EEENS_9allocatorIS5_EEE13hash_functionB7v160006Ev, symObjAddr: 0x10F0C, symBinAddr: 0x10002269C, symSize: 0x28 }
  - { offsetInCU: 0x13477, offset: 0x5DF41, size: 0x8, addend: 0x0, symName: __ZNKSt3__122__unordered_map_hasherI14PlayerMovementNS_17__hash_value_typeIS1_N6Player13AnimationDataEEENS_4hashIS1_EENS_8equal_toIS1_EELb1EEclB7v160006ERKS1_, symObjAddr: 0x10F34, symBinAddr: 0x1000226C4, symSize: 0x30 }
  - { offsetInCU: 0x134AB, offset: 0x5DF75, size: 0x8, addend: 0x0, symName: __ZNKSt3__112__hash_tableINS_17__hash_value_typeI14PlayerMovementN6Player13AnimationDataEEENS_22__unordered_map_hasherIS2_S5_NS_4hashIS2_EENS_8equal_toIS2_EELb1EEENS_21__unordered_map_equalIS2_S5_SA_S8_Lb1EEENS_9allocatorIS5_EEE12bucket_countB7v160006Ev, symObjAddr: 0x10F64, symBinAddr: 0x1000226F4, symSize: 0x28 }
  - { offsetInCU: 0x134D0, offset: 0x5DF9A, size: 0x8, addend: 0x0, symName: __ZNKSt3__110unique_ptrIA_PNS_16__hash_node_baseIPNS_11__hash_nodeINS_17__hash_value_typeI14PlayerMovementN6Player13AnimationDataEEEPvEEEENS_25__bucket_list_deallocatorINS_9allocatorISC_EEEEEixB7v160006Em, symObjAddr: 0x11024, symBinAddr: 0x1000227B4, symSize: 0x34 }
  - { offsetInCU: 0x13504, offset: 0x5DFCE, size: 0x8, addend: 0x0, symName: __ZNKSt3__116__hash_node_baseIPNS_11__hash_nodeINS_17__hash_value_typeI14PlayerMovementN6Player13AnimationDataEEEPvEEE6__hashB7v160006Ev, symObjAddr: 0x11058, symBinAddr: 0x1000227E8, symSize: 0x18 }
  - { offsetInCU: 0x13529, offset: 0x5DFF3, size: 0x8, addend: 0x0, symName: __ZNSt3__112__hash_tableINS_17__hash_value_typeI14PlayerMovementN6Player13AnimationDataEEENS_22__unordered_map_hasherIS2_S5_NS_4hashIS2_EENS_8equal_toIS2_EELb1EEENS_21__unordered_map_equalIS2_S5_SA_S8_Lb1EEENS_9allocatorIS5_EEE6key_eqB7v160006Ev, symObjAddr: 0x11070, symBinAddr: 0x100022800, symSize: 0x28 }
  - { offsetInCU: 0x1354E, offset: 0x5E018, size: 0x8, addend: 0x0, symName: __ZNKSt3__121__unordered_map_equalI14PlayerMovementNS_17__hash_value_typeIS1_N6Player13AnimationDataEEENS_8equal_toIS1_EENS_4hashIS1_EELb1EEclB7v160006ERKS5_RKS1_, symObjAddr: 0x11098, symBinAddr: 0x100022828, symSize: 0x48 }
  - { offsetInCU: 0x13591, offset: 0x5E05B, size: 0x8, addend: 0x0, symName: __ZNSt3__112__hash_tableINS_17__hash_value_typeI14PlayerMovementN6Player13AnimationDataEEENS_22__unordered_map_hasherIS2_S5_NS_4hashIS2_EENS_8equal_toIS2_EELb1EEENS_21__unordered_map_equalIS2_S5_SA_S8_Lb1EEENS_9allocatorIS5_EEE21__construct_node_hashIRKNS_21piecewise_construct_tEJNS_5tupleIJOS2_EEENSL_IJEEEEEENS_10unique_ptrINS_11__hash_nodeIS5_PvEENS_22__hash_node_destructorINSE_ISS_EEEEEEmOT_DpOT0_, symObjAddr: 0x110E0, symBinAddr: 0x100022870, symSize: 0x150 }
  - { offsetInCU: 0x1362C, offset: 0x5E0F6, size: 0x8, addend: 0x0, symName: __ZNSt3__112__hash_tableINS_17__hash_value_typeI14PlayerMovementN6Player13AnimationDataEEENS_22__unordered_map_hasherIS2_S5_NS_4hashIS2_EENS_8equal_toIS2_EELb1EEENS_21__unordered_map_equalIS2_S5_SA_S8_Lb1EEENS_9allocatorIS5_EEE4sizeB7v160006Ev, symObjAddr: 0x11230, symBinAddr: 0x1000229C0, symSize: 0x28 }
  - { offsetInCU: 0x13651, offset: 0x5E11B, size: 0x8, addend: 0x0, symName: __ZNSt3__112__hash_tableINS_17__hash_value_typeI14PlayerMovementN6Player13AnimationDataEEENS_22__unordered_map_hasherIS2_S5_NS_4hashIS2_EENS_8equal_toIS2_EELb1EEENS_21__unordered_map_equalIS2_S5_SA_S8_Lb1EEENS_9allocatorIS5_EEE15max_load_factorB7v160006Ev, symObjAddr: 0x11258, symBinAddr: 0x1000229E8, symSize: 0x28 }
  - { offsetInCU: 0x13676, offset: 0x5E140, size: 0x8, addend: 0x0, symName: __ZNSt3__112__hash_tableINS_17__hash_value_typeI14PlayerMovementN6Player13AnimationDataEEENS_22__unordered_map_hasherIS2_S5_NS_4hashIS2_EENS_8equal_toIS2_EELb1EEENS_21__unordered_map_equalIS2_S5_SA_S8_Lb1EEENS_9allocatorIS5_EEE15__rehash_uniqueB7v160006Em, symObjAddr: 0x11280, symBinAddr: 0x100022A10, symSize: 0x2C }
  - { offsetInCU: 0x136A9, offset: 0x5E173, size: 0x8, addend: 0x0, symName: __Z4ceilB7v160006f, symObjAddr: 0x112FC, symBinAddr: 0x100022A8C, symSize: 0x18 }
  - { offsetInCU: 0x136D8, offset: 0x5E1A2, size: 0x8, addend: 0x0, symName: __ZNSt3__116__hash_node_baseIPNS_11__hash_nodeINS_17__hash_value_typeI14PlayerMovementN6Player13AnimationDataEEEPvEEE5__ptrB7v160006Ev, symObjAddr: 0x11314, symBinAddr: 0x100022AA4, symSize: 0x24 }
  - { offsetInCU: 0x136FD, offset: 0x5E1C7, size: 0x8, addend: 0x0, symName: __ZNKSt3__110unique_ptrINS_11__hash_nodeINS_17__hash_value_typeI14PlayerMovementN6Player13AnimationDataEEEPvEENS_22__hash_node_destructorINS_9allocatorIS8_EEEEEptB7v160006Ev, symObjAddr: 0x11338, symBinAddr: 0x100022AC8, symSize: 0x28 }
  - { offsetInCU: 0x13722, offset: 0x5E1EC, size: 0x8, addend: 0x0, symName: __ZNKSt3__110unique_ptrINS_11__hash_nodeINS_17__hash_value_typeI14PlayerMovementN6Player13AnimationDataEEEPvEENS_22__hash_node_destructorINS_9allocatorIS8_EEEEE3getB7v160006Ev, symObjAddr: 0x11360, symBinAddr: 0x100022AF0, symSize: 0x28 }
  - { offsetInCU: 0x13747, offset: 0x5E211, size: 0x8, addend: 0x0, symName: __ZNSt3__110unique_ptrINS_11__hash_nodeINS_17__hash_value_typeI14PlayerMovementN6Player13AnimationDataEEEPvEENS_22__hash_node_destructorINS_9allocatorIS8_EEEEE7releaseB7v160006Ev, symObjAddr: 0x11388, symBinAddr: 0x100022B18, symSize: 0x44 }
  - { offsetInCU: 0x1377B, offset: 0x5E245, size: 0x8, addend: 0x0, symName: __ZNSt3__110unique_ptrINS_11__hash_nodeINS_17__hash_value_typeI14PlayerMovementN6Player13AnimationDataEEEPvEENS_22__hash_node_destructorINS_9allocatorIS8_EEEEED1B7v160006Ev, symObjAddr: 0x113CC, symBinAddr: 0x100022B5C, symSize: 0x2C }
  - { offsetInCU: 0x137A4, offset: 0x5E26E, size: 0x8, addend: 0x0, symName: __ZNSt3__115__hash_iteratorIPNS_11__hash_nodeINS_17__hash_value_typeI14PlayerMovementN6Player13AnimationDataEEEPvEEEC1B7v160006EPNS_16__hash_node_baseIS9_EEPKv, symObjAddr: 0x113F8, symBinAddr: 0x100022B88, symSize: 0x3C }
  - { offsetInCU: 0x137F6, offset: 0x5E2C0, size: 0x8, addend: 0x0, symName: __ZNSt3__14pairINS_15__hash_iteratorIPNS_11__hash_nodeINS_17__hash_value_typeI14PlayerMovementN6Player13AnimationDataEEEPvEEEEbEC1B7v160006ISB_RbLS8_0EEEOT_OT0_, symObjAddr: 0x11434, symBinAddr: 0x100022BC4, symSize: 0x3C }
  - { offsetInCU: 0x13853, offset: 0x5E31D, size: 0x8, addend: 0x0, symName: __ZNSt3__117__compressed_pairImNS_22__unordered_map_hasherI14PlayerMovementNS_17__hash_value_typeIS2_N6Player13AnimationDataEEENS_4hashIS2_EENS_8equal_toIS2_EELb1EEEE6secondB7v160006Ev, symObjAddr: 0x11470, symBinAddr: 0x100022C00, symSize: 0x24 }
  - { offsetInCU: 0x13878, offset: 0x5E342, size: 0x8, addend: 0x0, symName: __ZNSt3__122__compressed_pair_elemINS_22__unordered_map_hasherI14PlayerMovementNS_17__hash_value_typeIS2_N6Player13AnimationDataEEENS_4hashIS2_EENS_8equal_toIS2_EELb1EEELi1ELb1EE5__getB7v160006Ev, symObjAddr: 0x11494, symBinAddr: 0x100022C24, symSize: 0x14 }
  - { offsetInCU: 0x138A7, offset: 0x5E371, size: 0x8, addend: 0x0, symName: __ZNKSt3__14hashIjEclB7v160006Ej, symObjAddr: 0x114D4, symBinAddr: 0x100022C64, symSize: 0x1C }
  - { offsetInCU: 0x138DB, offset: 0x5E3A5, size: 0x8, addend: 0x0, symName: __ZNKSt3__110unique_ptrIA_PNS_16__hash_node_baseIPNS_11__hash_nodeINS_17__hash_value_typeI14PlayerMovementN6Player13AnimationDataEEEPvEEEENS_25__bucket_list_deallocatorINS_9allocatorISC_EEEEE11get_deleterB7v160006Ev, symObjAddr: 0x114F0, symBinAddr: 0x100022C80, symSize: 0x24 }
  - { offsetInCU: 0x13900, offset: 0x5E3CA, size: 0x8, addend: 0x0, symName: __ZNKSt3__125__bucket_list_deallocatorINS_9allocatorIPNS_16__hash_node_baseIPNS_11__hash_nodeINS_17__hash_value_typeI14PlayerMovementN6Player13AnimationDataEEEPvEEEEEEE4sizeB7v160006Ev, symObjAddr: 0x11514, symBinAddr: 0x100022CA4, symSize: 0x28 }
  - { offsetInCU: 0x13925, offset: 0x5E3EF, size: 0x8, addend: 0x0, symName: __ZNKSt3__117__compressed_pairIPPNS_16__hash_node_baseIPNS_11__hash_nodeINS_17__hash_value_typeI14PlayerMovementN6Player13AnimationDataEEEPvEEEENS_25__bucket_list_deallocatorINS_9allocatorISC_EEEEE6secondB7v160006Ev, symObjAddr: 0x1153C, symBinAddr: 0x100022CCC, symSize: 0x28 }
  - { offsetInCU: 0x1394A, offset: 0x5E414, size: 0x8, addend: 0x0, symName: __ZNKSt3__122__compressed_pair_elemINS_25__bucket_list_deallocatorINS_9allocatorIPNS_16__hash_node_baseIPNS_11__hash_nodeINS_17__hash_value_typeI14PlayerMovementN6Player13AnimationDataEEEPvEEEEEEEELi1ELb0EE5__getB7v160006Ev, symObjAddr: 0x11564, symBinAddr: 0x100022CF4, symSize: 0x14 }
  - { offsetInCU: 0x1396F, offset: 0x5E439, size: 0x8, addend: 0x0, symName: __ZNKSt3__117__compressed_pairImNS_9allocatorIPNS_16__hash_node_baseIPNS_11__hash_nodeINS_17__hash_value_typeI14PlayerMovementN6Player13AnimationDataEEEPvEEEEEEE5firstB7v160006Ev, symObjAddr: 0x11578, symBinAddr: 0x100022D08, symSize: 0x24 }
  - { offsetInCU: 0x13994, offset: 0x5E45E, size: 0x8, addend: 0x0, symName: __ZNKSt3__122__compressed_pair_elemImLi0ELb0EE5__getB7v160006Ev, symObjAddr: 0x1159C, symBinAddr: 0x100022D2C, symSize: 0x14 }
  - { offsetInCU: 0x139B9, offset: 0x5E483, size: 0x8, addend: 0x0, symName: __ZNKSt3__117__compressed_pairIPPNS_16__hash_node_baseIPNS_11__hash_nodeINS_17__hash_value_typeI14PlayerMovementN6Player13AnimationDataEEEPvEEEENS_25__bucket_list_deallocatorINS_9allocatorISC_EEEEE5firstB7v160006Ev, symObjAddr: 0x115B0, symBinAddr: 0x100022D40, symSize: 0x24 }
  - { offsetInCU: 0x139DE, offset: 0x5E4A8, size: 0x8, addend: 0x0, symName: __ZNKSt3__122__compressed_pair_elemIPPNS_16__hash_node_baseIPNS_11__hash_nodeINS_17__hash_value_typeI14PlayerMovementN6Player13AnimationDataEEEPvEEEELi0ELb0EE5__getB7v160006Ev, symObjAddr: 0x115D4, symBinAddr: 0x100022D64, symSize: 0x14 }
  - { offsetInCU: 0x13A03, offset: 0x5E4CD, size: 0x8, addend: 0x0, symName: __ZNSt3__117__compressed_pairIfNS_21__unordered_map_equalI14PlayerMovementNS_17__hash_value_typeIS2_N6Player13AnimationDataEEENS_8equal_toIS2_EENS_4hashIS2_EELb1EEEE6secondB7v160006Ev, symObjAddr: 0x115E8, symBinAddr: 0x100022D78, symSize: 0x24 }
  - { offsetInCU: 0x13A28, offset: 0x5E4F2, size: 0x8, addend: 0x0, symName: __ZNSt3__122__compressed_pair_elemINS_21__unordered_map_equalI14PlayerMovementNS_17__hash_value_typeIS2_N6Player13AnimationDataEEENS_8equal_toIS2_EENS_4hashIS2_EELb1EEELi1ELb1EE5__getB7v160006Ev, symObjAddr: 0x1160C, symBinAddr: 0x100022D9C, symSize: 0x14 }
  - { offsetInCU: 0x13A4D, offset: 0x5E517, size: 0x8, addend: 0x0, symName: __ZNKSt3__18equal_toI14PlayerMovementEclB7v160006ERKS1_S4_, symObjAddr: 0x11620, symBinAddr: 0x100022DB0, symSize: 0x34 }
  - { offsetInCU: 0x13A90, offset: 0x5E55A, size: 0x8, addend: 0x0, symName: __ZNKSt3__117__hash_value_typeI14PlayerMovementN6Player13AnimationDataEE11__get_valueB7v160006Ev, symObjAddr: 0x11654, symBinAddr: 0x100022DE4, symSize: 0x24 }
  - { offsetInCU: 0x13AB5, offset: 0x5E57F, size: 0x8, addend: 0x0, symName: __ZNSt3__116allocator_traitsINS_9allocatorINS_11__hash_nodeINS_17__hash_value_typeI14PlayerMovementN6Player13AnimationDataEEEPvEEEEE8allocateB7v160006ERSA_m, symObjAddr: 0x116B0, symBinAddr: 0x100022E40, symSize: 0x2C }
  - { offsetInCU: 0x13AE7, offset: 0x5E5B1, size: 0x8, addend: 0x0, symName: __ZNSt3__122__hash_node_destructorINS_9allocatorINS_11__hash_nodeINS_17__hash_value_typeI14PlayerMovementN6Player13AnimationDataEEEPvEEEEEC1B7v160006ERSA_b, symObjAddr: 0x116DC, symBinAddr: 0x100022E6C, symSize: 0x48 }
  - { offsetInCU: 0x13B34, offset: 0x5E5FE, size: 0x8, addend: 0x0, symName: __ZNSt3__110unique_ptrINS_11__hash_nodeINS_17__hash_value_typeI14PlayerMovementN6Player13AnimationDataEEEPvEENS_22__hash_node_destructorINS_9allocatorIS8_EEEEEC1B7v160006ILb1EvEEPS8_NS_16__dependent_typeINS_27__unique_ptr_deleter_sfinaeISC_EEXT_EE20__good_rval_ref_typeE, symObjAddr: 0x11724, symBinAddr: 0x100022EB4, symSize: 0x3C }
  - { offsetInCU: 0x13B84, offset: 0x5E64E, size: 0x8, addend: 0x0, symName: __ZNSt3__116allocator_traitsINS_9allocatorINS_11__hash_nodeINS_17__hash_value_typeI14PlayerMovementN6Player13AnimationDataEEEPvEEEEE9constructB7v160006INS_4pairIKS4_S6_EEJRKNS_21piecewise_construct_tENS_5tupleIJOS4_EEENSJ_IJEEEEvEEvRSA_PT_DpOT0_, symObjAddr: 0x11760, symBinAddr: 0x100022EF0, symSize: 0x44 }
  - { offsetInCU: 0x13C02, offset: 0x5E6CC, size: 0x8, addend: 0x0, symName: __ZNSt3__110unique_ptrINS_11__hash_nodeINS_17__hash_value_typeI14PlayerMovementN6Player13AnimationDataEEEPvEENS_22__hash_node_destructorINS_9allocatorIS8_EEEEE11get_deleterB7v160006Ev, symObjAddr: 0x117A4, symBinAddr: 0x100022F34, symSize: 0x24 }
  - { offsetInCU: 0x13C27, offset: 0x5E6F1, size: 0x8, addend: 0x0, symName: __ZNSt3__19allocatorINS_11__hash_nodeINS_17__hash_value_typeI14PlayerMovementN6Player13AnimationDataEEEPvEEE8allocateB7v160006Em, symObjAddr: 0x117C8, symBinAddr: 0x100022F58, symSize: 0x5C }
  - { offsetInCU: 0x13C64, offset: 0x5E72E, size: 0x8, addend: 0x0, symName: __ZNSt3__116allocator_traitsINS_9allocatorINS_11__hash_nodeINS_17__hash_value_typeI14PlayerMovementN6Player13AnimationDataEEEPvEEEEE8max_sizeB7v160006ISA_vEEmRKSA_, symObjAddr: 0x11824, symBinAddr: 0x100022FB4, symSize: 0x24 }
  - { offsetInCU: 0x13C91, offset: 0x5E75B, size: 0x8, addend: 0x0, symName: __ZNKSt3__19allocatorINS_11__hash_nodeINS_17__hash_value_typeI14PlayerMovementN6Player13AnimationDataEEEPvEEE8max_sizeB7v160006Ev, symObjAddr: 0x11848, symBinAddr: 0x100022FD8, symSize: 0x18 }
  - { offsetInCU: 0x13CB6, offset: 0x5E780, size: 0x8, addend: 0x0, symName: __ZNSt3__122__hash_node_destructorINS_9allocatorINS_11__hash_nodeINS_17__hash_value_typeI14PlayerMovementN6Player13AnimationDataEEEPvEEEEEC2B7v160006ERSA_b, symObjAddr: 0x11860, symBinAddr: 0x100022FF0, symSize: 0x38 }
  - { offsetInCU: 0x13CFD, offset: 0x5E7C7, size: 0x8, addend: 0x0, symName: __ZNSt3__110unique_ptrINS_11__hash_nodeINS_17__hash_value_typeI14PlayerMovementN6Player13AnimationDataEEEPvEENS_22__hash_node_destructorINS_9allocatorIS8_EEEEEC2B7v160006ILb1EvEEPS8_NS_16__dependent_typeINS_27__unique_ptr_deleter_sfinaeISC_EEXT_EE20__good_rval_ref_typeE, symObjAddr: 0x11898, symBinAddr: 0x100023028, symSize: 0x48 }
  - { offsetInCU: 0x13D4D, offset: 0x5E817, size: 0x8, addend: 0x0, symName: __ZNSt3__117__compressed_pairIPNS_11__hash_nodeINS_17__hash_value_typeI14PlayerMovementN6Player13AnimationDataEEEPvEENS_22__hash_node_destructorINS_9allocatorIS8_EEEEEC1B7v160006IRS9_SD_EEOT_OT0_, symObjAddr: 0x118E0, symBinAddr: 0x100023070, symSize: 0x3C }
  - { offsetInCU: 0x13DA4, offset: 0x5E86E, size: 0x8, addend: 0x0, symName: __ZNSt3__117__compressed_pairIPNS_11__hash_nodeINS_17__hash_value_typeI14PlayerMovementN6Player13AnimationDataEEEPvEENS_22__hash_node_destructorINS_9allocatorIS8_EEEEEC2B7v160006IRS9_SD_EEOT_OT0_, symObjAddr: 0x1191C, symBinAddr: 0x1000230AC, symSize: 0x48 }
  - { offsetInCU: 0x13DFB, offset: 0x5E8C5, size: 0x8, addend: 0x0, symName: __ZNSt3__122__compressed_pair_elemIPNS_11__hash_nodeINS_17__hash_value_typeI14PlayerMovementN6Player13AnimationDataEEEPvEELi0ELb0EEC2B7v160006IRS9_vEEOT_, symObjAddr: 0x11964, symBinAddr: 0x1000230F4, symSize: 0x24 }
  - { offsetInCU: 0x13E3C, offset: 0x5E906, size: 0x8, addend: 0x0, symName: __ZNSt3__122__compressed_pair_elemINS_22__hash_node_destructorINS_9allocatorINS_11__hash_nodeINS_17__hash_value_typeI14PlayerMovementN6Player13AnimationDataEEEPvEEEEEELi1ELb0EEC2B7v160006ISC_vEEOT_, symObjAddr: 0x11988, symBinAddr: 0x100023118, symSize: 0x24 }
  - { offsetInCU: 0x13E7D, offset: 0x5E947, size: 0x8, addend: 0x0, symName: __ZNSt3__19allocatorINS_11__hash_nodeINS_17__hash_value_typeI14PlayerMovementN6Player13AnimationDataEEEPvEEE9constructB7v160006INS_4pairIKS3_S5_EEJRKNS_21piecewise_construct_tENS_5tupleIJOS3_EEENSH_IJEEEEEEvPT_DpOT0_, symObjAddr: 0x119AC, symBinAddr: 0x10002313C, symSize: 0x44 }
  - { offsetInCU: 0x13EF8, offset: 0x5E9C2, size: 0x8, addend: 0x0, symName: __ZNSt3__14pairIK14PlayerMovementN6Player13AnimationDataEEC1B7v160006IJOS1_EJEEENS_21piecewise_construct_tENS_5tupleIJDpT_EEENS9_IJDpT0_EEE, symObjAddr: 0x119F0, symBinAddr: 0x100023180, symSize: 0x3C }
  - { offsetInCU: 0x13F5E, offset: 0x5EA28, size: 0x8, addend: 0x0, symName: __ZNSt3__14pairIK14PlayerMovementN6Player13AnimationDataEEC1B7v160006IJOS1_EJEJLm0EEJEEENS_21piecewise_construct_tERNS_5tupleIJDpT_EEERNS9_IJDpT0_EEENS_15__tuple_indicesIJXspT1_EEEENSI_IJXspT2_EEEE, symObjAddr: 0x11A2C, symBinAddr: 0x1000231BC, symSize: 0x3C }
  - { offsetInCU: 0x13FEA, offset: 0x5EAB4, size: 0x8, addend: 0x0, symName: __ZNSt3__14pairIK14PlayerMovementN6Player13AnimationDataEEC2B7v160006IJOS1_EJEJLm0EEJEEENS_21piecewise_construct_tERNS_5tupleIJDpT_EEERNS9_IJDpT0_EEENS_15__tuple_indicesIJXspT1_EEEENSI_IJXspT2_EEEE, symObjAddr: 0x11A68, symBinAddr: 0x1000231F8, symSize: 0x4C }
  - { offsetInCU: 0x14076, offset: 0x5EB40, size: 0x8, addend: 0x0, symName: __ZN6Player13AnimationDataC1Ev, symObjAddr: 0x11AD8, symBinAddr: 0x100023268, symSize: 0x2C }
  - { offsetInCU: 0x1409F, offset: 0x5EB69, size: 0x8, addend: 0x0, symName: __ZNSt3__112__tuple_leafILm0EO14PlayerMovementLb0EE3getB7v160006Ev, symObjAddr: 0x11B04, symBinAddr: 0x100023294, symSize: 0x18 }
  - { offsetInCU: 0x140C4, offset: 0x5EB8E, size: 0x8, addend: 0x0, symName: __ZN6Player13AnimationDataC2Ev, symObjAddr: 0x11B1C, symBinAddr: 0x1000232AC, symSize: 0x3C }
  - { offsetInCU: 0x140ED, offset: 0x5EBB7, size: 0x8, addend: 0x0, symName: __ZNSt3__117__compressed_pairIPNS_11__hash_nodeINS_17__hash_value_typeI14PlayerMovementN6Player13AnimationDataEEEPvEENS_22__hash_node_destructorINS_9allocatorIS8_EEEEE6secondB7v160006Ev, symObjAddr: 0x11B58, symBinAddr: 0x1000232E8, symSize: 0x28 }
  - { offsetInCU: 0x14112, offset: 0x5EBDC, size: 0x8, addend: 0x0, symName: __ZNSt3__122__compressed_pair_elemINS_22__hash_node_destructorINS_9allocatorINS_11__hash_nodeINS_17__hash_value_typeI14PlayerMovementN6Player13AnimationDataEEEPvEEEEEELi1ELb0EE5__getB7v160006Ev, symObjAddr: 0x11B80, symBinAddr: 0x100023310, symSize: 0x14 }
  - { offsetInCU: 0x14137, offset: 0x5EC01, size: 0x8, addend: 0x0, symName: __ZNSt3__117__compressed_pairImNS_22__unordered_map_hasherI14PlayerMovementNS_17__hash_value_typeIS2_N6Player13AnimationDataEEENS_4hashIS2_EENS_8equal_toIS2_EELb1EEEE5firstB7v160006Ev, symObjAddr: 0x11B94, symBinAddr: 0x100023324, symSize: 0x24 }
  - { offsetInCU: 0x1415C, offset: 0x5EC26, size: 0x8, addend: 0x0, symName: __ZNSt3__117__compressed_pairIfNS_21__unordered_map_equalI14PlayerMovementNS_17__hash_value_typeIS2_N6Player13AnimationDataEEENS_8equal_toIS2_EENS_4hashIS2_EELb1EEEE5firstB7v160006Ev, symObjAddr: 0x11BB8, symBinAddr: 0x100023348, symSize: 0x24 }
  - { offsetInCU: 0x14181, offset: 0x5EC4B, size: 0x8, addend: 0x0, symName: __ZNSt3__122__compressed_pair_elemIfLi0ELb0EE5__getB7v160006Ev, symObjAddr: 0x11BDC, symBinAddr: 0x10002336C, symSize: 0x14 }
  - { offsetInCU: 0x141A6, offset: 0x5EC70, size: 0x8, addend: 0x0, symName: __ZNSt3__112__hash_tableINS_17__hash_value_typeI14PlayerMovementN6Player13AnimationDataEEENS_22__unordered_map_hasherIS2_S5_NS_4hashIS2_EENS_8equal_toIS2_EELb1EEENS_21__unordered_map_equalIS2_S5_SA_S8_Lb1EEENS_9allocatorIS5_EEE8__rehashILb1EEEvm, symObjAddr: 0x11BF0, symBinAddr: 0x100023380, symSize: 0x1A8 }
  - { offsetInCU: 0x141F5, offset: 0x5ECBF, size: 0x8, addend: 0x0, symName: __ZNSt3__112__hash_tableINS_17__hash_value_typeI14PlayerMovementN6Player13AnimationDataEEENS_22__unordered_map_hasherIS2_S5_NS_4hashIS2_EENS_8equal_toIS2_EELb1EEENS_21__unordered_map_equalIS2_S5_SA_S8_Lb1EEENS_9allocatorIS5_EEE11__do_rehashILb1EEEvm, symObjAddr: 0x11D98, symBinAddr: 0x100023528, symSize: 0x290 }
  - { offsetInCU: 0x142D7, offset: 0x5EDA1, size: 0x8, addend: 0x0, symName: __ZNSt3__110unique_ptrIA_PNS_16__hash_node_baseIPNS_11__hash_nodeINS_17__hash_value_typeI14PlayerMovementN6Player13AnimationDataEEEPvEEEENS_25__bucket_list_deallocatorINS_9allocatorISC_EEEEE11get_deleterB7v160006Ev, symObjAddr: 0x120A4, symBinAddr: 0x100023834, symSize: 0x24 }
  - { offsetInCU: 0x142FC, offset: 0x5EDC6, size: 0x8, addend: 0x0, symName: __ZNSt3__110unique_ptrIA_PNS_16__hash_node_baseIPNS_11__hash_nodeINS_17__hash_value_typeI14PlayerMovementN6Player13AnimationDataEEEPvEEEENS_25__bucket_list_deallocatorINS_9allocatorISC_EEEEE5resetB7v160006IPSC_EENS_9enable_ifIXsr28_CheckArrayPointerConversionIT_EE5valueEvE4typeESM_, symObjAddr: 0x120C8, symBinAddr: 0x100023858, symSize: 0x78 }
  - { offsetInCU: 0x14348, offset: 0x5EE12, size: 0x8, addend: 0x0, symName: __ZNSt3__116allocator_traitsINS_9allocatorIPNS_16__hash_node_baseIPNS_11__hash_nodeINS_17__hash_value_typeI14PlayerMovementN6Player13AnimationDataEEEPvEEEEEEE8allocateB7v160006ERSE_m, symObjAddr: 0x12140, symBinAddr: 0x1000238D0, symSize: 0x2C }
  - { offsetInCU: 0x1437A, offset: 0x5EE44, size: 0x8, addend: 0x0, symName: __ZNSt3__19allocatorIPNS_16__hash_node_baseIPNS_11__hash_nodeINS_17__hash_value_typeI14PlayerMovementN6Player13AnimationDataEEEPvEEEEE8allocateB7v160006Em, symObjAddr: 0x1216C, symBinAddr: 0x1000238FC, symSize: 0x58 }
  - { offsetInCU: 0x143B7, offset: 0x5EE81, size: 0x8, addend: 0x0, symName: __ZNSt3__116allocator_traitsINS_9allocatorIPNS_16__hash_node_baseIPNS_11__hash_nodeINS_17__hash_value_typeI14PlayerMovementN6Player13AnimationDataEEEPvEEEEEEE8max_sizeB7v160006ISE_vEEmRKSE_, symObjAddr: 0x121C4, symBinAddr: 0x100023954, symSize: 0x24 }
  - { offsetInCU: 0x143E4, offset: 0x5EEAE, size: 0x8, addend: 0x0, symName: __ZNKSt3__19allocatorIPNS_16__hash_node_baseIPNS_11__hash_nodeINS_17__hash_value_typeI14PlayerMovementN6Player13AnimationDataEEEPvEEEEE8max_sizeB7v160006Ev, symObjAddr: 0x121E8, symBinAddr: 0x100023978, symSize: 0x14 }
  - { offsetInCU: 0x14409, offset: 0x5EED3, size: 0x8, addend: 0x0, symName: __ZNKSt3__117__compressed_pairIPNS_11__hash_nodeINS_17__hash_value_typeI14PlayerMovementN6Player13AnimationDataEEEPvEENS_22__hash_node_destructorINS_9allocatorIS8_EEEEE5firstB7v160006Ev, symObjAddr: 0x12218, symBinAddr: 0x1000239A8, symSize: 0x24 }
  - { offsetInCU: 0x1442E, offset: 0x5EEF8, size: 0x8, addend: 0x0, symName: __ZNKSt3__122__compressed_pair_elemIPNS_11__hash_nodeINS_17__hash_value_typeI14PlayerMovementN6Player13AnimationDataEEEPvEELi0ELb0EE5__getB7v160006Ev, symObjAddr: 0x1223C, symBinAddr: 0x1000239CC, symSize: 0x14 }
  - { offsetInCU: 0x14453, offset: 0x5EF1D, size: 0x8, addend: 0x0, symName: __ZNSt3__117__compressed_pairIPNS_11__hash_nodeINS_17__hash_value_typeI14PlayerMovementN6Player13AnimationDataEEEPvEENS_22__hash_node_destructorINS_9allocatorIS8_EEEEE5firstB7v160006Ev, symObjAddr: 0x12250, symBinAddr: 0x1000239E0, symSize: 0x24 }
  - { offsetInCU: 0x14478, offset: 0x5EF42, size: 0x8, addend: 0x0, symName: __ZNSt3__122__compressed_pair_elemIPNS_11__hash_nodeINS_17__hash_value_typeI14PlayerMovementN6Player13AnimationDataEEEPvEELi0ELb0EE5__getB7v160006Ev, symObjAddr: 0x12274, symBinAddr: 0x100023A04, symSize: 0x14 }
  - { offsetInCU: 0x1449D, offset: 0x5EF67, size: 0x8, addend: 0x0, symName: __ZNSt3__110unique_ptrINS_11__hash_nodeINS_17__hash_value_typeI14PlayerMovementN6Player13AnimationDataEEEPvEENS_22__hash_node_destructorINS_9allocatorIS8_EEEEED2B7v160006Ev, symObjAddr: 0x12288, symBinAddr: 0x100023A18, symSize: 0x30 }
  - { offsetInCU: 0x144C6, offset: 0x5EF90, size: 0x8, addend: 0x0, symName: __ZNSt3__110unique_ptrINS_11__hash_nodeINS_17__hash_value_typeI14PlayerMovementN6Player13AnimationDataEEEPvEENS_22__hash_node_destructorINS_9allocatorIS8_EEEEE5resetB7v160006EPS8_, symObjAddr: 0x122B8, symBinAddr: 0x100023A48, symSize: 0x78 }
  - { offsetInCU: 0x14509, offset: 0x5EFD3, size: 0x8, addend: 0x0, symName: __ZNSt3__122__hash_node_destructorINS_9allocatorINS_11__hash_nodeINS_17__hash_value_typeI14PlayerMovementN6Player13AnimationDataEEEPvEEEEEclB7v160006EPS9_, symObjAddr: 0x12330, symBinAddr: 0x100023AC0, symSize: 0x94 }
  - { offsetInCU: 0x1453D, offset: 0x5F007, size: 0x8, addend: 0x0, symName: __ZNSt3__115__hash_iteratorIPNS_11__hash_nodeINS_17__hash_value_typeI14PlayerMovementN6Player13AnimationDataEEEPvEEEC2B7v160006EPNS_16__hash_node_baseIS9_EEPKv, symObjAddr: 0x123C4, symBinAddr: 0x100023B54, symSize: 0x24 }
  - { offsetInCU: 0x14584, offset: 0x5F04E, size: 0x8, addend: 0x0, symName: __ZNSt3__14pairINS_15__hash_iteratorIPNS_11__hash_nodeINS_17__hash_value_typeI14PlayerMovementN6Player13AnimationDataEEEPvEEEEbEC2B7v160006ISB_RbLS8_0EEEOT_OT0_, symObjAddr: 0x123E8, symBinAddr: 0x100023B78, symSize: 0x38 }
  - { offsetInCU: 0x145E1, offset: 0x5F0AB, size: 0x8, addend: 0x0, symName: __ZNSt3__15tupleIJO14PlayerMovementEEC1B7v160006IJS1_ELi0EEEDpOT_, symObjAddr: 0x12420, symBinAddr: 0x100023BB0, symSize: 0x34 }
  - { offsetInCU: 0x1462A, offset: 0x5F0F4, size: 0x8, addend: 0x0, symName: __ZNSt3__15tupleIJO14PlayerMovementEEC2B7v160006IJS1_ELi0EEEDpOT_, symObjAddr: 0x12454, symBinAddr: 0x100023BE4, symSize: 0x34 }
  - { offsetInCU: 0x14673, offset: 0x5F13D, size: 0x8, addend: 0x0, symName: __ZNSt3__112__tuple_implINS_15__tuple_indicesIJLm0EEEEJO14PlayerMovementEEC1B7v160006IJLm0EEJS4_EJEJEJS3_EEENS1_IJXspT_EEEENS_13__tuple_typesIJDpT0_EEENS1_IJXspT1_EEEENS8_IJDpT2_EEEDpOT3_, symObjAddr: 0x12488, symBinAddr: 0x100023C18, symSize: 0x34 }
  - { offsetInCU: 0x14703, offset: 0x5F1CD, size: 0x8, addend: 0x0, symName: __ZNSt3__112__tuple_implINS_15__tuple_indicesIJLm0EEEEJO14PlayerMovementEEC2B7v160006IJLm0EEJS4_EJEJEJS3_EEENS1_IJXspT_EEEENS_13__tuple_typesIJDpT0_EEENS1_IJXspT1_EEEENS8_IJDpT2_EEEDpOT3_, symObjAddr: 0x124BC, symBinAddr: 0x100023C4C, symSize: 0x34 }
  - { offsetInCU: 0x14793, offset: 0x5F25D, size: 0x8, addend: 0x0, symName: __ZNSt3__112__tuple_leafILm0EO14PlayerMovementLb0EEC2B7v160006IS1_vEEOT_, symObjAddr: 0x124F0, symBinAddr: 0x100023C80, symSize: 0x20 }
  - { offsetInCU: 0x147D5, offset: 0x5F29F, size: 0x8, addend: 0x0, symName: __ZNSt3__114pointer_traitsIPNS_17__hash_value_typeI14PlayerMovementN6Player13AnimationDataEEEE10pointer_toB7v160006ERS5_, symObjAddr: 0x12510, symBinAddr: 0x100023CA0, symSize: 0x14 }
  - { offsetInCU: 0x147F8, offset: 0x5F2C2, size: 0x8, addend: 0x0, symName: __ZNSt3__16vectorIP4MeshNS_9allocatorIS2_EEE11__make_iterB7v160006EPS2_, symObjAddr: 0x12E90, symBinAddr: 0x100023CB4, symSize: 0x34 }
  - { offsetInCU: 0x1482C, offset: 0x5F2F6, size: 0x8, addend: 0x0, symName: __ZNSt3__111__wrap_iterIPP4MeshEC1B7v160006EPKvS3_, symObjAddr: 0x12EC4, symBinAddr: 0x100023CE8, symSize: 0x3C }
  - { offsetInCU: 0x14871, offset: 0x5F33B, size: 0x8, addend: 0x0, symName: __ZNSt3__111__wrap_iterIPP4MeshEC2B7v160006EPKvS3_, symObjAddr: 0x12F00, symBinAddr: 0x100023D24, symSize: 0x24 }
  - { offsetInCU: 0x148B6, offset: 0x5F380, size: 0x8, addend: 0x0, symName: __ZNSt3__16vectorIP4MeshNS_9allocatorIS2_EEEC2ERKS5_, symObjAddr: 0x12FB8, symBinAddr: 0x100023D48, symSize: 0x114 }
  - { offsetInCU: 0x1491F, offset: 0x5F3E9, size: 0x8, addend: 0x0, symName: __ZNSt3__116allocator_traitsINS_9allocatorIP4MeshEEE37select_on_container_copy_constructionB7v160006IS4_vvEES4_RKS4_, symObjAddr: 0x130CC, symBinAddr: 0x100023E5C, symSize: 0x10 }
  - { offsetInCU: 0x14954, offset: 0x5F41E, size: 0x8, addend: 0x0, symName: __ZNSt3__117__compressed_pairIPP4MeshNS_9allocatorIS2_EEEC1B7v160006IDnS5_EEOT_OT0_, symObjAddr: 0x13104, symBinAddr: 0x100023E6C, symSize: 0x3C }
  - { offsetInCU: 0x149AB, offset: 0x5F475, size: 0x8, addend: 0x0, symName: __ZNSt3__16vectorIP4MeshNS_9allocatorIS2_EEE11__vallocateB7v160006Em, symObjAddr: 0x131EC, symBinAddr: 0x100023EE8, symSize: 0xAC }
  - { offsetInCU: 0x149EE, offset: 0x5F4B8, size: 0x8, addend: 0x0, symName: __ZNSt3__16vectorIP4MeshNS_9allocatorIS2_EEE18__construct_at_endIPS2_Li0EEEvT_S8_m, symObjAddr: 0x13298, symBinAddr: 0x100023F94, symSize: 0x8C }
  - { offsetInCU: 0x14A60, offset: 0x5F52A, size: 0x8, addend: 0x0, symName: __ZNSt3__128__exception_guard_exceptionsINS_6vectorIP4MeshNS_9allocatorIS3_EEE16__destroy_vectorEE10__completeB7v160006Ev, symObjAddr: 0x13324, symBinAddr: 0x100024020, symSize: 0x1C }
  - { offsetInCU: 0x14A85, offset: 0x5F54F, size: 0x8, addend: 0x0, symName: __ZNSt3__128__exception_guard_exceptionsINS_6vectorIP4MeshNS_9allocatorIS3_EEE16__destroy_vectorEED1B7v160006Ev, symObjAddr: 0x13340, symBinAddr: 0x10002403C, symSize: 0x2C }
  - { offsetInCU: 0x14AAE, offset: 0x5F578, size: 0x8, addend: 0x0, symName: __ZNSt3__117__compressed_pairIPP4MeshNS_9allocatorIS2_EEEC2B7v160006IDnS5_EEOT_OT0_, symObjAddr: 0x133A4, symBinAddr: 0x100024068, symSize: 0x44 }
  - { offsetInCU: 0x14B05, offset: 0x5F5CF, size: 0x8, addend: 0x0, symName: __ZNSt3__122__compressed_pair_elemINS_9allocatorIP4MeshEELi1ELb1EEC2B7v160006IS4_vEEOT_, symObjAddr: 0x13404, symBinAddr: 0x1000240AC, symSize: 0x18 }
  - { offsetInCU: 0x14B46, offset: 0x5F610, size: 0x8, addend: 0x0, symName: __ZNSt3__128__exception_guard_exceptionsINS_6vectorIP4MeshNS_9allocatorIS3_EEE16__destroy_vectorEEC1B7v160006ES7_, symObjAddr: 0x1341C, symBinAddr: 0x1000240C4, symSize: 0x34 }
  - { offsetInCU: 0x14B7D, offset: 0x5F647, size: 0x8, addend: 0x0, symName: __ZNSt3__128__exception_guard_exceptionsINS_6vectorIP4MeshNS_9allocatorIS3_EEE16__destroy_vectorEEC2B7v160006ES7_, symObjAddr: 0x13450, symBinAddr: 0x1000240F8, symSize: 0x24 }
  - { offsetInCU: 0x14BCD, offset: 0x5F697, size: 0x8, addend: 0x0, symName: __ZNSt3__129_AllocatorDestroyRangeReverseINS_9allocatorIP4MeshEEPS3_EC1B7v160006ERS4_RS5_S8_, symObjAddr: 0x13A34, symBinAddr: 0x10002425C, symSize: 0x44 }
  - { offsetInCU: 0x14C23, offset: 0x5F6ED, size: 0x8, addend: 0x0, symName: __ZNSt3__116allocator_traitsINS_9allocatorIP4MeshEEE9constructB7v160006IS3_JRS3_EvEEvRS4_PT_DpOT0_, symObjAddr: 0x13A78, symBinAddr: 0x1000242A0, symSize: 0x34 }
  - { offsetInCU: 0x14C79, offset: 0x5F743, size: 0x8, addend: 0x0, symName: __ZNSt3__128__exception_guard_exceptionsINS_29_AllocatorDestroyRangeReverseINS_9allocatorIP4MeshEEPS4_EEE10__completeB7v160006Ev, symObjAddr: 0x13AAC, symBinAddr: 0x1000242D4, symSize: 0x1C }
  - { offsetInCU: 0x14C9E, offset: 0x5F768, size: 0x8, addend: 0x0, symName: __ZNSt3__128__exception_guard_exceptionsINS_29_AllocatorDestroyRangeReverseINS_9allocatorIP4MeshEEPS4_EEED1B7v160006Ev, symObjAddr: 0x13AC8, symBinAddr: 0x1000242F0, symSize: 0x2C }
  - { offsetInCU: 0x14CC7, offset: 0x5F791, size: 0x8, addend: 0x0, symName: __ZNSt3__128__exception_guard_exceptionsINS_29_AllocatorDestroyRangeReverseINS_9allocatorIP4MeshEEPS4_EEEC1B7v160006ES7_, symObjAddr: 0x13AF4, symBinAddr: 0x10002431C, symSize: 0x34 }
  - { offsetInCU: 0x14CFF, offset: 0x5F7C9, size: 0x8, addend: 0x0, symName: __ZNSt3__128__exception_guard_exceptionsINS_29_AllocatorDestroyRangeReverseINS_9allocatorIP4MeshEEPS4_EEEC2B7v160006ES7_, symObjAddr: 0x13B28, symBinAddr: 0x100024350, symSize: 0x30 }
  - { offsetInCU: 0x14D37, offset: 0x5F801, size: 0x8, addend: 0x0, symName: __ZNSt3__129_AllocatorDestroyRangeReverseINS_9allocatorIP4MeshEEPS3_EC2B7v160006ERS4_RS5_S8_, symObjAddr: 0x13B58, symBinAddr: 0x100024380, symSize: 0x38 }
  - { offsetInCU: 0x14D8D, offset: 0x5F857, size: 0x8, addend: 0x0, symName: __ZNSt3__19allocatorIP4MeshE9constructB7v160006IS2_JRS2_EEEvPT_DpOT0_, symObjAddr: 0x13B90, symBinAddr: 0x1000243B8, symSize: 0x28 }
  - { offsetInCU: 0x14DE2, offset: 0x5F8AC, size: 0x8, addend: 0x0, symName: __ZNSt3__128__exception_guard_exceptionsINS_29_AllocatorDestroyRangeReverseINS_9allocatorIP4MeshEEPS4_EEED2B7v160006Ev, symObjAddr: 0x13BB8, symBinAddr: 0x1000243E0, symSize: 0x50 }
  - { offsetInCU: 0x14E0B, offset: 0x5F8D5, size: 0x8, addend: 0x0, symName: __ZNKSt3__129_AllocatorDestroyRangeReverseINS_9allocatorIP4MeshEEPS3_EclB7v160006Ev, symObjAddr: 0x13C08, symBinAddr: 0x100024430, symSize: 0x68 }
  - { offsetInCU: 0x14E35, offset: 0x5F8FF, size: 0x8, addend: 0x0, symName: __ZNSt3__119__to_address_helperINS_16reverse_iteratorIPP4MeshEEvE6__callB7v160006ERKS5_, symObjAddr: 0x13DF8, symBinAddr: 0x10002452C, symSize: 0x38 }
  - { offsetInCU: 0x14E57, offset: 0x5F921, size: 0x8, addend: 0x0, symName: __ZNKSt3__116reverse_iteratorIPP4MeshEptB7v160006Ev, symObjAddr: 0x13E30, symBinAddr: 0x100024564, symSize: 0x24 }
  - { offsetInCU: 0x14E7C, offset: 0x5F946, size: 0x8, addend: 0x0, symName: __ZNSt3__128__exception_guard_exceptionsINS_6vectorIP4MeshNS_9allocatorIS3_EEE16__destroy_vectorEED2B7v160006Ev, symObjAddr: 0x13EC4, symBinAddr: 0x100024588, symSize: 0x50 }
  - { offsetInCU: 0x14EA5, offset: 0x5F96F, size: 0x8, addend: 0x0, symName: __ZNSt3__16vectorI12IntersectionNS_9allocatorIS1_EEEC2B7v160006Ev, symObjAddr: 0x141E4, symBinAddr: 0x1000245D8, symSize: 0x58 }
  - { offsetInCU: 0x14ECE, offset: 0x5F998, size: 0x8, addend: 0x0, symName: __ZNSt3__117__compressed_pairIP12IntersectionNS_9allocatorIS1_EEEC1B7v160006IDnNS_18__default_init_tagEEEOT_OT0_, symObjAddr: 0x1423C, symBinAddr: 0x100024630, symSize: 0x3C }
  - { offsetInCU: 0x14F25, offset: 0x5F9EF, size: 0x8, addend: 0x0, symName: __ZNSt3__117__compressed_pairIP12IntersectionNS_9allocatorIS1_EEEC2B7v160006IDnNS_18__default_init_tagEEEOT_OT0_, symObjAddr: 0x14288, symBinAddr: 0x10002467C, symSize: 0x40 }
  - { offsetInCU: 0x14F7C, offset: 0x5FA46, size: 0x8, addend: 0x0, symName: __ZNSt3__122__compressed_pair_elemIP12IntersectionLi0ELb0EEC2B7v160006IDnvEEOT_, symObjAddr: 0x142C8, symBinAddr: 0x1000246BC, symSize: 0x1C }
  - { offsetInCU: 0x14FBD, offset: 0x5FA87, size: 0x8, addend: 0x0, symName: __ZNSt3__122__compressed_pair_elemINS_9allocatorI12IntersectionEELi1ELb1EEC2B7v160006ENS_18__default_init_tagE, symObjAddr: 0x142E4, symBinAddr: 0x1000246D8, symSize: 0x2C }
  - { offsetInCU: 0x14FF1, offset: 0x5FABB, size: 0x8, addend: 0x0, symName: __ZNSt3__19allocatorI12IntersectionEC2B7v160006Ev, symObjAddr: 0x14310, symBinAddr: 0x100024704, symSize: 0x2C }
  - { offsetInCU: 0x1501A, offset: 0x5FAE4, size: 0x8, addend: 0x0, symName: __ZNSt3__116__non_trivial_ifILb1ENS_9allocatorI12IntersectionEEEC2B7v160006Ev, symObjAddr: 0x1433C, symBinAddr: 0x100024730, symSize: 0x14 }
  - { offsetInCU: 0x15043, offset: 0x5FB0D, size: 0x8, addend: 0x0, symName: __ZNSt3__16vectorI12IntersectionNS_9allocatorIS1_EEED2B7v160006Ev, symObjAddr: 0x14350, symBinAddr: 0x100024744, symSize: 0x44 }
  - { offsetInCU: 0x1506C, offset: 0x5FB36, size: 0x8, addend: 0x0, symName: __ZNSt3__16vectorI12IntersectionNS_9allocatorIS1_EEE16__destroy_vectorC1ERS4_, symObjAddr: 0x14394, symBinAddr: 0x100024788, symSize: 0x34 }
  - { offsetInCU: 0x150A4, offset: 0x5FB6E, size: 0x8, addend: 0x0, symName: __ZNSt3__16vectorI12IntersectionNS_9allocatorIS1_EEE16__destroy_vectorclB7v160006Ev, symObjAddr: 0x143C8, symBinAddr: 0x1000247BC, symSize: 0x9C }
  - { offsetInCU: 0x150C9, offset: 0x5FB93, size: 0x8, addend: 0x0, symName: __ZNSt3__16vectorI12IntersectionNS_9allocatorIS1_EEE16__destroy_vectorC2ERS4_, symObjAddr: 0x14464, symBinAddr: 0x100024858, symSize: 0x20 }
  - { offsetInCU: 0x15101, offset: 0x5FBCB, size: 0x8, addend: 0x0, symName: __ZNKSt3__16vectorI12IntersectionNS_9allocatorIS1_EEE17__annotate_deleteB7v160006Ev, symObjAddr: 0x14484, symBinAddr: 0x100024878, symSize: 0xD4 }
  - { offsetInCU: 0x15126, offset: 0x5FBF0, size: 0x8, addend: 0x0, symName: __ZNSt3__16vectorI12IntersectionNS_9allocatorIS1_EEE7__clearB7v160006Ev, symObjAddr: 0x14568, symBinAddr: 0x10002495C, symSize: 0x28 }
  - { offsetInCU: 0x1514B, offset: 0x5FC15, size: 0x8, addend: 0x0, symName: __ZNSt3__116allocator_traitsINS_9allocatorI12IntersectionEEE10deallocateB7v160006ERS3_PS2_m, symObjAddr: 0x14590, symBinAddr: 0x100024984, symSize: 0x34 }
  - { offsetInCU: 0x1518C, offset: 0x5FC56, size: 0x8, addend: 0x0, symName: __ZNSt3__16vectorI12IntersectionNS_9allocatorIS1_EEE7__allocB7v160006Ev, symObjAddr: 0x145C4, symBinAddr: 0x1000249B8, symSize: 0x28 }
  - { offsetInCU: 0x151B1, offset: 0x5FC7B, size: 0x8, addend: 0x0, symName: __ZNKSt3__16vectorI12IntersectionNS_9allocatorIS1_EEE8capacityB7v160006Ev, symObjAddr: 0x145EC, symBinAddr: 0x1000249E0, symSize: 0x40 }
  - { offsetInCU: 0x151D6, offset: 0x5FCA0, size: 0x8, addend: 0x0, symName: __ZNKSt3__16vectorI12IntersectionNS_9allocatorIS1_EEE31__annotate_contiguous_containerB7v160006EPKvS6_S6_S6_, symObjAddr: 0x1462C, symBinAddr: 0x100024A20, symSize: 0x20 }
  - { offsetInCU: 0x15227, offset: 0x5FCF1, size: 0x8, addend: 0x0, symName: __ZNKSt3__16vectorI12IntersectionNS_9allocatorIS1_EEE4dataB7v160006Ev, symObjAddr: 0x1464C, symBinAddr: 0x100024A40, symSize: 0x28 }
  - { offsetInCU: 0x1524C, offset: 0x5FD16, size: 0x8, addend: 0x0, symName: __ZNKSt3__16vectorI12IntersectionNS_9allocatorIS1_EEE4sizeB7v160006Ev, symObjAddr: 0x14674, symBinAddr: 0x100024A68, symSize: 0x28 }
  - { offsetInCU: 0x15271, offset: 0x5FD3B, size: 0x8, addend: 0x0, symName: __ZNSt3__16vectorI12IntersectionNS_9allocatorIS1_EEE22__base_destruct_at_endB7v160006EPS1_, symObjAddr: 0x146B0, symBinAddr: 0x100024AA4, symSize: 0x8C }
  - { offsetInCU: 0x152B4, offset: 0x5FD7E, size: 0x8, addend: 0x0, symName: __ZNSt3__116allocator_traitsINS_9allocatorI12IntersectionEEE7destroyB7v160006IS2_vEEvRS3_PT_, symObjAddr: 0x1473C, symBinAddr: 0x100024B30, symSize: 0x2C }
  - { offsetInCU: 0x152F0, offset: 0x5FDBA, size: 0x8, addend: 0x0, symName: __ZNSt3__19allocatorI12IntersectionE7destroyB7v160006EPS1_, symObjAddr: 0x14768, symBinAddr: 0x100024B5C, symSize: 0x14 }
  - { offsetInCU: 0x15323, offset: 0x5FDED, size: 0x8, addend: 0x0, symName: __ZNSt3__19allocatorI12IntersectionE10deallocateB7v160006EPS1_m, symObjAddr: 0x1477C, symBinAddr: 0x100024B70, symSize: 0x44 }
  - { offsetInCU: 0x15364, offset: 0x5FE2E, size: 0x8, addend: 0x0, symName: __ZNSt3__117__compressed_pairIP12IntersectionNS_9allocatorIS1_EEE6secondB7v160006Ev, symObjAddr: 0x147C0, symBinAddr: 0x100024BB4, symSize: 0x24 }
  - { offsetInCU: 0x15389, offset: 0x5FE53, size: 0x8, addend: 0x0, symName: __ZNSt3__122__compressed_pair_elemINS_9allocatorI12IntersectionEELi1ELb1EE5__getB7v160006Ev, symObjAddr: 0x147E4, symBinAddr: 0x100024BD8, symSize: 0x14 }
  - { offsetInCU: 0x153AE, offset: 0x5FE78, size: 0x8, addend: 0x0, symName: __ZNKSt3__16vectorI12IntersectionNS_9allocatorIS1_EEE9__end_capB7v160006Ev, symObjAddr: 0x147F8, symBinAddr: 0x100024BEC, symSize: 0x28 }
  - { offsetInCU: 0x153D3, offset: 0x5FE9D, size: 0x8, addend: 0x0, symName: __ZNKSt3__117__compressed_pairIP12IntersectionNS_9allocatorIS1_EEE5firstB7v160006Ev, symObjAddr: 0x14820, symBinAddr: 0x100024C14, symSize: 0x24 }
  - { offsetInCU: 0x153F8, offset: 0x5FEC2, size: 0x8, addend: 0x0, symName: __ZNKSt3__122__compressed_pair_elemIP12IntersectionLi0ELb0EE5__getB7v160006Ev, symObjAddr: 0x14844, symBinAddr: 0x100024C38, symSize: 0x14 }
  - { offsetInCU: 0x1541D, offset: 0x5FEE7, size: 0x8, addend: 0x0, symName: __ZNSt3__16vectorI6VertexNS_9allocatorIS1_EEE11__make_iterB7v160006EPS1_, symObjAddr: 0x14858, symBinAddr: 0x100024C4C, symSize: 0x34 }
  - { offsetInCU: 0x15451, offset: 0x5FF1B, size: 0x8, addend: 0x0, symName: __ZNSt3__111__wrap_iterIP6VertexEC1B7v160006EPKvS2_, symObjAddr: 0x1488C, symBinAddr: 0x100024C80, symSize: 0x3C }
  - { offsetInCU: 0x15496, offset: 0x5FF60, size: 0x8, addend: 0x0, symName: __ZNSt3__111__wrap_iterIP6VertexEC2B7v160006EPKvS2_, symObjAddr: 0x148C8, symBinAddr: 0x100024CBC, symSize: 0x24 }
  - { offsetInCU: 0x154DB, offset: 0x5FFA5, size: 0x8, addend: 0x0, symName: __ZNSt3__112__hash_tableINS_17__hash_value_typeI14PlayerMovementN6Player13AnimationDataEEENS_22__unordered_map_hasherIS2_S5_NS_4hashIS2_EENS_8equal_toIS2_EELb1EEENS_21__unordered_map_equalIS2_S5_SA_S8_Lb1EEENS_9allocatorIS5_EEE25__emplace_unique_key_argsIS2_JRKNS_21piecewise_construct_tENS_5tupleIJRKS2_EEENSL_IJEEEEEENS_4pairINS_15__hash_iteratorIPNS_11__hash_nodeIS5_PvEEEEbEERKT_DpOT0_, symObjAddr: 0x148EC, symBinAddr: 0x100024CE0, symSize: 0x498 }
  - { offsetInCU: 0x155E5, offset: 0x600AF, size: 0x8, addend: 0x0, symName: __ZNSt3__112__hash_tableINS_17__hash_value_typeI14PlayerMovementN6Player13AnimationDataEEENS_22__unordered_map_hasherIS2_S5_NS_4hashIS2_EENS_8equal_toIS2_EELb1EEENS_21__unordered_map_equalIS2_S5_SA_S8_Lb1EEENS_9allocatorIS5_EEE21__construct_node_hashIRKNS_21piecewise_construct_tEJNS_5tupleIJRKS2_EEENSL_IJEEEEEENS_10unique_ptrINS_11__hash_nodeIS5_PvEENS_22__hash_node_destructorINSE_IST_EEEEEEmOT_DpOT0_, symObjAddr: 0x14DB0, symBinAddr: 0x1000251A4, symSize: 0x150 }
  - { offsetInCU: 0x15680, offset: 0x6014A, size: 0x8, addend: 0x0, symName: __ZNSt3__116allocator_traitsINS_9allocatorINS_11__hash_nodeINS_17__hash_value_typeI14PlayerMovementN6Player13AnimationDataEEEPvEEEEE9constructB7v160006INS_4pairIKS4_S6_EEJRKNS_21piecewise_construct_tENS_5tupleIJRSE_EEENSJ_IJEEEEvEEvRSA_PT_DpOT0_, symObjAddr: 0x14F00, symBinAddr: 0x1000252F4, symSize: 0x44 }
  - { offsetInCU: 0x156FE, offset: 0x601C8, size: 0x8, addend: 0x0, symName: __ZNSt3__19allocatorINS_11__hash_nodeINS_17__hash_value_typeI14PlayerMovementN6Player13AnimationDataEEEPvEEE9constructB7v160006INS_4pairIKS3_S5_EEJRKNS_21piecewise_construct_tENS_5tupleIJRSC_EEENSH_IJEEEEEEvPT_DpOT0_, symObjAddr: 0x14F44, symBinAddr: 0x100025338, symSize: 0x44 }
  - { offsetInCU: 0x15779, offset: 0x60243, size: 0x8, addend: 0x0, symName: __ZNSt3__14pairIK14PlayerMovementN6Player13AnimationDataEEC1B7v160006IJRS2_EJEEENS_21piecewise_construct_tENS_5tupleIJDpT_EEENS9_IJDpT0_EEE, symObjAddr: 0x14F88, symBinAddr: 0x10002537C, symSize: 0x3C }
  - { offsetInCU: 0x157DF, offset: 0x602A9, size: 0x8, addend: 0x0, symName: __ZNSt3__14pairIK14PlayerMovementN6Player13AnimationDataEEC1B7v160006IJRS2_EJEJLm0EEJEEENS_21piecewise_construct_tERNS_5tupleIJDpT_EEERNS9_IJDpT0_EEENS_15__tuple_indicesIJXspT1_EEEENSI_IJXspT2_EEEE, symObjAddr: 0x14FC4, symBinAddr: 0x1000253B8, symSize: 0x3C }
  - { offsetInCU: 0x1586B, offset: 0x60335, size: 0x8, addend: 0x0, symName: __ZNSt3__14pairIK14PlayerMovementN6Player13AnimationDataEEC2B7v160006IJRS2_EJEJLm0EEJEEENS_21piecewise_construct_tERNS_5tupleIJDpT_EEERNS9_IJDpT0_EEENS_15__tuple_indicesIJXspT1_EEEENSI_IJXspT2_EEEE, symObjAddr: 0x15000, symBinAddr: 0x1000253F4, symSize: 0x4C }
  - { offsetInCU: 0x158F7, offset: 0x603C1, size: 0x8, addend: 0x0, symName: __ZNSt3__112__tuple_leafILm0ERK14PlayerMovementLb0EE3getB7v160006Ev, symObjAddr: 0x15070, symBinAddr: 0x100025464, symSize: 0x18 }
  - { offsetInCU: 0x1591C, offset: 0x603E6, size: 0x8, addend: 0x0, symName: __ZNSt3__15tupleIJRK14PlayerMovementEEC1B7v160006INS_4_AndELi0EEES3_, symObjAddr: 0x15088, symBinAddr: 0x10002547C, symSize: 0x34 }
  - { offsetInCU: 0x15964, offset: 0x6042E, size: 0x8, addend: 0x0, symName: __ZNSt3__15tupleIJRK14PlayerMovementEEC2B7v160006INS_4_AndELi0EEES3_, symObjAddr: 0x150BC, symBinAddr: 0x1000254B0, symSize: 0x34 }
  - { offsetInCU: 0x159AC, offset: 0x60476, size: 0x8, addend: 0x0, symName: __ZNSt3__112__tuple_implINS_15__tuple_indicesIJLm0EEEEJRK14PlayerMovementEEC1B7v160006IJLm0EEJS5_EJEJEJS5_EEENS1_IJXspT_EEEENS_13__tuple_typesIJDpT0_EEENS1_IJXspT1_EEEENS9_IJDpT2_EEEDpOT3_, symObjAddr: 0x150F0, symBinAddr: 0x1000254E4, symSize: 0x34 }
  - { offsetInCU: 0x15A3C, offset: 0x60506, size: 0x8, addend: 0x0, symName: __ZNSt3__112__tuple_implINS_15__tuple_indicesIJLm0EEEEJRK14PlayerMovementEEC2B7v160006IJLm0EEJS5_EJEJEJS5_EEENS1_IJXspT_EEEENS_13__tuple_typesIJDpT0_EEENS1_IJXspT1_EEEENS9_IJDpT2_EEEDpOT3_, symObjAddr: 0x15124, symBinAddr: 0x100025518, symSize: 0x34 }
  - { offsetInCU: 0x15ACC, offset: 0x60596, size: 0x8, addend: 0x0, symName: __ZNSt3__112__tuple_leafILm0ERK14PlayerMovementLb0EEC2B7v160006IS3_vEEOT_, symObjAddr: 0x15158, symBinAddr: 0x10002554C, symSize: 0x20 }
  - { offsetInCU: 0x63, offset: 0x6078B, size: 0x8, addend: 0x0, symName: __ZN3glm9value_ptrIfLNS_9qualifierE0EEEPKT_RKNS_3matILi4ELi4ES2_XT0_EEE, symObjAddr: 0x11C4, symBinAddr: 0x1000265A0, symSize: 0x28 }
  - { offsetInCU: 0xC1C9, offset: 0x6C8F1, size: 0x8, addend: 0x0, symName: __ZNSt3__1neB7v160006IcNS_11char_traitsIcEENS_9allocatorIcEEEEbRKNS_12basic_stringIT_T0_T1_EEPKS6_, symObjAddr: 0x11EC, symBinAddr: 0x1000265C8, symSize: 0x34 }
  - { offsetInCU: 0xEDB7, offset: 0x6F4DF, size: 0x8, addend: 0x0, symName: __ZN6ShaderC2EPKcS1_, symObjAddr: 0x0, symBinAddr: 0x10002556C, symSize: 0x5C8 }
  - { offsetInCU: 0xEF52, offset: 0x6F67A, size: 0x8, addend: 0x0, symName: __ZNSt3__114basic_ifstreamIcNS_11char_traitsIcEEEC1Ev, symObjAddr: 0x5F4, symBinAddr: 0x100025B34, symSize: 0xE8 }
  - { offsetInCU: 0xEF7D, offset: 0x6F6A5, size: 0x8, addend: 0x0, symName: __ZNSt3__19basic_iosIcNS_11char_traitsIcEEE10exceptionsB7v160006Ej, symObjAddr: 0x6DC, symBinAddr: 0x100025C1C, symSize: 0x2C }
  - { offsetInCU: 0xF013, offset: 0x6F73B, size: 0x8, addend: 0x0, symName: __ZNSt3__118basic_stringstreamIcNS_11char_traitsIcEENS_9allocatorIcEEEC1B7v160006Ev, symObjAddr: 0x708, symBinAddr: 0x100025C48, symSize: 0x104 }
  - { offsetInCU: 0xF03C, offset: 0x6F764, size: 0x8, addend: 0x0, symName: __ZNKSt3__114basic_ifstreamIcNS_11char_traitsIcEEE5rdbufEv, symObjAddr: 0x80C, symBinAddr: 0x100025D4C, symSize: 0x18 }
  - { offsetInCU: 0xF063, offset: 0x6F78B, size: 0x8, addend: 0x0, symName: __ZNSt3__114basic_ifstreamIcNS_11char_traitsIcEEE5closeEv, symObjAddr: 0x824, symBinAddr: 0x100025D64, symSize: 0x58 }
  - { offsetInCU: 0xF08A, offset: 0x6F7B2, size: 0x8, addend: 0x0, symName: __ZNKSt3__118basic_stringstreamIcNS_11char_traitsIcEENS_9allocatorIcEEE3strB7v160006Ev, symObjAddr: 0x87C, symBinAddr: 0x100025DBC, symSize: 0x30 }
  - { offsetInCU: 0xF0B4, offset: 0x6F7DC, size: 0x8, addend: 0x0, symName: __ZNSt3__118basic_stringstreamIcNS_11char_traitsIcEENS_9allocatorIcEEED1Ev, symObjAddr: 0x8E0, symBinAddr: 0x100025DEC, symSize: 0x40 }
  - { offsetInCU: 0xF0E0, offset: 0x6F808, size: 0x8, addend: 0x0, symName: __ZN6Shader18checkCompileErrorsEjNSt3__112basic_stringIcNS0_11char_traitsIcEENS0_9allocatorIcEEEE, symObjAddr: 0xA1C, symBinAddr: 0x100025E2C, symSize: 0x1CC }
  - { offsetInCU: 0xF149, offset: 0x6F871, size: 0x8, addend: 0x0, symName: __ZNSt3__114basic_ifstreamIcNS_11char_traitsIcEEED1Ev, symObjAddr: 0xC1C, symBinAddr: 0x100025FF8, symSize: 0x40 }
  - { offsetInCU: 0xF175, offset: 0x6F89D, size: 0x8, addend: 0x0, symName: __ZN6ShaderC1EPKcS1_, symObjAddr: 0xC5C, symBinAddr: 0x100026038, symSize: 0x3C }
  - { offsetInCU: 0xF1BB, offset: 0x6F8E3, size: 0x8, addend: 0x0, symName: __ZN6Shader3useEv, symObjAddr: 0xC98, symBinAddr: 0x100026074, symSize: 0x34 }
  - { offsetInCU: 0xF1E1, offset: 0x6F909, size: 0x8, addend: 0x0, symName: __ZNK6Shader7setBoolERKNSt3__112basic_stringIcNS0_11char_traitsIcEENS0_9allocatorIcEEEEb, symObjAddr: 0xCCC, symBinAddr: 0x1000260A8, symSize: 0x80 }
  - { offsetInCU: 0xF223, offset: 0x6F94B, size: 0x8, addend: 0x0, symName: __ZNK6Shader6setIntERKNSt3__112basic_stringIcNS0_11char_traitsIcEENS0_9allocatorIcEEEEi, symObjAddr: 0xD4C, symBinAddr: 0x100026128, symSize: 0x74 }
  - { offsetInCU: 0xF265, offset: 0x6F98D, size: 0x8, addend: 0x0, symName: __ZNK6Shader8setFloatERKNSt3__112basic_stringIcNS0_11char_traitsIcEENS0_9allocatorIcEEEEf, symObjAddr: 0xDC0, symBinAddr: 0x10002619C, symSize: 0x74 }
  - { offsetInCU: 0xF2A7, offset: 0x6F9CF, size: 0x8, addend: 0x0, symName: __ZNK6Shader7setVec2ERKNSt3__112basic_stringIcNS0_11char_traitsIcEENS0_9allocatorIcEEEERKN3glm3vecILi2EfLNS9_9qualifierE0EEE, symObjAddr: 0xE34, symBinAddr: 0x100026210, symSize: 0x8C }
  - { offsetInCU: 0xF2E9, offset: 0x6FA11, size: 0x8, addend: 0x0, symName: __ZNK3glm3vecILi2EfLNS_9qualifierE0EEixEi, symObjAddr: 0xEC0, symBinAddr: 0x10002629C, symSize: 0xE4 }
  - { offsetInCU: 0xF31D, offset: 0x6FA45, size: 0x8, addend: 0x0, symName: __ZNK6Shader7setVec3ERKNSt3__112basic_stringIcNS0_11char_traitsIcEENS0_9allocatorIcEEEERKN3glm3vecILi3EfLNS9_9qualifierE0EEE, symObjAddr: 0xFA4, symBinAddr: 0x100026380, symSize: 0x8C }
  - { offsetInCU: 0xF35F, offset: 0x6FA87, size: 0x8, addend: 0x0, symName: __ZNK3glm3vecILi3EfLNS_9qualifierE0EEixEi, symObjAddr: 0x1030, symBinAddr: 0x10002640C, symSize: 0x108 }
  - { offsetInCU: 0xF393, offset: 0x6FABB, size: 0x8, addend: 0x0, symName: __ZNK6Shader7setMat4ERKNSt3__112basic_stringIcNS0_11char_traitsIcEENS0_9allocatorIcEEEERKN3glm3matILi4ELi4EfLNS9_9qualifierE0EEE, symObjAddr: 0x1138, symBinAddr: 0x100026514, symSize: 0x8C }
  - { offsetInCU: 0xF3D5, offset: 0x6FAFD, size: 0x8, addend: 0x0, symName: __ZNSt3__118basic_stringstreamIcNS_11char_traitsIcEENS_9allocatorIcEEED2Ev, symObjAddr: 0x126C, symBinAddr: 0x1000265FC, symSize: 0x6C }
  - { offsetInCU: 0xF40D, offset: 0x6FB35, size: 0x8, addend: 0x0, symName: __ZThn16_NSt3__118basic_stringstreamIcNS_11char_traitsIcEENS_9allocatorIcEEED1Ev, symObjAddr: 0x12D8, symBinAddr: 0x100026668, symSize: 0x1C }
  - { offsetInCU: 0xF424, offset: 0x6FB4C, size: 0x8, addend: 0x0, symName: __ZTv0_n24_NSt3__118basic_stringstreamIcNS_11char_traitsIcEENS_9allocatorIcEEED1Ev, symObjAddr: 0x12F4, symBinAddr: 0x100026684, symSize: 0x28 }
  - { offsetInCU: 0xF440, offset: 0x6FB68, size: 0x8, addend: 0x0, symName: __ZNSt3__115basic_stringbufIcNS_11char_traitsIcEENS_9allocatorIcEEED1Ev, symObjAddr: 0x131C, symBinAddr: 0x1000266AC, symSize: 0x2C }
  - { offsetInCU: 0xF46C, offset: 0x6FB94, size: 0x8, addend: 0x0, symName: __ZNSt3__115basic_stringbufIcNS_11char_traitsIcEENS_9allocatorIcEEED2Ev, symObjAddr: 0x1348, symBinAddr: 0x1000266D8, symSize: 0x48 }
  - { offsetInCU: 0xF498, offset: 0x6FBC0, size: 0x8, addend: 0x0, symName: __ZNSt3__114basic_ifstreamIcNS_11char_traitsIcEEED2Ev, symObjAddr: 0x1390, symBinAddr: 0x100026720, symSize: 0x64 }
  - { offsetInCU: 0xF4D0, offset: 0x6FBF8, size: 0x8, addend: 0x0, symName: __ZTv0_n24_NSt3__114basic_ifstreamIcNS_11char_traitsIcEEED1Ev, symObjAddr: 0x13F4, symBinAddr: 0x100026784, symSize: 0x28 }
  - { offsetInCU: 0xF4E7, offset: 0x6FC0F, size: 0x8, addend: 0x0, symName: __ZN3glm3vecILi2EfLNS_9qualifierE0EE6lengthEv, symObjAddr: 0x141C, symBinAddr: 0x1000267AC, symSize: 0x8 }
  - { offsetInCU: 0xF4FA, offset: 0x6FC22, size: 0x8, addend: 0x0, symName: __ZN3glm3vecILi3EfLNS_9qualifierE0EE6lengthEv, symObjAddr: 0x1424, symBinAddr: 0x1000267B4, symSize: 0x8 }
  - { offsetInCU: 0xF50D, offset: 0x6FC35, size: 0x8, addend: 0x0, symName: __ZNSt3__19basic_iosIcNS_11char_traitsIcEEEC2B7v160006Ev, symObjAddr: 0x1BB8, symBinAddr: 0x1000267BC, symSize: 0x44 }
  - { offsetInCU: 0xF536, offset: 0x6FC5E, size: 0x8, addend: 0x0, symName: __ZNSt3__113basic_istreamIcNS_11char_traitsIcEEEC2B7v160006EPNS_15basic_streambufIcS2_EE, symObjAddr: 0x1BFC, symBinAddr: 0x100026800, symSize: 0x64 }
  - { offsetInCU: 0xF579, offset: 0x6FCA1, size: 0x8, addend: 0x0, symName: __ZNSt3__18ios_baseC2B7v160006Ev, symObjAddr: 0x1C60, symBinAddr: 0x100026864, symSize: 0x24 }
  - { offsetInCU: 0xF5A2, offset: 0x6FCCA, size: 0x8, addend: 0x0, symName: __ZNSt3__19basic_iosIcNS_11char_traitsIcEEE4initB7v160006EPNS_15basic_streambufIcS2_EE, symObjAddr: 0x1C84, symBinAddr: 0x100026888, symSize: 0x44 }
  - { offsetInCU: 0xF5D8, offset: 0x6FD00, size: 0x8, addend: 0x0, symName: __ZNSt3__18ios_base10exceptionsB7v160006Ej, symObjAddr: 0x1CD0, symBinAddr: 0x1000268CC, symSize: 0x34 }
  - { offsetInCU: 0xF60E, offset: 0x6FD36, size: 0x8, addend: 0x0, symName: __ZNSt3__114basic_iostreamIcNS_11char_traitsIcEEEC2B7v160006EPNS_15basic_streambufIcS2_EE, symObjAddr: 0x1D04, symBinAddr: 0x100026900, symSize: 0xAC }
  - { offsetInCU: 0xF652, offset: 0x6FD7A, size: 0x8, addend: 0x0, symName: __ZNSt3__115basic_stringbufIcNS_11char_traitsIcEENS_9allocatorIcEEEC1B7v160006Ej, symObjAddr: 0x1DB0, symBinAddr: 0x1000269AC, symSize: 0x34 }
  - { offsetInCU: 0xF689, offset: 0x6FDB1, size: 0x8, addend: 0x0, symName: __ZNSt3__113basic_ostreamIcNS_11char_traitsIcEEEC2B7v160006Ev, symObjAddr: 0x1DE4, symBinAddr: 0x1000269E0, symSize: 0x34 }
  - { offsetInCU: 0xF6BE, offset: 0x6FDE6, size: 0x8, addend: 0x0, symName: __ZNSt3__115basic_stringbufIcNS_11char_traitsIcEENS_9allocatorIcEEEC2B7v160006Ej, symObjAddr: 0x1E18, symBinAddr: 0x100026A14, symSize: 0x60 }
  - { offsetInCU: 0xF713, offset: 0x6FE3B, size: 0x8, addend: 0x0, symName: __ZNK3glm3matILi4ELi4EfLNS_9qualifierE0EEixEi, symObjAddr: 0x27EC, symBinAddr: 0x100026A74, symSize: 0x78 }
  - { offsetInCU: 0x61F8, offset: 0x76147, size: 0x8, addend: 0x0, symName: __ZNK3Tri15check_collisionEPKS_, symObjAddr: 0x0, symBinAddr: 0x100026AEC, symSize: 0x19C }
  - { offsetInCU: 0x622C, offset: 0x7617B, size: 0x8, addend: 0x0, symName: __ZNK3Tri9seperatesERKN3glm3vecILi3EfLNS0_9qualifierE0EEES5_PS4_PKS_, symObjAddr: 0x19C, symBinAddr: 0x100026C88, symSize: 0xB8 }
  - { offsetInCU: 0x628A, offset: 0x761D9, size: 0x8, addend: 0x0, symName: __ZNK3Tri8toStringEv, symObjAddr: 0x254, symBinAddr: 0x100026D40, symSize: 0x208 }
  - { offsetInCU: 0x639B, offset: 0x762EA, size: 0x8, addend: 0x0, symName: __ZNK3Tri4signERKf, symObjAddr: 0x618, symBinAddr: 0x100026F48, symSize: 0x88 }
  - { offsetInCU: 0x63CF, offset: 0x7631E, size: 0x8, addend: 0x0, symName: __ZNK3Tri8samesideEPKN3glm3vecILi3EfLNS0_9qualifierE0EEES5_S5_S5_, symObjAddr: 0x6A0, symBinAddr: 0x100026FD0, symSize: 0xEC }
  - { offsetInCU: 0x26, offset: 0x763C3, size: 0x8, addend: 0x0, symName: _stbi_failure_reason, symObjAddr: 0x0, symBinAddr: 0x1000270BC, symSize: 0x24 }
  - { offsetInCU: 0x58, offset: 0x763F5, size: 0x8, addend: 0x0, symName: __ZL36stbi__vertically_flip_on_load_global, symObjAddr: 0x3ADE0, symBinAddr: 0x100050190, symSize: 0x0 }
  - { offsetInCU: 0x7A, offset: 0x76417, size: 0x8, addend: 0x0, symName: __ZL21stbi__stdio_callbacks, symObjAddr: 0x1A628, symBinAddr: 0x100050018, symSize: 0x0 }
  - { offsetInCU: 0x105, offset: 0x764A2, size: 0x8, addend: 0x0, symName: __ZL22stbi__check_png_headerP13stbi__context, symObjAddr: 0x74AC, symBinAddr: 0x10002E568, symSize: 0x98 }
  - { offsetInCU: 0x131, offset: 0x764CE, size: 0x8, addend: 0x0, symName: __ZZL22stbi__check_png_headerP13stbi__contextE7png_sig, symObjAddr: 0x1A6A8, symBinAddr: 0x10004A24C, symSize: 0x0 }
  - { offsetInCU: 0x17E, offset: 0x7651B, size: 0x8, addend: 0x0, symName: __ZL20stbi__parse_png_fileP9stbi__pngii, symObjAddr: 0x79C8, symBinAddr: 0x10002EA84, symSize: 0xE50 }
  - { offsetInCU: 0x1AA, offset: 0x76547, size: 0x8, addend: 0x0, symName: __ZZL20stbi__parse_png_fileP9stbi__pngiiE13invalid_chunk, symObjAddr: 0x1A640, symBinAddr: 0x100050030, symSize: 0x0 }
  - { offsetInCU: 0x390, offset: 0x7672D, size: 0x8, addend: 0x0, symName: __ZL23stbi__depth_scale_table, symObjAddr: 0x1A6B0, symBinAddr: 0x10004A254, symSize: 0x0 }
  - { offsetInCU: 0x3B7, offset: 0x76754, size: 0x8, addend: 0x0, symName: __ZL16first_row_filter, symObjAddr: 0x1A659, symBinAddr: 0x100050049, symSize: 0x0 }
  - { offsetInCU: 0x3D1, offset: 0x7676E, size: 0x8, addend: 0x0, symName: __ZL17stbi__shiftsignedjii, symObjAddr: 0xD254, symBinAddr: 0x100034310, symSize: 0x144 }
  - { offsetInCU: 0x3FD, offset: 0x7679A, size: 0x8, addend: 0x0, symName: __ZZL17stbi__shiftsignedjiiE9mul_table, symObjAddr: 0x1A660, symBinAddr: 0x100050050, symSize: 0x0 }
  - { offsetInCU: 0x414, offset: 0x767B1, size: 0x8, addend: 0x0, symName: __ZZL17stbi__shiftsignedjiiE11shift_table, symObjAddr: 0x1A684, symBinAddr: 0x100050074, symSize: 0x0 }
  - { offsetInCU: 0x45F, offset: 0x767FC, size: 0x8, addend: 0x0, symName: __ZL20stbi__process_markerP10stbi__jpegi, symObjAddr: 0x10738, symBinAddr: 0x1000377F4, symSize: 0x81C }
  - { offsetInCU: 0x48B, offset: 0x76828, size: 0x8, addend: 0x0, symName: __ZZL20stbi__process_markerP10stbi__jpegiE3tag, symObjAddr: 0x1A77B, symBinAddr: 0x10004A31F, symSize: 0x0 }
  - { offsetInCU: 0x4A2, offset: 0x7683F, size: 0x8, addend: 0x0, symName: __ZZL20stbi__process_markerP10stbi__jpegiE3tag_0, symObjAddr: 0x1A780, symBinAddr: 0x10004A324, symSize: 0x0 }
  - { offsetInCU: 0x634, offset: 0x769D1, size: 0x8, addend: 0x0, symName: __ZL19stbi__jpeg_dezigzag, symObjAddr: 0x1A72C, symBinAddr: 0x10004A2D0, symSize: 0x0 }
  - { offsetInCU: 0x64E, offset: 0x769EB, size: 0x8, addend: 0x0, symName: __ZL26stbi__process_frame_headerP10stbi__jpegi, symObjAddr: 0x10F54, symBinAddr: 0x100038010, symSize: 0xC44 }
  - { offsetInCU: 0x67A, offset: 0x76A17, size: 0x8, addend: 0x0, symName: __ZZL26stbi__process_frame_headerP10stbi__jpegiE3rgb, symObjAddr: 0x1A786, symBinAddr: 0x10004A32A, symSize: 0x0 }
  - { offsetInCU: 0x734, offset: 0x76AD1, size: 0x8, addend: 0x0, symName: __ZL11stbi__bmask, symObjAddr: 0x1A78C, symBinAddr: 0x10004A330, symSize: 0x0 }
  - { offsetInCU: 0x76C, offset: 0x76B09, size: 0x8, addend: 0x0, symName: __ZL11stbi__jbias, symObjAddr: 0x1A7D0, symBinAddr: 0x10004A374, symSize: 0x0 }
  - { offsetInCU: 0x798, offset: 0x76B35, size: 0x8, addend: 0x0, symName: __ZL15stbi__l2h_gamma, symObjAddr: 0x1A618, symBinAddr: 0x100050008, symSize: 0x0 }
  - { offsetInCU: 0x7BA, offset: 0x76B57, size: 0x8, addend: 0x0, symName: __ZL15stbi__l2h_scale, symObjAddr: 0x1A61C, symBinAddr: 0x10005000C, symSize: 0x0 }
  - { offsetInCU: 0x7D5, offset: 0x76B72, size: 0x8, addend: 0x0, symName: __ZL17stbi__h2l_gamma_i, symObjAddr: 0x1A620, symBinAddr: 0x100050010, symSize: 0x0 }
  - { offsetInCU: 0x7F0, offset: 0x76B8D, size: 0x8, addend: 0x0, symName: __ZL17stbi__h2l_scale_i, symObjAddr: 0x1A624, symBinAddr: 0x100050014, symSize: 0x0 }
  - { offsetInCU: 0x80B, offset: 0x76BA8, size: 0x8, addend: 0x0, symName: __ZL21stbi__zdefault_length, symObjAddr: 0x1A810, symBinAddr: 0x10004A3B4, symSize: 0x0 }
  - { offsetInCU: 0x834, offset: 0x76BD1, size: 0x8, addend: 0x0, symName: __ZL23stbi__zdefault_distance, symObjAddr: 0x1A930, symBinAddr: 0x10004A4D4, symSize: 0x0 }
  - { offsetInCU: 0x84E, offset: 0x76BEB, size: 0x8, addend: 0x0, symName: __ZL27stbi__compute_huffman_codesP10stbi__zbuf, symObjAddr: 0x17C3C, symBinAddr: 0x10003ECF8, symSize: 0x3D0 }
  - { offsetInCU: 0x87A, offset: 0x76C17, size: 0x8, addend: 0x0, symName: __ZZL27stbi__compute_huffman_codesP10stbi__zbufE15length_dezigzag, symObjAddr: 0x1A950, symBinAddr: 0x10004A4F4, symSize: 0x0 }
  - { offsetInCU: 0x987, offset: 0x76D24, size: 0x8, addend: 0x0, symName: __ZL18stbi__zlength_base, symObjAddr: 0x1A964, symBinAddr: 0x10004A508, symSize: 0x0 }
  - { offsetInCU: 0x9AE, offset: 0x76D4B, size: 0x8, addend: 0x0, symName: __ZL19stbi__zlength_extra, symObjAddr: 0x1A9E0, symBinAddr: 0x10004A584, symSize: 0x0 }
  - { offsetInCU: 0x9C9, offset: 0x76D66, size: 0x8, addend: 0x0, symName: __ZL16stbi__zdist_base, symObjAddr: 0x1AA5C, symBinAddr: 0x10004A600, symSize: 0x0 }
  - { offsetInCU: 0x9F0, offset: 0x76D8D, size: 0x8, addend: 0x0, symName: __ZL17stbi__zdist_extra, symObjAddr: 0x1AADC, symBinAddr: 0x10004A680, symSize: 0x0 }
  - { offsetInCU: 0xA0B, offset: 0x76DA8, size: 0x8, addend: 0x0, symName: __ZL34stbi__unpremultiply_on_load_global, symObjAddr: 0x3ADE4, symBinAddr: 0x100050194, symSize: 0x0 }
  - { offsetInCU: 0xA26, offset: 0x76DC3, size: 0x8, addend: 0x0, symName: __ZL27stbi__de_iphone_flag_global, symObjAddr: 0x3ADE8, symBinAddr: 0x100050198, symSize: 0x0 }
  - { offsetInCU: 0x142E, offset: 0x777CB, size: 0x8, addend: 0x0, symName: _stbi_failure_reason, symObjAddr: 0x0, symBinAddr: 0x1000270BC, symSize: 0x24 }
  - { offsetInCU: 0x1449, offset: 0x777E6, size: 0x8, addend: 0x0, symName: _stbi_image_free, symObjAddr: 0x24, symBinAddr: 0x1000270E0, symSize: 0x24 }
  - { offsetInCU: 0x1470, offset: 0x7780D, size: 0x8, addend: 0x0, symName: _stbi_set_flip_vertically_on_load, symObjAddr: 0x48, symBinAddr: 0x100027104, symSize: 0x1C }
  - { offsetInCU: 0x1497, offset: 0x77834, size: 0x8, addend: 0x0, symName: _stbi_set_flip_vertically_on_load_thread, symObjAddr: 0x64, symBinAddr: 0x100027120, symSize: 0x4C }
  - { offsetInCU: 0x14BE, offset: 0x7785B, size: 0x8, addend: 0x0, symName: _stbi_load, symObjAddr: 0xB0, symBinAddr: 0x10002716C, symSize: 0xB4 }
  - { offsetInCU: 0x1543, offset: 0x778E0, size: 0x8, addend: 0x0, symName: __ZL11stbi__fopenPKcS0_, symObjAddr: 0x164, symBinAddr: 0x100027220, symSize: 0x34 }
  - { offsetInCU: 0x1590, offset: 0x7792D, size: 0x8, addend: 0x0, symName: __ZL9stbi__errPKc, symObjAddr: 0x198, symBinAddr: 0x100027254, symSize: 0x38 }
  - { offsetInCU: 0x15BF, offset: 0x7795C, size: 0x8, addend: 0x0, symName: _stbi_load_from_file, symObjAddr: 0x1D0, symBinAddr: 0x10002728C, symSize: 0xE4 }
  - { offsetInCU: 0x1646, offset: 0x779E3, size: 0x8, addend: 0x0, symName: __ZL16stbi__start_fileP13stbi__contextP7__sFILE, symObjAddr: 0x2B4, symBinAddr: 0x100027370, symSize: 0x34 }
  - { offsetInCU: 0x1680, offset: 0x77A1D, size: 0x8, addend: 0x0, symName: __ZL31stbi__load_and_postprocess_8bitP13stbi__contextPiS1_S1_i, symObjAddr: 0x2E8, symBinAddr: 0x1000273A4, symSize: 0x1F4 }
  - { offsetInCU: 0x1726, offset: 0x77AC3, size: 0x8, addend: 0x0, symName: _stbi_load_from_file_16, symObjAddr: 0x4DC, symBinAddr: 0x100027598, symSize: 0xE4 }
  - { offsetInCU: 0x17AD, offset: 0x77B4A, size: 0x8, addend: 0x0, symName: __ZL32stbi__load_and_postprocess_16bitP13stbi__contextPiS1_S1_i, symObjAddr: 0x5C0, symBinAddr: 0x10002767C, symSize: 0x1F8 }
  - { offsetInCU: 0x1853, offset: 0x77BF0, size: 0x8, addend: 0x0, symName: _stbi_load_16, symObjAddr: 0x7B8, symBinAddr: 0x100027874, symSize: 0xB4 }
  - { offsetInCU: 0x18D8, offset: 0x77C75, size: 0x8, addend: 0x0, symName: _stbi_load_16_from_memory, symObjAddr: 0x86C, symBinAddr: 0x100027928, symSize: 0xA0 }
  - { offsetInCU: 0x195F, offset: 0x77CFC, size: 0x8, addend: 0x0, symName: __ZL15stbi__start_memP13stbi__contextPKhi, symObjAddr: 0x90C, symBinAddr: 0x1000279C8, symSize: 0x60 }
  - { offsetInCU: 0x19A8, offset: 0x77D45, size: 0x8, addend: 0x0, symName: _stbi_load_16_from_callbacks, symObjAddr: 0x96C, symBinAddr: 0x100027A28, symSize: 0xA0 }
  - { offsetInCU: 0x1A2F, offset: 0x77DCC, size: 0x8, addend: 0x0, symName: __ZL21stbi__start_callbacksP13stbi__contextP17stbi_io_callbacksPv, symObjAddr: 0xA0C, symBinAddr: 0x100027AC8, symSize: 0x9C }
  - { offsetInCU: 0x1A78, offset: 0x77E15, size: 0x8, addend: 0x0, symName: _stbi_load_from_memory, symObjAddr: 0xAA8, symBinAddr: 0x100027B64, symSize: 0xA0 }
  - { offsetInCU: 0x1AFF, offset: 0x77E9C, size: 0x8, addend: 0x0, symName: _stbi_load_from_callbacks, symObjAddr: 0xB48, symBinAddr: 0x100027C04, symSize: 0xA0 }
  - { offsetInCU: 0x1B86, offset: 0x77F23, size: 0x8, addend: 0x0, symName: _stbi_load_gif_from_memory, symObjAddr: 0xBE8, symBinAddr: 0x100027CA4, symSize: 0x134 }
  - { offsetInCU: 0x1C3E, offset: 0x77FDB, size: 0x8, addend: 0x0, symName: __ZL19stbi__load_gif_mainP13stbi__contextPPiS1_S1_S1_S1_i, symObjAddr: 0xD1C, symBinAddr: 0x100027DD8, symSize: 0x500 }
  - { offsetInCU: 0x1D8D, offset: 0x7812A, size: 0x8, addend: 0x0, symName: __ZL26stbi__vertical_flip_slicesPviiii, symObjAddr: 0x121C, symBinAddr: 0x1000282D8, symSize: 0xA4 }
  - { offsetInCU: 0x1E21, offset: 0x781BE, size: 0x8, addend: 0x0, symName: _stbi_loadf_from_memory, symObjAddr: 0x12C0, symBinAddr: 0x10002837C, symSize: 0xA0 }
  - { offsetInCU: 0x1EA8, offset: 0x78245, size: 0x8, addend: 0x0, symName: __ZL16stbi__loadf_mainP13stbi__contextPiS1_S1_i, symObjAddr: 0x1360, symBinAddr: 0x10002841C, symSize: 0x16C }
  - { offsetInCU: 0x1F4E, offset: 0x782EB, size: 0x8, addend: 0x0, symName: _stbi_loadf_from_callbacks, symObjAddr: 0x14CC, symBinAddr: 0x100028588, symSize: 0xA0 }
  - { offsetInCU: 0x1FD5, offset: 0x78372, size: 0x8, addend: 0x0, symName: _stbi_loadf, symObjAddr: 0x156C, symBinAddr: 0x100028628, symSize: 0xB4 }
  - { offsetInCU: 0x205A, offset: 0x783F7, size: 0x8, addend: 0x0, symName: _stbi_loadf_from_file, symObjAddr: 0x1620, symBinAddr: 0x1000286DC, symSize: 0x98 }
  - { offsetInCU: 0x20D0, offset: 0x7846D, size: 0x8, addend: 0x0, symName: _stbi_is_hdr_from_memory, symObjAddr: 0x16B8, symBinAddr: 0x100028774, symSize: 0x80 }
  - { offsetInCU: 0x2119, offset: 0x784B6, size: 0x8, addend: 0x0, symName: __ZL14stbi__hdr_testP13stbi__context, symObjAddr: 0x1738, symBinAddr: 0x1000287F4, symSize: 0x70 }
  - { offsetInCU: 0x2157, offset: 0x784F4, size: 0x8, addend: 0x0, symName: _stbi_is_hdr, symObjAddr: 0x17A8, symBinAddr: 0x100028864, symSize: 0x64 }
  - { offsetInCU: 0x21A0, offset: 0x7853D, size: 0x8, addend: 0x0, symName: _stbi_is_hdr_from_file, symObjAddr: 0x180C, symBinAddr: 0x1000288C8, symSize: 0x9C }
  - { offsetInCU: 0x21F8, offset: 0x78595, size: 0x8, addend: 0x0, symName: _stbi_is_hdr_from_callbacks, symObjAddr: 0x18A8, symBinAddr: 0x100028964, symSize: 0x80 }
  - { offsetInCU: 0x2241, offset: 0x785DE, size: 0x8, addend: 0x0, symName: _stbi_ldr_to_hdr_gamma, symObjAddr: 0x1928, symBinAddr: 0x1000289E4, symSize: 0x1C }
  - { offsetInCU: 0x2268, offset: 0x78605, size: 0x8, addend: 0x0, symName: _stbi_ldr_to_hdr_scale, symObjAddr: 0x1944, symBinAddr: 0x100028A00, symSize: 0x1C }
  - { offsetInCU: 0x228F, offset: 0x7862C, size: 0x8, addend: 0x0, symName: _stbi_hdr_to_ldr_gamma, symObjAddr: 0x1960, symBinAddr: 0x100028A1C, symSize: 0x24 }
  - { offsetInCU: 0x22B6, offset: 0x78653, size: 0x8, addend: 0x0, symName: _stbi_hdr_to_ldr_scale, symObjAddr: 0x1984, symBinAddr: 0x100028A40, symSize: 0x24 }
  - { offsetInCU: 0x22DD, offset: 0x7867A, size: 0x8, addend: 0x0, symName: _stbi_zlib_decode_malloc_guesssize, symObjAddr: 0x19A8, symBinAddr: 0x100028A64, symSize: 0x138 }
  - { offsetInCU: 0x2353, offset: 0x786F0, size: 0x8, addend: 0x0, symName: __ZL12stbi__mallocm, symObjAddr: 0x1AE0, symBinAddr: 0x100028B9C, symSize: 0x24 }
  - { offsetInCU: 0x2382, offset: 0x7871F, size: 0x8, addend: 0x0, symName: __ZL13stbi__do_zlibP10stbi__zbufPciii, symObjAddr: 0x1B04, symBinAddr: 0x100028BC0, symSize: 0x70 }
  - { offsetInCU: 0x23ED, offset: 0x7878A, size: 0x8, addend: 0x0, symName: _stbi_zlib_decode_malloc, symObjAddr: 0x1B74, symBinAddr: 0x100028C30, symSize: 0x38 }
  - { offsetInCU: 0x2436, offset: 0x787D3, size: 0x8, addend: 0x0, symName: _stbi_zlib_decode_malloc_guesssize_headerflag, symObjAddr: 0x1BAC, symBinAddr: 0x100028C68, symSize: 0x13C }
  - { offsetInCU: 0x24BB, offset: 0x78858, size: 0x8, addend: 0x0, symName: _stbi_zlib_decode_buffer, symObjAddr: 0x1CE8, symBinAddr: 0x100028DA4, symSize: 0xE8 }
  - { offsetInCU: 0x2522, offset: 0x788BF, size: 0x8, addend: 0x0, symName: _stbi_zlib_decode_noheader_malloc, symObjAddr: 0x1DD0, symBinAddr: 0x100028E8C, symSize: 0x134 }
  - { offsetInCU: 0x2589, offset: 0x78926, size: 0x8, addend: 0x0, symName: _stbi_zlib_decode_noheader_buffer, symObjAddr: 0x1F04, symBinAddr: 0x100028FC0, symSize: 0xE8 }
  - { offsetInCU: 0x25F0, offset: 0x7898D, size: 0x8, addend: 0x0, symName: _stbi_set_unpremultiply_on_load, symObjAddr: 0x1FEC, symBinAddr: 0x1000290A8, symSize: 0x1C }
  - { offsetInCU: 0x2617, offset: 0x789B4, size: 0x8, addend: 0x0, symName: _stbi_convert_iphone_png_to_rgb, symObjAddr: 0x2008, symBinAddr: 0x1000290C4, symSize: 0x1C }
  - { offsetInCU: 0x263E, offset: 0x789DB, size: 0x8, addend: 0x0, symName: __Z34stbi__unpremultiply_on_load_threadi, symObjAddr: 0x2024, symBinAddr: 0x1000290E0, symSize: 0x4C }
  - { offsetInCU: 0x2668, offset: 0x78A05, size: 0x8, addend: 0x0, symName: _stbi_convert_iphone_png_to_rgb_thread, symObjAddr: 0x2070, symBinAddr: 0x10002912C, symSize: 0x4C }
  - { offsetInCU: 0x268F, offset: 0x78A2C, size: 0x8, addend: 0x0, symName: _stbi_info, symObjAddr: 0x20BC, symBinAddr: 0x100029178, symSize: 0x94 }
  - { offsetInCU: 0x2705, offset: 0x78AA2, size: 0x8, addend: 0x0, symName: _stbi_info_from_file, symObjAddr: 0x2150, symBinAddr: 0x10002920C, symSize: 0xB4 }
  - { offsetInCU: 0x278C, offset: 0x78B29, size: 0x8, addend: 0x0, symName: __ZL15stbi__info_mainP13stbi__contextPiS1_S1_, symObjAddr: 0x2204, symBinAddr: 0x1000292C0, symSize: 0x1F0 }
  - { offsetInCU: 0x27E8, offset: 0x78B85, size: 0x8, addend: 0x0, symName: _stbi_is_16_bit, symObjAddr: 0x23F4, symBinAddr: 0x1000294B0, symSize: 0x7C }
  - { offsetInCU: 0x2831, offset: 0x78BCE, size: 0x8, addend: 0x0, symName: _stbi_is_16_bit_from_file, symObjAddr: 0x2470, symBinAddr: 0x10002952C, symSize: 0x9C }
  - { offsetInCU: 0x2889, offset: 0x78C26, size: 0x8, addend: 0x0, symName: __ZL16stbi__is_16_mainP13stbi__context, symObjAddr: 0x250C, symBinAddr: 0x1000295C8, symSize: 0x94 }
  - { offsetInCU: 0x28B8, offset: 0x78C55, size: 0x8, addend: 0x0, symName: _stbi_info_from_memory, symObjAddr: 0x25A0, symBinAddr: 0x10002965C, symSize: 0x98 }
  - { offsetInCU: 0x292E, offset: 0x78CCB, size: 0x8, addend: 0x0, symName: _stbi_info_from_callbacks, symObjAddr: 0x2638, symBinAddr: 0x1000296F4, symSize: 0x98 }
  - { offsetInCU: 0x29A4, offset: 0x78D41, size: 0x8, addend: 0x0, symName: _stbi_is_16_bit_from_memory, symObjAddr: 0x26D0, symBinAddr: 0x10002978C, symSize: 0x80 }
  - { offsetInCU: 0x29ED, offset: 0x78D8A, size: 0x8, addend: 0x0, symName: _stbi_is_16_bit_from_callbacks, symObjAddr: 0x2750, symBinAddr: 0x10002980C, symSize: 0x80 }
  - { offsetInCU: 0x2A36, offset: 0x78DD3, size: 0x8, addend: 0x0, symName: __ZL16stbi__stdio_readPvPci, symObjAddr: 0x27D0, symBinAddr: 0x10002988C, symSize: 0x38 }
  - { offsetInCU: 0x2A83, offset: 0x78E20, size: 0x8, addend: 0x0, symName: __ZL16stbi__stdio_skipPvi, symObjAddr: 0x2808, symBinAddr: 0x1000298C4, symSize: 0x60 }
  - { offsetInCU: 0x2ACC, offset: 0x78E69, size: 0x8, addend: 0x0, symName: __ZL15stbi__stdio_eofPv, symObjAddr: 0x2868, symBinAddr: 0x100029924, symSize: 0x5C }
  - { offsetInCU: 0x2AFB, offset: 0x78E98, size: 0x8, addend: 0x0, symName: __ZL15stbi__load_mainP13stbi__contextPiS1_S1_iP17stbi__result_infoi, symObjAddr: 0x28C4, symBinAddr: 0x100029980, symSize: 0x314 }
  - { offsetInCU: 0x2BA1, offset: 0x78F3E, size: 0x8, addend: 0x0, symName: __ZL21stbi__convert_16_to_8Ptiii, symObjAddr: 0x2BD8, symBinAddr: 0x100029C94, symSize: 0xF8 }
  - { offsetInCU: 0x2C2A, offset: 0x78FC7, size: 0x8, addend: 0x0, symName: __ZL19stbi__vertical_flipPviii, symObjAddr: 0x2CD0, symBinAddr: 0x100029D8C, symSize: 0x1B0 }
  - { offsetInCU: 0x2D1C, offset: 0x790B9, size: 0x8, addend: 0x0, symName: __ZL14stbi__png_testP13stbi__context, symObjAddr: 0x2E80, symBinAddr: 0x100029F3C, symSize: 0x34 }
  - { offsetInCU: 0x2D5A, offset: 0x790F7, size: 0x8, addend: 0x0, symName: __ZL14stbi__png_loadP13stbi__contextPiS1_S1_iP17stbi__result_info, symObjAddr: 0x2EB4, symBinAddr: 0x100029F70, symSize: 0x54 }
  - { offsetInCU: 0x2DE3, offset: 0x79180, size: 0x8, addend: 0x0, symName: __ZL14stbi__bmp_testP13stbi__context, symObjAddr: 0x2F08, symBinAddr: 0x100029FC4, symSize: 0x34 }
  - { offsetInCU: 0x2E21, offset: 0x791BE, size: 0x8, addend: 0x0, symName: __ZL14stbi__bmp_loadP13stbi__contextPiS1_S1_iP17stbi__result_info, symObjAddr: 0x2F3C, symBinAddr: 0x100029FF8, symSize: 0x1328 }
  - { offsetInCU: 0x3180, offset: 0x7951D, size: 0x8, addend: 0x0, symName: __ZL14stbi__gif_testP13stbi__context, symObjAddr: 0x4264, symBinAddr: 0x10002B320, symSize: 0x34 }
  - { offsetInCU: 0x31BE, offset: 0x7955B, size: 0x8, addend: 0x0, symName: __ZL14stbi__gif_loadP13stbi__contextPiS1_S1_iP17stbi__result_info, symObjAddr: 0x4298, symBinAddr: 0x10002B354, symSize: 0x184 }
  - { offsetInCU: 0x3257, offset: 0x795F4, size: 0x8, addend: 0x0, symName: __ZL14stbi__psd_testP13stbi__context, symObjAddr: 0x441C, symBinAddr: 0x10002B4D8, symSize: 0x48 }
  - { offsetInCU: 0x3295, offset: 0x79632, size: 0x8, addend: 0x0, symName: __ZL14stbi__psd_loadP13stbi__contextPiS1_S1_iP17stbi__result_infoi, symObjAddr: 0x4464, symBinAddr: 0x10002B520, symSize: 0xC90 }
  - { offsetInCU: 0x3519, offset: 0x798B6, size: 0x8, addend: 0x0, symName: __ZL14stbi__pic_testP13stbi__context, symObjAddr: 0x50F4, symBinAddr: 0x10002C1B0, symSize: 0x34 }
  - { offsetInCU: 0x3557, offset: 0x798F4, size: 0x8, addend: 0x0, symName: __ZL14stbi__pic_loadP13stbi__contextPiS1_S1_iP17stbi__result_info, symObjAddr: 0x5128, symBinAddr: 0x10002C1E4, symSize: 0x2F0 }
  - { offsetInCU: 0x361C, offset: 0x799B9, size: 0x8, addend: 0x0, symName: __ZL15stbi__jpeg_testP13stbi__context, symObjAddr: 0x5418, symBinAddr: 0x10002C4D4, symSize: 0x94 }
  - { offsetInCU: 0x3669, offset: 0x79A06, size: 0x8, addend: 0x0, symName: __ZL15stbi__jpeg_loadP13stbi__contextPiS1_S1_iP17stbi__result_info, symObjAddr: 0x54AC, symBinAddr: 0x10002C568, symSize: 0xC4 }
  - { offsetInCU: 0x3701, offset: 0x79A9E, size: 0x8, addend: 0x0, symName: __ZL14stbi__pnm_testP13stbi__context, symObjAddr: 0x5570, symBinAddr: 0x10002C62C, symSize: 0x90 }
  - { offsetInCU: 0x374E, offset: 0x79AEB, size: 0x8, addend: 0x0, symName: __ZL14stbi__pnm_loadP13stbi__contextPiS1_S1_iP17stbi__result_info, symObjAddr: 0x5600, symBinAddr: 0x10002C6BC, symSize: 0x2F8 }
  - { offsetInCU: 0x37D7, offset: 0x79B74, size: 0x8, addend: 0x0, symName: __ZL14stbi__hdr_loadP13stbi__contextPiS1_S1_iP17stbi__result_info, symObjAddr: 0x58F8, symBinAddr: 0x10002C9B4, symSize: 0xA18 }
  - { offsetInCU: 0x39CC, offset: 0x79D69, size: 0x8, addend: 0x0, symName: __ZL16stbi__hdr_to_ldrPfiii, symObjAddr: 0x6310, symBinAddr: 0x10002D3CC, symSize: 0x2D0 }
  - { offsetInCU: 0x3A9E, offset: 0x79E3B, size: 0x8, addend: 0x0, symName: __ZL14stbi__tga_testP13stbi__context, symObjAddr: 0x65E0, symBinAddr: 0x10002D69C, symSize: 0x2A0 }
  - { offsetInCU: 0x3B0B, offset: 0x79EA8, size: 0x8, addend: 0x0, symName: __ZL14stbi__tga_loadP13stbi__contextPiS1_S1_iP17stbi__result_info, symObjAddr: 0x6880, symBinAddr: 0x10002D93C, symSize: 0xC2C }
  - { offsetInCU: 0x3DFE, offset: 0x7A19B, size: 0x8, addend: 0x0, symName: __ZL12stbi__rewindP13stbi__context, symObjAddr: 0x7544, symBinAddr: 0x10002E600, symSize: 0x30 }
  - { offsetInCU: 0x3E29, offset: 0x7A1C6, size: 0x8, addend: 0x0, symName: __ZL10stbi__get8P13stbi__context, symObjAddr: 0x7574, symBinAddr: 0x10002E630, symSize: 0xA0 }
  - { offsetInCU: 0x3E58, offset: 0x7A1F5, size: 0x8, addend: 0x0, symName: __ZL19stbi__refill_bufferP13stbi__context, symObjAddr: 0x7614, symBinAddr: 0x10002E6D0, symSize: 0xE4 }
  - { offsetInCU: 0x3E92, offset: 0x7A22F, size: 0x8, addend: 0x0, symName: __ZL12stbi__do_pngP9stbi__pngPiS1_S1_iP17stbi__result_info, symObjAddr: 0x76F8, symBinAddr: 0x10002E7B4, symSize: 0x2D0 }
  - { offsetInCU: 0x3F1B, offset: 0x7A2B8, size: 0x8, addend: 0x0, symName: __ZL20stbi__convert_formatPhiijj, symObjAddr: 0x8818, symBinAddr: 0x10002F8D4, symSize: 0x7C8 }
  - { offsetInCU: 0x3FDF, offset: 0x7A37C, size: 0x8, addend: 0x0, symName: __ZL22stbi__convert_format16Ptiijj, symObjAddr: 0x9048, symBinAddr: 0x100030104, symSize: 0x7D4 }
  - { offsetInCU: 0x40A3, offset: 0x7A440, size: 0x8, addend: 0x0, symName: __ZL22stbi__get_chunk_headerP13stbi__context, symObjAddr: 0x9884, symBinAddr: 0x100030940, symSize: 0x38 }
  - { offsetInCU: 0x40E1, offset: 0x7A47E, size: 0x8, addend: 0x0, symName: __ZL10stbi__skipP13stbi__contexti, symObjAddr: 0x98BC, symBinAddr: 0x100030978, symSize: 0xF8 }
  - { offsetInCU: 0x4138, offset: 0x7A4D5, size: 0x8, addend: 0x0, symName: __ZL13stbi__get32beP13stbi__context, symObjAddr: 0x99B4, symBinAddr: 0x100030A70, symSize: 0x40 }
  - { offsetInCU: 0x4176, offset: 0x7A513, size: 0x8, addend: 0x0, symName: __ZL13stbi__get16beP13stbi__context, symObjAddr: 0x99F4, symBinAddr: 0x100030AB0, symSize: 0x48 }
  - { offsetInCU: 0x41B4, offset: 0x7A551, size: 0x8, addend: 0x0, symName: __ZL10stbi__getnP13stbi__contextPhi, symObjAddr: 0x9A3C, symBinAddr: 0x100030AF8, symSize: 0x158 }
  - { offsetInCU: 0x424A, offset: 0x7A5E7, size: 0x8, addend: 0x0, symName: __ZL22stbi__create_png_imageP9stbi__pngPhjiiii, symObjAddr: 0x9B94, symBinAddr: 0x100030C50, symSize: 0x464 }
  - { offsetInCU: 0x43E9, offset: 0x7A786, size: 0x8, addend: 0x0, symName: __ZL28stbi__compute_transparency16P9stbi__pngPti, symObjAddr: 0x9FF8, symBinAddr: 0x1000310B4, symSize: 0x1F4 }
  - { offsetInCU: 0x4472, offset: 0x7A80F, size: 0x8, addend: 0x0, symName: __ZL26stbi__compute_transparencyP9stbi__pngPhi, symObjAddr: 0xA1EC, symBinAddr: 0x1000312A8, symSize: 0x1F4 }
  - { offsetInCU: 0x44FB, offset: 0x7A898, size: 0x8, addend: 0x0, symName: __ZL15stbi__de_iphoneP9stbi__png, symObjAddr: 0xA3E0, symBinAddr: 0x10003149C, symSize: 0x2BC }
  - { offsetInCU: 0x45E5, offset: 0x7A982, size: 0x8, addend: 0x0, symName: __ZL24stbi__expand_png_paletteP9stbi__pngPhii, symObjAddr: 0xA69C, symBinAddr: 0x100031758, symSize: 0x240 }
  - { offsetInCU: 0x46C6, offset: 0x7AA63, size: 0x8, addend: 0x0, symName: __ZL26stbi__create_png_image_rawP9stbi__pngPhjijjii, symObjAddr: 0xA8DC, symBinAddr: 0x100031998, symSize: 0x1A8C }
  - { offsetInCU: 0x4904, offset: 0x7ACA1, size: 0x8, addend: 0x0, symName: __ZL17stbi__malloc_mad3iiii, symObjAddr: 0xC3BC, symBinAddr: 0x100033478, symSize: 0x88 }
  - { offsetInCU: 0x4960, offset: 0x7ACFD, size: 0x8, addend: 0x0, symName: __ZL21stbi__mad3sizes_validiiii, symObjAddr: 0xC444, symBinAddr: 0x100033500, symSize: 0xAC }
  - { offsetInCU: 0x49BC, offset: 0x7AD59, size: 0x8, addend: 0x0, symName: __ZL11stbi__paethiii, symObjAddr: 0xC4F0, symBinAddr: 0x1000335AC, symSize: 0xE8 }
  - { offsetInCU: 0x4A45, offset: 0x7ADE2, size: 0x8, addend: 0x0, symName: __ZL21stbi__mul2sizes_validii, symObjAddr: 0xC5D8, symBinAddr: 0x100033694, symSize: 0x8C }
  - { offsetInCU: 0x4A83, offset: 0x7AE20, size: 0x8, addend: 0x0, symName: __ZL20stbi__addsizes_validii, symObjAddr: 0xC664, symBinAddr: 0x100033720, symSize: 0x58 }
  - { offsetInCU: 0x4AC1, offset: 0x7AE5E, size: 0x8, addend: 0x0, symName: __ZL17stbi__malloc_mad2iii, symObjAddr: 0xC6BC, symBinAddr: 0x100033778, symSize: 0x78 }
  - { offsetInCU: 0x4B0E, offset: 0x7AEAB, size: 0x8, addend: 0x0, symName: __ZL21stbi__mad2sizes_validiii, symObjAddr: 0xC734, symBinAddr: 0x1000337F0, symSize: 0x74 }
  - { offsetInCU: 0x4B5B, offset: 0x7AEF8, size: 0x8, addend: 0x0, symName: __ZL15stbi__compute_yiii, symObjAddr: 0xC7A8, symBinAddr: 0x100033864, symSize: 0x4C }
  - { offsetInCU: 0x4BA8, offset: 0x7AF45, size: 0x8, addend: 0x0, symName: __ZL18stbi__compute_y_16iii, symObjAddr: 0xC7F4, symBinAddr: 0x1000338B0, symSize: 0x4C }
  - { offsetInCU: 0x4BF5, offset: 0x7AF92, size: 0x8, addend: 0x0, symName: __ZL18stbi__bmp_test_rawP13stbi__context, symObjAddr: 0xC840, symBinAddr: 0x1000338FC, symSize: 0x130 }
  - { offsetInCU: 0x4C42, offset: 0x7AFDF, size: 0x8, addend: 0x0, symName: __ZL13stbi__get32leP13stbi__context, symObjAddr: 0xC970, symBinAddr: 0x100033A2C, symSize: 0x40 }
  - { offsetInCU: 0x4C80, offset: 0x7B01D, size: 0x8, addend: 0x0, symName: __ZL13stbi__get16leP13stbi__context, symObjAddr: 0xC9B0, symBinAddr: 0x100033A6C, symSize: 0x48 }
  - { offsetInCU: 0x4CBE, offset: 0x7B05B, size: 0x8, addend: 0x0, symName: __ZL22stbi__bmp_parse_headerP13stbi__contextP14stbi__bmp_data, symObjAddr: 0xC9F8, symBinAddr: 0x100033AB4, symSize: 0x6B4 }
  - { offsetInCU: 0x4D45, offset: 0x7B0E2, size: 0x8, addend: 0x0, symName: __ZL14stbi__high_bitj, symObjAddr: 0xD0AC, symBinAddr: 0x100034168, symSize: 0x128 }
  - { offsetInCU: 0x4D83, offset: 0x7B120, size: 0x8, addend: 0x0, symName: __ZL14stbi__bitcountj, symObjAddr: 0xD1D4, symBinAddr: 0x100034290, symSize: 0x80 }
  - { offsetInCU: 0x4DB2, offset: 0x7B14F, size: 0x8, addend: 0x0, symName: __ZL27stbi__bmp_set_mask_defaultsP14stbi__bmp_datai, symObjAddr: 0xD398, symBinAddr: 0x100034454, symSize: 0x11C }
  - { offsetInCU: 0x4DF0, offset: 0x7B18D, size: 0x8, addend: 0x0, symName: __ZL18stbi__gif_test_rawP13stbi__context, symObjAddr: 0xD4B4, symBinAddr: 0x100034570, symSize: 0x108 }
  - { offsetInCU: 0x4E2E, offset: 0x7B1CB, size: 0x8, addend: 0x0, symName: __ZL19stbi__gif_load_nextP13stbi__contextP9stbi__gifPiiPh, symObjAddr: 0xD5BC, symBinAddr: 0x100034678, symSize: 0xA60 }
  - { offsetInCU: 0x4F7B, offset: 0x7B318, size: 0x8, addend: 0x0, symName: __ZL16stbi__gif_headerP13stbi__contextP9stbi__gifPii, symObjAddr: 0xE01C, symBinAddr: 0x1000350D8, symSize: 0x24C }
  - { offsetInCU: 0x4FE6, offset: 0x7B383, size: 0x8, addend: 0x0, symName: __ZL26stbi__gif_parse_colortableP13stbi__contextPA4_hii, symObjAddr: 0xE268, symBinAddr: 0x100035324, symSize: 0xD8 }
  - { offsetInCU: 0x504D, offset: 0x7B3EA, size: 0x8, addend: 0x0, symName: __ZL24stbi__process_gif_rasterP13stbi__contextP9stbi__gif, symObjAddr: 0xE340, symBinAddr: 0x1000353FC, symSize: 0x4E4 }
  - { offsetInCU: 0x515C, offset: 0x7B4F9, size: 0x8, addend: 0x0, symName: __ZL18stbi__out_gif_codeP9stbi__gift, symObjAddr: 0xE824, symBinAddr: 0x1000358E0, symSize: 0x2B0 }
  - { offsetInCU: 0x51C3, offset: 0x7B560, size: 0x8, addend: 0x0, symName: __ZL20stbi__psd_decode_rleP13stbi__contextPhi, symObjAddr: 0xEAD4, symBinAddr: 0x100035B90, symSize: 0x1CC }
  - { offsetInCU: 0x525A, offset: 0x7B5F7, size: 0x8, addend: 0x0, symName: __ZL19stbi__pic_test_coreP13stbi__context, symObjAddr: 0xECA0, symBinAddr: 0x100035D5C, symSize: 0xB4 }
  - { offsetInCU: 0x5298, offset: 0x7B635, size: 0x8, addend: 0x0, symName: __ZL13stbi__pic_is4P13stbi__contextPKc, symObjAddr: 0xED54, symBinAddr: 0x100035E10, symSize: 0x8C }
  - { offsetInCU: 0x52E5, offset: 0x7B682, size: 0x8, addend: 0x0, symName: __ZL12stbi__at_eofP13stbi__context, symObjAddr: 0xEDE0, symBinAddr: 0x100035E9C, symSize: 0xB0 }
  - { offsetInCU: 0x5314, offset: 0x7B6B1, size: 0x8, addend: 0x0, symName: __ZL19stbi__pic_load_coreP13stbi__contextiiPiPh, symObjAddr: 0xEE90, symBinAddr: 0x100035F4C, symSize: 0x708 }
  - { offsetInCU: 0x550C, offset: 0x7B8A9, size: 0x8, addend: 0x0, symName: __ZL13stbi__readvalP13stbi__contextiPh, symObjAddr: 0xF598, symBinAddr: 0x100036654, symSize: 0xEC }
  - { offsetInCU: 0x5577, offset: 0x7B914, size: 0x8, addend: 0x0, symName: __ZL13stbi__copyvaliPhPKh, symObjAddr: 0xF684, symBinAddr: 0x100036740, symSize: 0x98 }
  - { offsetInCU: 0x55DE, offset: 0x7B97B, size: 0x8, addend: 0x0, symName: __ZL16stbi__setup_jpegP10stbi__jpeg, symObjAddr: 0xF71C, symBinAddr: 0x1000367D8, symSize: 0x40 }
  - { offsetInCU: 0x5609, offset: 0x7B9A6, size: 0x8, addend: 0x0, symName: __ZL24stbi__decode_jpeg_headerP10stbi__jpegi, symObjAddr: 0xF75C, symBinAddr: 0x100036818, symSize: 0x1FC }
  - { offsetInCU: 0x5656, offset: 0x7B9F3, size: 0x8, addend: 0x0, symName: __ZL16stbi__idct_blockPhiPs, symObjAddr: 0xF958, symBinAddr: 0x100036A14, symSize: 0x8DC }
  - { offsetInCU: 0x58C1, offset: 0x7BC5E, size: 0x8, addend: 0x0, symName: __ZL22stbi__YCbCr_to_RGB_rowPhPKhS1_S1_ii, symObjAddr: 0x10234, symBinAddr: 0x1000372F0, symSize: 0x228 }
  - { offsetInCU: 0x59B0, offset: 0x7BD4D, size: 0x8, addend: 0x0, symName: __ZL23stbi__resample_row_hv_2PhS_S_ii, symObjAddr: 0x1045C, symBinAddr: 0x100037518, symSize: 0x194 }
  - { offsetInCU: 0x5A48, offset: 0x7BDE5, size: 0x8, addend: 0x0, symName: __ZL11stbi__clampi, symObjAddr: 0x105F0, symBinAddr: 0x1000376AC, symSize: 0x74 }
  - { offsetInCU: 0x5A77, offset: 0x7BE14, size: 0x8, addend: 0x0, symName: __ZL16stbi__get_markerP10stbi__jpeg, symObjAddr: 0x10664, symBinAddr: 0x100037720, symSize: 0xD4 }
  - { offsetInCU: 0x5AB5, offset: 0x7BE52, size: 0x8, addend: 0x0, symName: __ZL19stbi__build_huffmanP13stbi__huffmanPi, symObjAddr: 0x11B98, symBinAddr: 0x100038C54, symSize: 0x31C }
  - { offsetInCU: 0x5B78, offset: 0x7BF15, size: 0x8, addend: 0x0, symName: __ZL19stbi__build_fast_acPsP13stbi__huffman, symObjAddr: 0x11EB4, symBinAddr: 0x100038F70, symSize: 0x1C0 }
  - { offsetInCU: 0x5C54, offset: 0x7BFF1, size: 0x8, addend: 0x0, symName: __ZL26stbi__free_jpeg_componentsP10stbi__jpegii, symObjAddr: 0x12074, symBinAddr: 0x100039130, symSize: 0x20C }
  - { offsetInCU: 0x5CB0, offset: 0x7C04D, size: 0x8, addend: 0x0, symName: __ZL15load_jpeg_imageP10stbi__jpegPiS1_S1_i, symObjAddr: 0x12280, symBinAddr: 0x10003933C, symSize: 0x10C8 }
  - { offsetInCU: 0x5EED, offset: 0x7C28A, size: 0x8, addend: 0x0, symName: __ZL23stbi__decode_jpeg_imageP10stbi__jpeg, symObjAddr: 0x13348, symBinAddr: 0x10003A404, symSize: 0x2C8 }
  - { offsetInCU: 0x5F74, offset: 0x7C311, size: 0x8, addend: 0x0, symName: __ZL18stbi__cleanup_jpegP10stbi__jpeg, symObjAddr: 0x13610, symBinAddr: 0x10003A6CC, symSize: 0x34 }
  - { offsetInCU: 0x5F9F, offset: 0x7C33C, size: 0x8, addend: 0x0, symName: __ZL14resample_row_1PhS_S_ii, symObjAddr: 0x13644, symBinAddr: 0x10003A700, symSize: 0x24 }
  - { offsetInCU: 0x600A, offset: 0x7C3A7, size: 0x8, addend: 0x0, symName: __ZL22stbi__resample_row_v_2PhS_S_ii, symObjAddr: 0x13668, symBinAddr: 0x10003A724, symSize: 0x90 }
  - { offsetInCU: 0x6084, offset: 0x7C421, size: 0x8, addend: 0x0, symName: __ZL22stbi__resample_row_h_2PhS_S_ii, symObjAddr: 0x136F8, symBinAddr: 0x10003A7B4, symSize: 0x1D8 }
  - { offsetInCU: 0x612A, offset: 0x7C4C7, size: 0x8, addend: 0x0, symName: __ZL26stbi__resample_row_genericPhS_S_ii, symObjAddr: 0x138D0, symBinAddr: 0x10003A98C, symSize: 0xBC }
  - { offsetInCU: 0x61B3, offset: 0x7C550, size: 0x8, addend: 0x0, symName: __ZL15stbi__blinn_8x8hh, symObjAddr: 0x1398C, symBinAddr: 0x10003AA48, symSize: 0x3C }
  - { offsetInCU: 0x6200, offset: 0x7C59D, size: 0x8, addend: 0x0, symName: __ZL25stbi__process_scan_headerP10stbi__jpeg, symObjAddr: 0x139C8, symBinAddr: 0x10003AA84, symSize: 0x4B4 }
  - { offsetInCU: 0x62A5, offset: 0x7C642, size: 0x8, addend: 0x0, symName: __ZL30stbi__parse_entropy_coded_dataP10stbi__jpeg, symObjAddr: 0x13E7C, symBinAddr: 0x10003AF38, symSize: 0xD14 }
  - { offsetInCU: 0x6575, offset: 0x7C912, size: 0x8, addend: 0x0, symName: __ZL17stbi__jpeg_finishP10stbi__jpeg, symObjAddr: 0x14B90, symBinAddr: 0x10003BC4C, symSize: 0x23C }
  - { offsetInCU: 0x6624, offset: 0x7C9C1, size: 0x8, addend: 0x0, symName: __ZL16stbi__jpeg_resetP10stbi__jpeg, symObjAddr: 0x14DCC, symBinAddr: 0x10003BE88, symSize: 0xD8 }
  - { offsetInCU: 0x664F, offset: 0x7C9EC, size: 0x8, addend: 0x0, symName: __ZL23stbi__jpeg_decode_blockP10stbi__jpegPsP13stbi__huffmanS3_S1_iPt, symObjAddr: 0x14EA4, symBinAddr: 0x10003BF60, symSize: 0x37C }
  - { offsetInCU: 0x676D, offset: 0x7CB0A, size: 0x8, addend: 0x0, symName: __ZL24stbi__grow_buffer_unsafeP10stbi__jpeg, symObjAddr: 0x15220, symBinAddr: 0x10003C2DC, symSize: 0x164 }
  - { offsetInCU: 0x67CB, offset: 0x7CB68, size: 0x8, addend: 0x0, symName: __ZL31stbi__jpeg_decode_block_prog_dcP10stbi__jpegPsP13stbi__huffmani, symObjAddr: 0x15384, symBinAddr: 0x10003C440, symSize: 0x1F8 }
  - { offsetInCU: 0x6854, offset: 0x7CBF1, size: 0x8, addend: 0x0, symName: __ZL31stbi__jpeg_decode_block_prog_acP10stbi__jpegPsP13stbi__huffmanS1_, symObjAddr: 0x1557C, symBinAddr: 0x10003C638, symSize: 0x778 }
  - { offsetInCU: 0x69B9, offset: 0x7CD56, size: 0x8, addend: 0x0, symName: __ZL22stbi__jpeg_huff_decodeP10stbi__jpegP13stbi__huffman, symObjAddr: 0x15CF4, symBinAddr: 0x10003CDB0, symSize: 0x2EC }
  - { offsetInCU: 0x6A41, offset: 0x7CDDE, size: 0x8, addend: 0x0, symName: __ZL20stbi__extend_receiveP10stbi__jpegi, symObjAddr: 0x15FE0, symBinAddr: 0x10003D09C, symSize: 0x108 }
  - { offsetInCU: 0x6A9D, offset: 0x7CE3A, size: 0x8, addend: 0x0, symName: __ZL18stbi__jpeg_get_bitP10stbi__jpeg, symObjAddr: 0x160E8, symBinAddr: 0x10003D1A4, symSize: 0x88 }
  - { offsetInCU: 0x6ADB, offset: 0x7CE78, size: 0x8, addend: 0x0, symName: __ZL19stbi__jpeg_get_bitsP10stbi__jpegi, symObjAddr: 0x16170, symBinAddr: 0x10003D22C, symSize: 0xD8 }
  - { offsetInCU: 0x6B28, offset: 0x7CEC5, size: 0x8, addend: 0x0, symName: __ZL21stbi__jpeg_dequantizePsPt, symObjAddr: 0x16248, symBinAddr: 0x10003D304, symSize: 0x68 }
  - { offsetInCU: 0x6B71, offset: 0x7CF0E, size: 0x8, addend: 0x0, symName: __ZL14stbi__pnm_infoP13stbi__contextPiS1_S1_, symObjAddr: 0x162B0, symBinAddr: 0x10003D36C, symSize: 0x1DC }
  - { offsetInCU: 0x6C18, offset: 0x7CFB5, size: 0x8, addend: 0x0, symName: __ZL21stbi__mad4sizes_validiiiii, symObjAddr: 0x1648C, symBinAddr: 0x10003D548, symSize: 0xEC }
  - { offsetInCU: 0x6C83, offset: 0x7D020, size: 0x8, addend: 0x0, symName: __ZL17stbi__malloc_mad4iiiii, symObjAddr: 0x16578, symBinAddr: 0x10003D634, symSize: 0x98 }
  - { offsetInCU: 0x6CEE, offset: 0x7D08B, size: 0x8, addend: 0x0, symName: __ZL25stbi__pnm_skip_whitespaceP13stbi__contextPc, symObjAddr: 0x16610, symBinAddr: 0x10003D6CC, symSize: 0x138 }
  - { offsetInCU: 0x6D28, offset: 0x7D0C5, size: 0x8, addend: 0x0, symName: __ZL20stbi__pnm_getintegerP13stbi__contextPc, symObjAddr: 0x16748, symBinAddr: 0x10003D804, symSize: 0xA8 }
  - { offsetInCU: 0x6D75, offset: 0x7D112, size: 0x8, addend: 0x0, symName: __ZL17stbi__pnm_isspacec, symObjAddr: 0x167F0, symBinAddr: 0x10003D8AC, symSize: 0xB8 }
  - { offsetInCU: 0x6DA4, offset: 0x7D141, size: 0x8, addend: 0x0, symName: __ZL17stbi__pnm_isdigitc, symObjAddr: 0x168A8, symBinAddr: 0x10003D964, symSize: 0x48 }
  - { offsetInCU: 0x6DD3, offset: 0x7D170, size: 0x8, addend: 0x0, symName: __ZL18stbi__hdr_gettokenP13stbi__contextPc, symObjAddr: 0x168F0, symBinAddr: 0x10003D9AC, symSize: 0x124 }
  - { offsetInCU: 0x6E2F, offset: 0x7D1CC, size: 0x8, addend: 0x0, symName: __ZL17stbi__hdr_convertPfPhi, symObjAddr: 0x16A14, symBinAddr: 0x10003DAD0, symSize: 0x1D4 }
  - { offsetInCU: 0x6E95, offset: 0x7D232, size: 0x8, addend: 0x0, symName: __Z5ldexpB7v160006fi, symObjAddr: 0x16BF8, symBinAddr: 0x10003DCB4, symSize: 0x2C }
  - { offsetInCU: 0x6ED2, offset: 0x7D26F, size: 0x8, addend: 0x0, symName: __Z3powB7v160006ff, symObjAddr: 0x16C24, symBinAddr: 0x10003DCE0, symSize: 0x2C }
  - { offsetInCU: 0x6F0F, offset: 0x7D2AC, size: 0x8, addend: 0x0, symName: __ZL18stbi__tga_get_compiiPi, symObjAddr: 0x16C50, symBinAddr: 0x10003DD0C, symSize: 0xEC }
  - { offsetInCU: 0x6F5C, offset: 0x7D2F9, size: 0x8, addend: 0x0, symName: __ZL20stbi__tga_read_rgb16P13stbi__contextPh, symObjAddr: 0x16DA0, symBinAddr: 0x10003DE5C, symSize: 0xA8 }
  - { offsetInCU: 0x6FE1, offset: 0x7D37E, size: 0x8, addend: 0x0, symName: __ZL21stbi__convert_8_to_16Phiii, symObjAddr: 0x16E48, symBinAddr: 0x10003DF04, symSize: 0x10C }
  - { offsetInCU: 0x706A, offset: 0x7D407, size: 0x8, addend: 0x0, symName: __ZL23stbi__float_postprocessPfPiS0_S0_i, symObjAddr: 0x16F54, symBinAddr: 0x10003E010, symSize: 0xE0 }
  - { offsetInCU: 0x70EE, offset: 0x7D48B, size: 0x8, addend: 0x0, symName: __ZL16stbi__ldr_to_hdrPhiii, symObjAddr: 0x17034, symBinAddr: 0x10003E0F0, symSize: 0x260 }
  - { offsetInCU: 0x7186, offset: 0x7D523, size: 0x8, addend: 0x0, symName: __ZL16stbi__parse_zlibP10stbi__zbufi, symObjAddr: 0x17294, symBinAddr: 0x10003E350, symSize: 0x1CC }
  - { offsetInCU: 0x71E2, offset: 0x7D57F, size: 0x8, addend: 0x0, symName: __ZL23stbi__parse_zlib_headerP10stbi__zbuf, symObjAddr: 0x17460, symBinAddr: 0x10003E51C, symSize: 0x114 }
  - { offsetInCU: 0x723E, offset: 0x7D5DB, size: 0x8, addend: 0x0, symName: __ZL14stbi__zreceiveP10stbi__zbufi, symObjAddr: 0x17574, symBinAddr: 0x10003E630, symSize: 0x94 }
  - { offsetInCU: 0x728B, offset: 0x7D628, size: 0x8, addend: 0x0, symName: __ZL30stbi__parse_uncompressed_blockP10stbi__zbuf, symObjAddr: 0x17608, symBinAddr: 0x10003E6C4, symSize: 0x24C }
  - { offsetInCU: 0x72F6, offset: 0x7D693, size: 0x8, addend: 0x0, symName: __ZL20stbi__zbuild_huffmanP14stbi__zhuffmanPKhi, symObjAddr: 0x17854, symBinAddr: 0x10003E910, symSize: 0x3E8 }
  - { offsetInCU: 0x73F6, offset: 0x7D793, size: 0x8, addend: 0x0, symName: __ZL25stbi__parse_huffman_blockP10stbi__zbuf, symObjAddr: 0x1800C, symBinAddr: 0x10003F0C8, symSize: 0x398 }
  - { offsetInCU: 0x74A9, offset: 0x7D846, size: 0x8, addend: 0x0, symName: __ZL11stbi__zget8P10stbi__zbuf, symObjAddr: 0x183A4, symBinAddr: 0x10003F460, symSize: 0x64 }
  - { offsetInCU: 0x74D8, offset: 0x7D875, size: 0x8, addend: 0x0, symName: __ZL10stbi__zeofP10stbi__zbuf, symObjAddr: 0x18408, symBinAddr: 0x10003F4C4, symSize: 0x2C }
  - { offsetInCU: 0x7507, offset: 0x7D8A4, size: 0x8, addend: 0x0, symName: __ZL15stbi__fill_bitsP10stbi__zbuf, symObjAddr: 0x18434, symBinAddr: 0x10003F4F0, symSize: 0xB0 }
  - { offsetInCU: 0x7532, offset: 0x7D8CF, size: 0x8, addend: 0x0, symName: __ZL13stbi__zexpandP10stbi__zbufPci, symObjAddr: 0x184E4, symBinAddr: 0x10003F5A0, symSize: 0x1AC }
  - { offsetInCU: 0x75BB, offset: 0x7D958, size: 0x8, addend: 0x0, symName: __ZL17stbi__bit_reverseii, symObjAddr: 0x18690, symBinAddr: 0x10003F74C, symSize: 0x70 }
  - { offsetInCU: 0x75F9, offset: 0x7D996, size: 0x8, addend: 0x0, symName: __ZL18stbi__bitreverse16i, symObjAddr: 0x18700, symBinAddr: 0x10003F7BC, symSize: 0x98 }
  - { offsetInCU: 0x7628, offset: 0x7D9C5, size: 0x8, addend: 0x0, symName: __ZL21stbi__zhuffman_decodeP10stbi__zbufP14stbi__zhuffman, symObjAddr: 0x18798, symBinAddr: 0x10003F854, symSize: 0xF0 }
  - { offsetInCU: 0x7684, offset: 0x7DA21, size: 0x8, addend: 0x0, symName: __ZL30stbi__zhuffman_decode_slowpathP10stbi__zbufP14stbi__zhuffman, symObjAddr: 0x18888, symBinAddr: 0x10003F944, symSize: 0x170 }
  - { offsetInCU: 0x76EF, offset: 0x7DA8C, size: 0x8, addend: 0x0, symName: __ZL28stbi__load_gif_main_outofmemP9stbi__gifPhPPi, symObjAddr: 0x189F8, symBinAddr: 0x10003FAB4, symSize: 0xC8 }
  - { offsetInCU: 0x773C, offset: 0x7DAD9, size: 0x8, addend: 0x0, symName: __ZL19stbi__hdr_test_coreP13stbi__contextPKc, symObjAddr: 0x18AC0, symBinAddr: 0x10003FB7C, symSize: 0xA0 }
  - { offsetInCU: 0x7789, offset: 0x7DB26, size: 0x8, addend: 0x0, symName: __ZL15stbi__jpeg_infoP13stbi__contextPiS1_S1_, symObjAddr: 0x18B60, symBinAddr: 0x10003FC1C, symSize: 0x98 }
  - { offsetInCU: 0x7803, offset: 0x7DBA0, size: 0x8, addend: 0x0, symName: __ZL14stbi__png_infoP13stbi__contextPiS1_S1_, symObjAddr: 0x18BF8, symBinAddr: 0x10003FCB4, symSize: 0x44 }
  - { offsetInCU: 0x786E, offset: 0x7DC0B, size: 0x8, addend: 0x0, symName: __ZL14stbi__gif_infoP13stbi__contextPiS1_S1_, symObjAddr: 0x18C3C, symBinAddr: 0x10003FCF8, symSize: 0x3C }
  - { offsetInCU: 0x78CA, offset: 0x7DC67, size: 0x8, addend: 0x0, symName: __ZL14stbi__bmp_infoP13stbi__contextPiS1_S1_, symObjAddr: 0x18C78, symBinAddr: 0x10003FD34, symSize: 0x144 }
  - { offsetInCU: 0x7944, offset: 0x7DCE1, size: 0x8, addend: 0x0, symName: __ZL14stbi__psd_infoP13stbi__contextPiS1_S1_, symObjAddr: 0x18DBC, symBinAddr: 0x10003FE78, symSize: 0x1D8 }
  - { offsetInCU: 0x79CD, offset: 0x7DD6A, size: 0x8, addend: 0x0, symName: __ZL14stbi__pic_infoP13stbi__contextPiS1_S1_, symObjAddr: 0x18F94, symBinAddr: 0x100040050, symSize: 0x2E4 }
  - { offsetInCU: 0x7A8A, offset: 0x7DE27, size: 0x8, addend: 0x0, symName: __ZL14stbi__hdr_infoP13stbi__contextPiS1_S1_, symObjAddr: 0x19278, symBinAddr: 0x100040334, symSize: 0x28C }
  - { offsetInCU: 0x7B23, offset: 0x7DEC0, size: 0x8, addend: 0x0, symName: __ZL14stbi__tga_infoP13stbi__contextPiS1_S1_, symObjAddr: 0x19504, symBinAddr: 0x1000405C0, symSize: 0x3AC }
  - { offsetInCU: 0x7BF7, offset: 0x7DF94, size: 0x8, addend: 0x0, symName: __ZL19stbi__jpeg_info_rawP10stbi__jpegPiS1_S1_, symObjAddr: 0x198B0, symBinAddr: 0x10004096C, symSize: 0x104 }
  - { offsetInCU: 0x7C53, offset: 0x7DFF0, size: 0x8, addend: 0x0, symName: __ZL18stbi__png_info_rawP9stbi__pngPiS1_S1_, symObjAddr: 0x199B4, symBinAddr: 0x100040A70, symSize: 0xF0 }
  - { offsetInCU: 0x7CAF, offset: 0x7E04C, size: 0x8, addend: 0x0, symName: __ZL18stbi__gif_info_rawP13stbi__contextPiS1_S1_, symObjAddr: 0x19AA4, symBinAddr: 0x100040B60, symSize: 0x100 }
  - { offsetInCU: 0x7D1A, offset: 0x7E0B7, size: 0x8, addend: 0x0, symName: __ZL14stbi__png_is16P13stbi__context, symObjAddr: 0x19BA4, symBinAddr: 0x100040C60, symSize: 0x84 }
  - { offsetInCU: 0x7D58, offset: 0x7E0F5, size: 0x8, addend: 0x0, symName: __ZL14stbi__psd_is16P13stbi__context, symObjAddr: 0x19C28, symBinAddr: 0x100040CE4, symSize: 0x104 }
  - { offsetInCU: 0x7DA5, offset: 0x7E142, size: 0x8, addend: 0x0, symName: __ZL14stbi__pnm_is16P13stbi__context, symObjAddr: 0x19D2C, symBinAddr: 0x100040DE8, symSize: 0x58 }
  - { offsetInCU: 0x26, offset: 0x7E5EB, size: 0x8, addend: 0x0, symName: _gladLoadGL, symObjAddr: 0x0, symBinAddr: 0x100040E40, symSize: 0x4C }
  - { offsetInCU: 0x3F, offset: 0x7E604, size: 0x8, addend: 0x0, symName: _GLVersion, symObjAddr: 0x187E8, symBinAddr: 0x1000501C8, symSize: 0x0 }
  - { offsetInCU: 0x7F, offset: 0x7E644, size: 0x8, addend: 0x0, symName: _GLAD_GL_VERSION_1_0, symObjAddr: 0x187F0, symBinAddr: 0x1000501D0, symSize: 0x0 }
  - { offsetInCU: 0x96, offset: 0x7E65B, size: 0x8, addend: 0x0, symName: _GLAD_GL_VERSION_1_1, symObjAddr: 0x187F4, symBinAddr: 0x1000501D4, symSize: 0x0 }
  - { offsetInCU: 0xAD, offset: 0x7E672, size: 0x8, addend: 0x0, symName: _GLAD_GL_VERSION_1_2, symObjAddr: 0x187F8, symBinAddr: 0x1000501D8, symSize: 0x0 }
  - { offsetInCU: 0xC4, offset: 0x7E689, size: 0x8, addend: 0x0, symName: _GLAD_GL_VERSION_1_3, symObjAddr: 0x187FC, symBinAddr: 0x1000501DC, symSize: 0x0 }
  - { offsetInCU: 0xDB, offset: 0x7E6A0, size: 0x8, addend: 0x0, symName: _GLAD_GL_VERSION_1_4, symObjAddr: 0x18800, symBinAddr: 0x1000501E0, symSize: 0x0 }
  - { offsetInCU: 0xF2, offset: 0x7E6B7, size: 0x8, addend: 0x0, symName: _GLAD_GL_VERSION_1_5, symObjAddr: 0x18804, symBinAddr: 0x1000501E4, symSize: 0x0 }
  - { offsetInCU: 0x109, offset: 0x7E6CE, size: 0x8, addend: 0x0, symName: _GLAD_GL_VERSION_2_0, symObjAddr: 0x18808, symBinAddr: 0x1000501E8, symSize: 0x0 }
  - { offsetInCU: 0x120, offset: 0x7E6E5, size: 0x8, addend: 0x0, symName: _GLAD_GL_VERSION_2_1, symObjAddr: 0x1880C, symBinAddr: 0x1000501EC, symSize: 0x0 }
  - { offsetInCU: 0x137, offset: 0x7E6FC, size: 0x8, addend: 0x0, symName: _GLAD_GL_VERSION_3_0, symObjAddr: 0x18810, symBinAddr: 0x1000501F0, symSize: 0x0 }
  - { offsetInCU: 0x14E, offset: 0x7E713, size: 0x8, addend: 0x0, symName: _GLAD_GL_VERSION_3_1, symObjAddr: 0x18814, symBinAddr: 0x1000501F4, symSize: 0x0 }
  - { offsetInCU: 0x165, offset: 0x7E72A, size: 0x8, addend: 0x0, symName: _GLAD_GL_VERSION_3_2, symObjAddr: 0x18818, symBinAddr: 0x1000501F8, symSize: 0x0 }
  - { offsetInCU: 0x17C, offset: 0x7E741, size: 0x8, addend: 0x0, symName: _GLAD_GL_VERSION_3_3, symObjAddr: 0x1881C, symBinAddr: 0x1000501FC, symSize: 0x0 }
  - { offsetInCU: 0x193, offset: 0x7E758, size: 0x8, addend: 0x0, symName: _glad_glActiveTexture, symObjAddr: 0x18820, symBinAddr: 0x100050200, symSize: 0x0 }
  - { offsetInCU: 0x1CA, offset: 0x7E78F, size: 0x8, addend: 0x0, symName: _glad_glAttachShader, symObjAddr: 0x18828, symBinAddr: 0x100050208, symSize: 0x0 }
  - { offsetInCU: 0x20A, offset: 0x7E7CF, size: 0x8, addend: 0x0, symName: _glad_glBeginConditionalRender, symObjAddr: 0x18830, symBinAddr: 0x100050210, symSize: 0x0 }
  - { offsetInCU: 0x23F, offset: 0x7E804, size: 0x8, addend: 0x0, symName: _glad_glBeginQuery, symObjAddr: 0x18838, symBinAddr: 0x100050218, symSize: 0x0 }
  - { offsetInCU: 0x274, offset: 0x7E839, size: 0x8, addend: 0x0, symName: _glad_glBeginTransformFeedback, symObjAddr: 0x18840, symBinAddr: 0x100050220, symSize: 0x0 }
  - { offsetInCU: 0x297, offset: 0x7E85C, size: 0x8, addend: 0x0, symName: _glad_glBindAttribLocation, symObjAddr: 0x18848, symBinAddr: 0x100050228, symSize: 0x0 }
  - { offsetInCU: 0x2ED, offset: 0x7E8B2, size: 0x8, addend: 0x0, symName: _glad_glBindBuffer, symObjAddr: 0x18850, symBinAddr: 0x100050230, symSize: 0x0 }
  - { offsetInCU: 0x310, offset: 0x7E8D5, size: 0x8, addend: 0x0, symName: _glad_glBindBufferBase, symObjAddr: 0x18858, symBinAddr: 0x100050238, symSize: 0x0 }
  - { offsetInCU: 0x34A, offset: 0x7E90F, size: 0x8, addend: 0x0, symName: _glad_glBindBufferRange, symObjAddr: 0x18860, symBinAddr: 0x100050240, symSize: 0x0 }
  - { offsetInCU: 0x3C3, offset: 0x7E988, size: 0x8, addend: 0x0, symName: _glad_glBindFragDataLocation, symObjAddr: 0x18868, symBinAddr: 0x100050248, symSize: 0x0 }
  - { offsetInCU: 0x3E6, offset: 0x7E9AB, size: 0x8, addend: 0x0, symName: _glad_glBindFragDataLocationIndexed, symObjAddr: 0x18870, symBinAddr: 0x100050250, symSize: 0x0 }
  - { offsetInCU: 0x425, offset: 0x7E9EA, size: 0x8, addend: 0x0, symName: _glad_glBindFramebuffer, symObjAddr: 0x18878, symBinAddr: 0x100050258, symSize: 0x0 }
  - { offsetInCU: 0x448, offset: 0x7EA0D, size: 0x8, addend: 0x0, symName: _glad_glBindRenderbuffer, symObjAddr: 0x18880, symBinAddr: 0x100050260, symSize: 0x0 }
  - { offsetInCU: 0x46B, offset: 0x7EA30, size: 0x8, addend: 0x0, symName: _glad_glBindSampler, symObjAddr: 0x18888, symBinAddr: 0x100050268, symSize: 0x0 }
  - { offsetInCU: 0x48E, offset: 0x7EA53, size: 0x8, addend: 0x0, symName: _glad_glBindTexture, symObjAddr: 0x18890, symBinAddr: 0x100050270, symSize: 0x0 }
  - { offsetInCU: 0x4B1, offset: 0x7EA76, size: 0x8, addend: 0x0, symName: _glad_glBindVertexArray, symObjAddr: 0x18898, symBinAddr: 0x100050278, symSize: 0x0 }
  - { offsetInCU: 0x4E1, offset: 0x7EAA6, size: 0x8, addend: 0x0, symName: _glad_glBlendColor, symObjAddr: 0x188A0, symBinAddr: 0x100050280, symSize: 0x0 }
  - { offsetInCU: 0x53E, offset: 0x7EB03, size: 0x8, addend: 0x0, symName: _glad_glBlendEquation, symObjAddr: 0x188A8, symBinAddr: 0x100050288, symSize: 0x0 }
  - { offsetInCU: 0x561, offset: 0x7EB26, size: 0x8, addend: 0x0, symName: _glad_glBlendEquationSeparate, symObjAddr: 0x188B0, symBinAddr: 0x100050290, symSize: 0x0 }
  - { offsetInCU: 0x596, offset: 0x7EB5B, size: 0x8, addend: 0x0, symName: _glad_glBlendFunc, symObjAddr: 0x188B8, symBinAddr: 0x100050298, symSize: 0x0 }
  - { offsetInCU: 0x5B9, offset: 0x7EB7E, size: 0x8, addend: 0x0, symName: _glad_glBlendFuncSeparate, symObjAddr: 0x188C0, symBinAddr: 0x1000502A0, symSize: 0x0 }
  - { offsetInCU: 0x5F8, offset: 0x7EBBD, size: 0x8, addend: 0x0, symName: _glad_glBlitFramebuffer, symObjAddr: 0x188C8, symBinAddr: 0x1000502A8, symSize: 0x0 }
  - { offsetInCU: 0x66B, offset: 0x7EC30, size: 0x8, addend: 0x0, symName: _glad_glBufferData, symObjAddr: 0x188D0, symBinAddr: 0x1000502B0, symSize: 0x0 }
  - { offsetInCU: 0x6B0, offset: 0x7EC75, size: 0x8, addend: 0x0, symName: _glad_glBufferSubData, symObjAddr: 0x188D8, symBinAddr: 0x1000502B8, symSize: 0x0 }
  - { offsetInCU: 0x6EF, offset: 0x7ECB4, size: 0x8, addend: 0x0, symName: _glad_glCheckFramebufferStatus, symObjAddr: 0x188E0, symBinAddr: 0x1000502C0, symSize: 0x0 }
  - { offsetInCU: 0x722, offset: 0x7ECE7, size: 0x8, addend: 0x0, symName: _glad_glClampColor, symObjAddr: 0x188E8, symBinAddr: 0x1000502C8, symSize: 0x0 }
  - { offsetInCU: 0x745, offset: 0x7ED0A, size: 0x8, addend: 0x0, symName: _glad_glClear, symObjAddr: 0x188F0, symBinAddr: 0x1000502D0, symSize: 0x0 }
  - { offsetInCU: 0x775, offset: 0x7ED3A, size: 0x8, addend: 0x0, symName: _glad_glClearBufferfi, symObjAddr: 0x188F8, symBinAddr: 0x1000502D8, symSize: 0x0 }
  - { offsetInCU: 0x7B4, offset: 0x7ED79, size: 0x8, addend: 0x0, symName: _glad_glClearBufferfv, symObjAddr: 0x18900, symBinAddr: 0x1000502E0, symSize: 0x0 }
  - { offsetInCU: 0x7F8, offset: 0x7EDBD, size: 0x8, addend: 0x0, symName: _glad_glClearBufferiv, symObjAddr: 0x18908, symBinAddr: 0x1000502E8, symSize: 0x0 }
  - { offsetInCU: 0x83C, offset: 0x7EE01, size: 0x8, addend: 0x0, symName: _glad_glClearBufferuiv, symObjAddr: 0x18910, symBinAddr: 0x1000502F0, symSize: 0x0 }
  - { offsetInCU: 0x880, offset: 0x7EE45, size: 0x8, addend: 0x0, symName: _glad_glClearColor, symObjAddr: 0x18918, symBinAddr: 0x1000502F8, symSize: 0x0 }
  - { offsetInCU: 0x8A3, offset: 0x7EE68, size: 0x8, addend: 0x0, symName: _glad_glClearDepth, symObjAddr: 0x18920, symBinAddr: 0x100050300, symSize: 0x0 }
  - { offsetInCU: 0x8E5, offset: 0x7EEAA, size: 0x8, addend: 0x0, symName: _glad_glClearStencil, symObjAddr: 0x18928, symBinAddr: 0x100050308, symSize: 0x0 }
  - { offsetInCU: 0x915, offset: 0x7EEDA, size: 0x8, addend: 0x0, symName: _glad_glClientWaitSync, symObjAddr: 0x18930, symBinAddr: 0x100050310, symSize: 0x0 }
  - { offsetInCU: 0x984, offset: 0x7EF49, size: 0x8, addend: 0x0, symName: _glad_glColorMask, symObjAddr: 0x18938, symBinAddr: 0x100050318, symSize: 0x0 }
  - { offsetInCU: 0x9CA, offset: 0x7EF8F, size: 0x8, addend: 0x0, symName: _glad_glColorMaski, symObjAddr: 0x18940, symBinAddr: 0x100050320, symSize: 0x0 }
  - { offsetInCU: 0xA0E, offset: 0x7EFD3, size: 0x8, addend: 0x0, symName: _glad_glColorP3ui, symObjAddr: 0x18948, symBinAddr: 0x100050328, symSize: 0x0 }
  - { offsetInCU: 0xA31, offset: 0x7EFF6, size: 0x8, addend: 0x0, symName: _glad_glColorP3uiv, symObjAddr: 0x18950, symBinAddr: 0x100050330, symSize: 0x0 }
  - { offsetInCU: 0xA66, offset: 0x7F02B, size: 0x8, addend: 0x0, symName: _glad_glColorP4ui, symObjAddr: 0x18958, symBinAddr: 0x100050338, symSize: 0x0 }
  - { offsetInCU: 0xA89, offset: 0x7F04E, size: 0x8, addend: 0x0, symName: _glad_glColorP4uiv, symObjAddr: 0x18960, symBinAddr: 0x100050340, symSize: 0x0 }
  - { offsetInCU: 0xAAC, offset: 0x7F071, size: 0x8, addend: 0x0, symName: _glad_glCompileShader, symObjAddr: 0x18968, symBinAddr: 0x100050348, symSize: 0x0 }
  - { offsetInCU: 0xACF, offset: 0x7F094, size: 0x8, addend: 0x0, symName: _glad_glCompressedTexImage1D, symObjAddr: 0x18970, symBinAddr: 0x100050350, symSize: 0x0 }
  - { offsetInCU: 0xB28, offset: 0x7F0ED, size: 0x8, addend: 0x0, symName: _glad_glCompressedTexImage2D, symObjAddr: 0x18978, symBinAddr: 0x100050358, symSize: 0x0 }
  - { offsetInCU: 0xB7B, offset: 0x7F140, size: 0x8, addend: 0x0, symName: _glad_glCompressedTexImage3D, symObjAddr: 0x18980, symBinAddr: 0x100050360, symSize: 0x0 }
  - { offsetInCU: 0xBD3, offset: 0x7F198, size: 0x8, addend: 0x0, symName: _glad_glCompressedTexSubImage1D, symObjAddr: 0x18988, symBinAddr: 0x100050368, symSize: 0x0 }
  - { offsetInCU: 0xC21, offset: 0x7F1E6, size: 0x8, addend: 0x0, symName: _glad_glCompressedTexSubImage2D, symObjAddr: 0x18990, symBinAddr: 0x100050370, symSize: 0x0 }
  - { offsetInCU: 0xC79, offset: 0x7F23E, size: 0x8, addend: 0x0, symName: _glad_glCompressedTexSubImage3D, symObjAddr: 0x18998, symBinAddr: 0x100050378, symSize: 0x0 }
  - { offsetInCU: 0xCDB, offset: 0x7F2A0, size: 0x8, addend: 0x0, symName: _glad_glCopyBufferSubData, symObjAddr: 0x189A0, symBinAddr: 0x100050380, symSize: 0x0 }
  - { offsetInCU: 0xD1F, offset: 0x7F2E4, size: 0x8, addend: 0x0, symName: _glad_glCopyTexImage1D, symObjAddr: 0x189A8, symBinAddr: 0x100050388, symSize: 0x0 }
  - { offsetInCU: 0xD6D, offset: 0x7F332, size: 0x8, addend: 0x0, symName: _glad_glCopyTexImage2D, symObjAddr: 0x189B0, symBinAddr: 0x100050390, symSize: 0x0 }
  - { offsetInCU: 0xDC0, offset: 0x7F385, size: 0x8, addend: 0x0, symName: _glad_glCopyTexSubImage1D, symObjAddr: 0x189B8, symBinAddr: 0x100050398, symSize: 0x0 }
  - { offsetInCU: 0xE09, offset: 0x7F3CE, size: 0x8, addend: 0x0, symName: _glad_glCopyTexSubImage2D, symObjAddr: 0x189C0, symBinAddr: 0x1000503A0, symSize: 0x0 }
  - { offsetInCU: 0xE5C, offset: 0x7F421, size: 0x8, addend: 0x0, symName: _glad_glCopyTexSubImage3D, symObjAddr: 0x189C8, symBinAddr: 0x1000503A8, symSize: 0x0 }
  - { offsetInCU: 0xEB4, offset: 0x7F479, size: 0x8, addend: 0x0, symName: _glad_glCreateProgram, symObjAddr: 0x189D0, symBinAddr: 0x1000503B0, symSize: 0x0 }
  - { offsetInCU: 0xEE2, offset: 0x7F4A7, size: 0x8, addend: 0x0, symName: _glad_glCreateShader, symObjAddr: 0x189D8, symBinAddr: 0x1000503B8, symSize: 0x0 }
  - { offsetInCU: 0xF15, offset: 0x7F4DA, size: 0x8, addend: 0x0, symName: _glad_glCullFace, symObjAddr: 0x189E0, symBinAddr: 0x1000503C0, symSize: 0x0 }
  - { offsetInCU: 0xF38, offset: 0x7F4FD, size: 0x8, addend: 0x0, symName: _glad_glDeleteBuffers, symObjAddr: 0x189E8, symBinAddr: 0x1000503C8, symSize: 0x0 }
  - { offsetInCU: 0xF6D, offset: 0x7F532, size: 0x8, addend: 0x0, symName: _glad_glDeleteFramebuffers, symObjAddr: 0x189F0, symBinAddr: 0x1000503D0, symSize: 0x0 }
  - { offsetInCU: 0xF90, offset: 0x7F555, size: 0x8, addend: 0x0, symName: _glad_glDeleteProgram, symObjAddr: 0x189F8, symBinAddr: 0x1000503D8, symSize: 0x0 }
  - { offsetInCU: 0xFB3, offset: 0x7F578, size: 0x8, addend: 0x0, symName: _glad_glDeleteQueries, symObjAddr: 0x18A00, symBinAddr: 0x1000503E0, symSize: 0x0 }
  - { offsetInCU: 0xFD6, offset: 0x7F59B, size: 0x8, addend: 0x0, symName: _glad_glDeleteRenderbuffers, symObjAddr: 0x18A08, symBinAddr: 0x1000503E8, symSize: 0x0 }
  - { offsetInCU: 0xFF9, offset: 0x7F5BE, size: 0x8, addend: 0x0, symName: _glad_glDeleteSamplers, symObjAddr: 0x18A10, symBinAddr: 0x1000503F0, symSize: 0x0 }
  - { offsetInCU: 0x101C, offset: 0x7F5E1, size: 0x8, addend: 0x0, symName: _glad_glDeleteShader, symObjAddr: 0x18A18, symBinAddr: 0x1000503F8, symSize: 0x0 }
  - { offsetInCU: 0x103F, offset: 0x7F604, size: 0x8, addend: 0x0, symName: _glad_glDeleteSync, symObjAddr: 0x18A20, symBinAddr: 0x100050400, symSize: 0x0 }
  - { offsetInCU: 0x106F, offset: 0x7F634, size: 0x8, addend: 0x0, symName: _glad_glDeleteTextures, symObjAddr: 0x18A28, symBinAddr: 0x100050408, symSize: 0x0 }
  - { offsetInCU: 0x1092, offset: 0x7F657, size: 0x8, addend: 0x0, symName: _glad_glDeleteVertexArrays, symObjAddr: 0x18A30, symBinAddr: 0x100050410, symSize: 0x0 }
  - { offsetInCU: 0x10B5, offset: 0x7F67A, size: 0x8, addend: 0x0, symName: _glad_glDepthFunc, symObjAddr: 0x18A38, symBinAddr: 0x100050418, symSize: 0x0 }
  - { offsetInCU: 0x10D8, offset: 0x7F69D, size: 0x8, addend: 0x0, symName: _glad_glDepthMask, symObjAddr: 0x18A40, symBinAddr: 0x100050420, symSize: 0x0 }
  - { offsetInCU: 0x1108, offset: 0x7F6CD, size: 0x8, addend: 0x0, symName: _glad_glDepthRange, symObjAddr: 0x18A48, symBinAddr: 0x100050428, symSize: 0x0 }
  - { offsetInCU: 0x113D, offset: 0x7F702, size: 0x8, addend: 0x0, symName: _glad_glDetachShader, symObjAddr: 0x18A50, symBinAddr: 0x100050430, symSize: 0x0 }
  - { offsetInCU: 0x1160, offset: 0x7F725, size: 0x8, addend: 0x0, symName: _glad_glDisable, symObjAddr: 0x18A58, symBinAddr: 0x100050438, symSize: 0x0 }
  - { offsetInCU: 0x1183, offset: 0x7F748, size: 0x8, addend: 0x0, symName: _glad_glDisableVertexAttribArray, symObjAddr: 0x18A60, symBinAddr: 0x100050440, symSize: 0x0 }
  - { offsetInCU: 0x11A6, offset: 0x7F76B, size: 0x8, addend: 0x0, symName: _glad_glDisablei, symObjAddr: 0x18A68, symBinAddr: 0x100050448, symSize: 0x0 }
  - { offsetInCU: 0x11C9, offset: 0x7F78E, size: 0x8, addend: 0x0, symName: _glad_glDrawArrays, symObjAddr: 0x18A70, symBinAddr: 0x100050450, symSize: 0x0 }
  - { offsetInCU: 0x1203, offset: 0x7F7C8, size: 0x8, addend: 0x0, symName: _glad_glDrawArraysInstanced, symObjAddr: 0x18A78, symBinAddr: 0x100050458, symSize: 0x0 }
  - { offsetInCU: 0x1242, offset: 0x7F807, size: 0x8, addend: 0x0, symName: _glad_glDrawBuffer, symObjAddr: 0x18A80, symBinAddr: 0x100050460, symSize: 0x0 }
  - { offsetInCU: 0x1265, offset: 0x7F82A, size: 0x8, addend: 0x0, symName: _glad_glDrawBuffers, symObjAddr: 0x18A88, symBinAddr: 0x100050468, symSize: 0x0 }
  - { offsetInCU: 0x12A4, offset: 0x7F869, size: 0x8, addend: 0x0, symName: _glad_glDrawElements, symObjAddr: 0x18A90, symBinAddr: 0x100050470, symSize: 0x0 }
  - { offsetInCU: 0x12E3, offset: 0x7F8A8, size: 0x8, addend: 0x0, symName: _glad_glDrawElementsBaseVertex, symObjAddr: 0x18A98, symBinAddr: 0x100050478, symSize: 0x0 }
  - { offsetInCU: 0x1327, offset: 0x7F8EC, size: 0x8, addend: 0x0, symName: _glad_glDrawElementsInstanced, symObjAddr: 0x18AA0, symBinAddr: 0x100050480, symSize: 0x0 }
  - { offsetInCU: 0x136B, offset: 0x7F930, size: 0x8, addend: 0x0, symName: _glad_glDrawElementsInstancedBaseVertex, symObjAddr: 0x18AA8, symBinAddr: 0x100050488, symSize: 0x0 }
  - { offsetInCU: 0x13B4, offset: 0x7F979, size: 0x8, addend: 0x0, symName: _glad_glDrawRangeElements, symObjAddr: 0x18AB0, symBinAddr: 0x100050490, symSize: 0x0 }
  - { offsetInCU: 0x13FD, offset: 0x7F9C2, size: 0x8, addend: 0x0, symName: _glad_glDrawRangeElementsBaseVertex, symObjAddr: 0x18AB8, symBinAddr: 0x100050498, symSize: 0x0 }
  - { offsetInCU: 0x144B, offset: 0x7FA10, size: 0x8, addend: 0x0, symName: _glad_glEnable, symObjAddr: 0x18AC0, symBinAddr: 0x1000504A0, symSize: 0x0 }
  - { offsetInCU: 0x146E, offset: 0x7FA33, size: 0x8, addend: 0x0, symName: _glad_glEnableVertexAttribArray, symObjAddr: 0x18AC8, symBinAddr: 0x1000504A8, symSize: 0x0 }
  - { offsetInCU: 0x1491, offset: 0x7FA56, size: 0x8, addend: 0x0, symName: _glad_glEnablei, symObjAddr: 0x18AD0, symBinAddr: 0x1000504B0, symSize: 0x0 }
  - { offsetInCU: 0x14B4, offset: 0x7FA79, size: 0x8, addend: 0x0, symName: _glad_glEndConditionalRender, symObjAddr: 0x18AD8, symBinAddr: 0x1000504B8, symSize: 0x0 }
  - { offsetInCU: 0x14DD, offset: 0x7FAA2, size: 0x8, addend: 0x0, symName: _glad_glEndQuery, symObjAddr: 0x18AE0, symBinAddr: 0x1000504C0, symSize: 0x0 }
  - { offsetInCU: 0x1500, offset: 0x7FAC5, size: 0x8, addend: 0x0, symName: _glad_glEndTransformFeedback, symObjAddr: 0x18AE8, symBinAddr: 0x1000504C8, symSize: 0x0 }
  - { offsetInCU: 0x1523, offset: 0x7FAE8, size: 0x8, addend: 0x0, symName: _glad_glFenceSync, symObjAddr: 0x18AF0, symBinAddr: 0x1000504D0, symSize: 0x0 }
  - { offsetInCU: 0x155B, offset: 0x7FB20, size: 0x8, addend: 0x0, symName: _glad_glFinish, symObjAddr: 0x18AF8, symBinAddr: 0x1000504D8, symSize: 0x0 }
  - { offsetInCU: 0x157E, offset: 0x7FB43, size: 0x8, addend: 0x0, symName: _glad_glFlush, symObjAddr: 0x18B00, symBinAddr: 0x1000504E0, symSize: 0x0 }
  - { offsetInCU: 0x15A1, offset: 0x7FB66, size: 0x8, addend: 0x0, symName: _glad_glFlushMappedBufferRange, symObjAddr: 0x18B08, symBinAddr: 0x1000504E8, symSize: 0x0 }
  - { offsetInCU: 0x15DB, offset: 0x7FBA0, size: 0x8, addend: 0x0, symName: _glad_glFramebufferRenderbuffer, symObjAddr: 0x18B10, symBinAddr: 0x1000504F0, symSize: 0x0 }
  - { offsetInCU: 0x161A, offset: 0x7FBDF, size: 0x8, addend: 0x0, symName: _glad_glFramebufferTexture, symObjAddr: 0x18B18, symBinAddr: 0x1000504F8, symSize: 0x0 }
  - { offsetInCU: 0x1659, offset: 0x7FC1E, size: 0x8, addend: 0x0, symName: _glad_glFramebufferTexture1D, symObjAddr: 0x18B20, symBinAddr: 0x100050500, symSize: 0x0 }
  - { offsetInCU: 0x169D, offset: 0x7FC62, size: 0x8, addend: 0x0, symName: _glad_glFramebufferTexture2D, symObjAddr: 0x18B28, symBinAddr: 0x100050508, symSize: 0x0 }
  - { offsetInCU: 0x16C0, offset: 0x7FC85, size: 0x8, addend: 0x0, symName: _glad_glFramebufferTexture3D, symObjAddr: 0x18B30, symBinAddr: 0x100050510, symSize: 0x0 }
  - { offsetInCU: 0x1709, offset: 0x7FCCE, size: 0x8, addend: 0x0, symName: _glad_glFramebufferTextureLayer, symObjAddr: 0x18B38, symBinAddr: 0x100050518, symSize: 0x0 }
  - { offsetInCU: 0x174D, offset: 0x7FD12, size: 0x8, addend: 0x0, symName: _glad_glFrontFace, symObjAddr: 0x18B40, symBinAddr: 0x100050520, symSize: 0x0 }
  - { offsetInCU: 0x1770, offset: 0x7FD35, size: 0x8, addend: 0x0, symName: _glad_glGenBuffers, symObjAddr: 0x18B48, symBinAddr: 0x100050528, symSize: 0x0 }
  - { offsetInCU: 0x17AA, offset: 0x7FD6F, size: 0x8, addend: 0x0, symName: _glad_glGenFramebuffers, symObjAddr: 0x18B50, symBinAddr: 0x100050530, symSize: 0x0 }
  - { offsetInCU: 0x17CD, offset: 0x7FD92, size: 0x8, addend: 0x0, symName: _glad_glGenQueries, symObjAddr: 0x18B58, symBinAddr: 0x100050538, symSize: 0x0 }
  - { offsetInCU: 0x17F0, offset: 0x7FDB5, size: 0x8, addend: 0x0, symName: _glad_glGenRenderbuffers, symObjAddr: 0x18B60, symBinAddr: 0x100050540, symSize: 0x0 }
  - { offsetInCU: 0x1813, offset: 0x7FDD8, size: 0x8, addend: 0x0, symName: _glad_glGenSamplers, symObjAddr: 0x18B68, symBinAddr: 0x100050548, symSize: 0x0 }
  - { offsetInCU: 0x1836, offset: 0x7FDFB, size: 0x8, addend: 0x0, symName: _glad_glGenTextures, symObjAddr: 0x18B70, symBinAddr: 0x100050550, symSize: 0x0 }
  - { offsetInCU: 0x1859, offset: 0x7FE1E, size: 0x8, addend: 0x0, symName: _glad_glGenVertexArrays, symObjAddr: 0x18B78, symBinAddr: 0x100050558, symSize: 0x0 }
  - { offsetInCU: 0x187C, offset: 0x7FE41, size: 0x8, addend: 0x0, symName: _glad_glGenerateMipmap, symObjAddr: 0x18B80, symBinAddr: 0x100050560, symSize: 0x0 }
  - { offsetInCU: 0x189F, offset: 0x7FE64, size: 0x8, addend: 0x0, symName: _glad_glGetActiveAttrib, symObjAddr: 0x18B88, symBinAddr: 0x100050568, symSize: 0x0 }
  - { offsetInCU: 0x1901, offset: 0x7FEC6, size: 0x8, addend: 0x0, symName: _glad_glGetActiveUniform, symObjAddr: 0x18B90, symBinAddr: 0x100050570, symSize: 0x0 }
  - { offsetInCU: 0x1924, offset: 0x7FEE9, size: 0x8, addend: 0x0, symName: _glad_glGetActiveUniformBlockName, symObjAddr: 0x18B98, symBinAddr: 0x100050578, symSize: 0x0 }
  - { offsetInCU: 0x1968, offset: 0x7FF2D, size: 0x8, addend: 0x0, symName: _glad_glGetActiveUniformBlockiv, symObjAddr: 0x18BA0, symBinAddr: 0x100050580, symSize: 0x0 }
  - { offsetInCU: 0x19A7, offset: 0x7FF6C, size: 0x8, addend: 0x0, symName: _glad_glGetActiveUniformName, symObjAddr: 0x18BA8, symBinAddr: 0x100050588, symSize: 0x0 }
  - { offsetInCU: 0x19CA, offset: 0x7FF8F, size: 0x8, addend: 0x0, symName: _glad_glGetActiveUniformsiv, symObjAddr: 0x18BB0, symBinAddr: 0x100050590, symSize: 0x0 }
  - { offsetInCU: 0x1A0E, offset: 0x7FFD3, size: 0x8, addend: 0x0, symName: _glad_glGetAttachedShaders, symObjAddr: 0x18BB8, symBinAddr: 0x100050598, symSize: 0x0 }
  - { offsetInCU: 0x1A4D, offset: 0x80012, size: 0x8, addend: 0x0, symName: _glad_glGetAttribLocation, symObjAddr: 0x18BC0, symBinAddr: 0x1000505A0, symSize: 0x0 }
  - { offsetInCU: 0x1A85, offset: 0x8004A, size: 0x8, addend: 0x0, symName: _glad_glGetBooleani_v, symObjAddr: 0x18BC8, symBinAddr: 0x1000505A8, symSize: 0x0 }
  - { offsetInCU: 0x1AC4, offset: 0x80089, size: 0x8, addend: 0x0, symName: _glad_glGetBooleanv, symObjAddr: 0x18BD0, symBinAddr: 0x1000505B0, symSize: 0x0 }
  - { offsetInCU: 0x1AF9, offset: 0x800BE, size: 0x8, addend: 0x0, symName: _glad_glGetBufferParameteri64v, symObjAddr: 0x18BD8, symBinAddr: 0x1000505B8, symSize: 0x0 }
  - { offsetInCU: 0x1B55, offset: 0x8011A, size: 0x8, addend: 0x0, symName: _glad_glGetBufferParameteriv, symObjAddr: 0x18BE0, symBinAddr: 0x1000505C0, symSize: 0x0 }
  - { offsetInCU: 0x1B8F, offset: 0x80154, size: 0x8, addend: 0x0, symName: _glad_glGetBufferPointerv, symObjAddr: 0x18BE8, symBinAddr: 0x1000505C8, symSize: 0x0 }
  - { offsetInCU: 0x1BCF, offset: 0x80194, size: 0x8, addend: 0x0, symName: _glad_glGetBufferSubData, symObjAddr: 0x18BF0, symBinAddr: 0x1000505D0, symSize: 0x0 }
  - { offsetInCU: 0x1C0E, offset: 0x801D3, size: 0x8, addend: 0x0, symName: _glad_glGetCompressedTexImage, symObjAddr: 0x18BF8, symBinAddr: 0x1000505D8, symSize: 0x0 }
  - { offsetInCU: 0x1C48, offset: 0x8020D, size: 0x8, addend: 0x0, symName: _glad_glGetDoublev, symObjAddr: 0x18C00, symBinAddr: 0x1000505E0, symSize: 0x0 }
  - { offsetInCU: 0x1C82, offset: 0x80247, size: 0x8, addend: 0x0, symName: _glad_glGetError, symObjAddr: 0x18C08, symBinAddr: 0x1000505E8, symSize: 0x0 }
  - { offsetInCU: 0x1CB0, offset: 0x80275, size: 0x8, addend: 0x0, symName: _glad_glGetFloatv, symObjAddr: 0x18C10, symBinAddr: 0x1000505F0, symSize: 0x0 }
  - { offsetInCU: 0x1CEA, offset: 0x802AF, size: 0x8, addend: 0x0, symName: _glad_glGetFragDataIndex, symObjAddr: 0x18C18, symBinAddr: 0x1000505F8, symSize: 0x0 }
  - { offsetInCU: 0x1D0D, offset: 0x802D2, size: 0x8, addend: 0x0, symName: _glad_glGetFragDataLocation, symObjAddr: 0x18C20, symBinAddr: 0x100050600, symSize: 0x0 }
  - { offsetInCU: 0x1D30, offset: 0x802F5, size: 0x8, addend: 0x0, symName: _glad_glGetFramebufferAttachmentParameteriv, symObjAddr: 0x18C28, symBinAddr: 0x100050608, symSize: 0x0 }
  - { offsetInCU: 0x1D6F, offset: 0x80334, size: 0x8, addend: 0x0, symName: _glad_glGetInteger64i_v, symObjAddr: 0x18C30, symBinAddr: 0x100050610, symSize: 0x0 }
  - { offsetInCU: 0x1DA9, offset: 0x8036E, size: 0x8, addend: 0x0, symName: _glad_glGetInteger64v, symObjAddr: 0x18C38, symBinAddr: 0x100050618, symSize: 0x0 }
  - { offsetInCU: 0x1DDE, offset: 0x803A3, size: 0x8, addend: 0x0, symName: _glad_glGetIntegeri_v, symObjAddr: 0x18C40, symBinAddr: 0x100050620, symSize: 0x0 }
  - { offsetInCU: 0x1E18, offset: 0x803DD, size: 0x8, addend: 0x0, symName: _glad_glGetIntegerv, symObjAddr: 0x18C48, symBinAddr: 0x100050628, symSize: 0x0 }
  - { offsetInCU: 0x1E4D, offset: 0x80412, size: 0x8, addend: 0x0, symName: _glad_glGetMultisamplefv, symObjAddr: 0x18C50, symBinAddr: 0x100050630, symSize: 0x0 }
  - { offsetInCU: 0x1E87, offset: 0x8044C, size: 0x8, addend: 0x0, symName: _glad_glGetProgramInfoLog, symObjAddr: 0x18C58, symBinAddr: 0x100050638, symSize: 0x0 }
  - { offsetInCU: 0x1EC6, offset: 0x8048B, size: 0x8, addend: 0x0, symName: _glad_glGetProgramiv, symObjAddr: 0x18C60, symBinAddr: 0x100050640, symSize: 0x0 }
  - { offsetInCU: 0x1F00, offset: 0x804C5, size: 0x8, addend: 0x0, symName: _glad_glGetQueryObjecti64v, symObjAddr: 0x18C68, symBinAddr: 0x100050648, symSize: 0x0 }
  - { offsetInCU: 0x1F3A, offset: 0x804FF, size: 0x8, addend: 0x0, symName: _glad_glGetQueryObjectiv, symObjAddr: 0x18C70, symBinAddr: 0x100050650, symSize: 0x0 }
  - { offsetInCU: 0x1F5D, offset: 0x80522, size: 0x8, addend: 0x0, symName: _glad_glGetQueryObjectui64v, symObjAddr: 0x18C78, symBinAddr: 0x100050658, symSize: 0x0 }
  - { offsetInCU: 0x1F9C, offset: 0x80561, size: 0x8, addend: 0x0, symName: _glad_glGetQueryObjectuiv, symObjAddr: 0x18C80, symBinAddr: 0x100050660, symSize: 0x0 }
  - { offsetInCU: 0x1FD6, offset: 0x8059B, size: 0x8, addend: 0x0, symName: _glad_glGetQueryiv, symObjAddr: 0x18C88, symBinAddr: 0x100050668, symSize: 0x0 }
  - { offsetInCU: 0x1FF9, offset: 0x805BE, size: 0x8, addend: 0x0, symName: _glad_glGetRenderbufferParameteriv, symObjAddr: 0x18C90, symBinAddr: 0x100050670, symSize: 0x0 }
  - { offsetInCU: 0x201C, offset: 0x805E1, size: 0x8, addend: 0x0, symName: _glad_glGetSamplerParameterIiv, symObjAddr: 0x18C98, symBinAddr: 0x100050678, symSize: 0x0 }
  - { offsetInCU: 0x203F, offset: 0x80604, size: 0x8, addend: 0x0, symName: _glad_glGetSamplerParameterIuiv, symObjAddr: 0x18CA0, symBinAddr: 0x100050680, symSize: 0x0 }
  - { offsetInCU: 0x2062, offset: 0x80627, size: 0x8, addend: 0x0, symName: _glad_glGetSamplerParameterfv, symObjAddr: 0x18CA8, symBinAddr: 0x100050688, symSize: 0x0 }
  - { offsetInCU: 0x209C, offset: 0x80661, size: 0x8, addend: 0x0, symName: _glad_glGetSamplerParameteriv, symObjAddr: 0x18CB0, symBinAddr: 0x100050690, symSize: 0x0 }
  - { offsetInCU: 0x20BF, offset: 0x80684, size: 0x8, addend: 0x0, symName: _glad_glGetShaderInfoLog, symObjAddr: 0x18CB8, symBinAddr: 0x100050698, symSize: 0x0 }
  - { offsetInCU: 0x20E2, offset: 0x806A7, size: 0x8, addend: 0x0, symName: _glad_glGetShaderSource, symObjAddr: 0x18CC0, symBinAddr: 0x1000506A0, symSize: 0x0 }
  - { offsetInCU: 0x2105, offset: 0x806CA, size: 0x8, addend: 0x0, symName: _glad_glGetShaderiv, symObjAddr: 0x18CC8, symBinAddr: 0x1000506A8, symSize: 0x0 }
  - { offsetInCU: 0x2128, offset: 0x806ED, size: 0x8, addend: 0x0, symName: _glad_glGetString, symObjAddr: 0x18CD0, symBinAddr: 0x1000506B0, symSize: 0x0 }
  - { offsetInCU: 0x217B, offset: 0x80740, size: 0x8, addend: 0x0, symName: _glad_glGetStringi, symObjAddr: 0x18CD8, symBinAddr: 0x1000506B8, symSize: 0x0 }
  - { offsetInCU: 0x21B3, offset: 0x80778, size: 0x8, addend: 0x0, symName: _glad_glGetSynciv, symObjAddr: 0x18CE0, symBinAddr: 0x1000506C0, symSize: 0x0 }
  - { offsetInCU: 0x21F7, offset: 0x807BC, size: 0x8, addend: 0x0, symName: _glad_glGetTexImage, symObjAddr: 0x18CE8, symBinAddr: 0x1000506C8, symSize: 0x0 }
  - { offsetInCU: 0x223B, offset: 0x80800, size: 0x8, addend: 0x0, symName: _glad_glGetTexLevelParameterfv, symObjAddr: 0x18CF0, symBinAddr: 0x1000506D0, symSize: 0x0 }
  - { offsetInCU: 0x227A, offset: 0x8083F, size: 0x8, addend: 0x0, symName: _glad_glGetTexLevelParameteriv, symObjAddr: 0x18CF8, symBinAddr: 0x1000506D8, symSize: 0x0 }
  - { offsetInCU: 0x22B9, offset: 0x8087E, size: 0x8, addend: 0x0, symName: _glad_glGetTexParameterIiv, symObjAddr: 0x18D00, symBinAddr: 0x1000506E0, symSize: 0x0 }
  - { offsetInCU: 0x22DC, offset: 0x808A1, size: 0x8, addend: 0x0, symName: _glad_glGetTexParameterIuiv, symObjAddr: 0x18D08, symBinAddr: 0x1000506E8, symSize: 0x0 }
  - { offsetInCU: 0x2316, offset: 0x808DB, size: 0x8, addend: 0x0, symName: _glad_glGetTexParameterfv, symObjAddr: 0x18D10, symBinAddr: 0x1000506F0, symSize: 0x0 }
  - { offsetInCU: 0x2350, offset: 0x80915, size: 0x8, addend: 0x0, symName: _glad_glGetTexParameteriv, symObjAddr: 0x18D18, symBinAddr: 0x1000506F8, symSize: 0x0 }
  - { offsetInCU: 0x2373, offset: 0x80938, size: 0x8, addend: 0x0, symName: _glad_glGetTransformFeedbackVarying, symObjAddr: 0x18D20, symBinAddr: 0x100050700, symSize: 0x0 }
  - { offsetInCU: 0x23C1, offset: 0x80986, size: 0x8, addend: 0x0, symName: _glad_glGetUniformBlockIndex, symObjAddr: 0x18D28, symBinAddr: 0x100050708, symSize: 0x0 }
  - { offsetInCU: 0x23F9, offset: 0x809BE, size: 0x8, addend: 0x0, symName: _glad_glGetUniformIndices, symObjAddr: 0x18D30, symBinAddr: 0x100050710, symSize: 0x0 }
  - { offsetInCU: 0x2442, offset: 0x80A07, size: 0x8, addend: 0x0, symName: _glad_glGetUniformLocation, symObjAddr: 0x18D38, symBinAddr: 0x100050718, symSize: 0x0 }
  - { offsetInCU: 0x2465, offset: 0x80A2A, size: 0x8, addend: 0x0, symName: _glad_glGetUniformfv, symObjAddr: 0x18D40, symBinAddr: 0x100050720, symSize: 0x0 }
  - { offsetInCU: 0x249F, offset: 0x80A64, size: 0x8, addend: 0x0, symName: _glad_glGetUniformiv, symObjAddr: 0x18D48, symBinAddr: 0x100050728, symSize: 0x0 }
  - { offsetInCU: 0x24D9, offset: 0x80A9E, size: 0x8, addend: 0x0, symName: _glad_glGetUniformuiv, symObjAddr: 0x18D50, symBinAddr: 0x100050730, symSize: 0x0 }
  - { offsetInCU: 0x2513, offset: 0x80AD8, size: 0x8, addend: 0x0, symName: _glad_glGetVertexAttribIiv, symObjAddr: 0x18D58, symBinAddr: 0x100050738, symSize: 0x0 }
  - { offsetInCU: 0x2536, offset: 0x80AFB, size: 0x8, addend: 0x0, symName: _glad_glGetVertexAttribIuiv, symObjAddr: 0x18D60, symBinAddr: 0x100050740, symSize: 0x0 }
  - { offsetInCU: 0x2559, offset: 0x80B1E, size: 0x8, addend: 0x0, symName: _glad_glGetVertexAttribPointerv, symObjAddr: 0x18D68, symBinAddr: 0x100050748, symSize: 0x0 }
  - { offsetInCU: 0x2593, offset: 0x80B58, size: 0x8, addend: 0x0, symName: _glad_glGetVertexAttribdv, symObjAddr: 0x18D70, symBinAddr: 0x100050750, symSize: 0x0 }
  - { offsetInCU: 0x25CD, offset: 0x80B92, size: 0x8, addend: 0x0, symName: _glad_glGetVertexAttribfv, symObjAddr: 0x18D78, symBinAddr: 0x100050758, symSize: 0x0 }
  - { offsetInCU: 0x25F0, offset: 0x80BB5, size: 0x8, addend: 0x0, symName: _glad_glGetVertexAttribiv, symObjAddr: 0x18D80, symBinAddr: 0x100050760, symSize: 0x0 }
  - { offsetInCU: 0x2613, offset: 0x80BD8, size: 0x8, addend: 0x0, symName: _glad_glHint, symObjAddr: 0x18D88, symBinAddr: 0x100050768, symSize: 0x0 }
  - { offsetInCU: 0x2636, offset: 0x80BFB, size: 0x8, addend: 0x0, symName: _glad_glIsBuffer, symObjAddr: 0x18D90, symBinAddr: 0x100050770, symSize: 0x0 }
  - { offsetInCU: 0x2669, offset: 0x80C2E, size: 0x8, addend: 0x0, symName: _glad_glIsEnabled, symObjAddr: 0x18D98, symBinAddr: 0x100050778, symSize: 0x0 }
  - { offsetInCU: 0x269C, offset: 0x80C61, size: 0x8, addend: 0x0, symName: _glad_glIsEnabledi, symObjAddr: 0x18DA0, symBinAddr: 0x100050780, symSize: 0x0 }
  - { offsetInCU: 0x26D4, offset: 0x80C99, size: 0x8, addend: 0x0, symName: _glad_glIsFramebuffer, symObjAddr: 0x18DA8, symBinAddr: 0x100050788, symSize: 0x0 }
  - { offsetInCU: 0x26F7, offset: 0x80CBC, size: 0x8, addend: 0x0, symName: _glad_glIsProgram, symObjAddr: 0x18DB0, symBinAddr: 0x100050790, symSize: 0x0 }
  - { offsetInCU: 0x271A, offset: 0x80CDF, size: 0x8, addend: 0x0, symName: _glad_glIsQuery, symObjAddr: 0x18DB8, symBinAddr: 0x100050798, symSize: 0x0 }
  - { offsetInCU: 0x273D, offset: 0x80D02, size: 0x8, addend: 0x0, symName: _glad_glIsRenderbuffer, symObjAddr: 0x18DC0, symBinAddr: 0x1000507A0, symSize: 0x0 }
  - { offsetInCU: 0x2760, offset: 0x80D25, size: 0x8, addend: 0x0, symName: _glad_glIsSampler, symObjAddr: 0x18DC8, symBinAddr: 0x1000507A8, symSize: 0x0 }
  - { offsetInCU: 0x2783, offset: 0x80D48, size: 0x8, addend: 0x0, symName: _glad_glIsShader, symObjAddr: 0x18DD0, symBinAddr: 0x1000507B0, symSize: 0x0 }
  - { offsetInCU: 0x27A6, offset: 0x80D6B, size: 0x8, addend: 0x0, symName: _glad_glIsSync, symObjAddr: 0x18DD8, symBinAddr: 0x1000507B8, symSize: 0x0 }
  - { offsetInCU: 0x27D9, offset: 0x80D9E, size: 0x8, addend: 0x0, symName: _glad_glIsTexture, symObjAddr: 0x18DE0, symBinAddr: 0x1000507C0, symSize: 0x0 }
  - { offsetInCU: 0x27FC, offset: 0x80DC1, size: 0x8, addend: 0x0, symName: _glad_glIsVertexArray, symObjAddr: 0x18DE8, symBinAddr: 0x1000507C8, symSize: 0x0 }
  - { offsetInCU: 0x281F, offset: 0x80DE4, size: 0x8, addend: 0x0, symName: _glad_glLineWidth, symObjAddr: 0x18DF0, symBinAddr: 0x1000507D0, symSize: 0x0 }
  - { offsetInCU: 0x284F, offset: 0x80E14, size: 0x8, addend: 0x0, symName: _glad_glLinkProgram, symObjAddr: 0x18DF8, symBinAddr: 0x1000507D8, symSize: 0x0 }
  - { offsetInCU: 0x2872, offset: 0x80E37, size: 0x8, addend: 0x0, symName: _glad_glLogicOp, symObjAddr: 0x18E00, symBinAddr: 0x1000507E0, symSize: 0x0 }
  - { offsetInCU: 0x2895, offset: 0x80E5A, size: 0x8, addend: 0x0, symName: _glad_glMapBuffer, symObjAddr: 0x18E08, symBinAddr: 0x1000507E8, symSize: 0x0 }
  - { offsetInCU: 0x28CD, offset: 0x80E92, size: 0x8, addend: 0x0, symName: _glad_glMapBufferRange, symObjAddr: 0x18E10, symBinAddr: 0x1000507F0, symSize: 0x0 }
  - { offsetInCU: 0x290F, offset: 0x80ED4, size: 0x8, addend: 0x0, symName: _glad_glMultiDrawArrays, symObjAddr: 0x18E18, symBinAddr: 0x1000507F8, symSize: 0x0 }
  - { offsetInCU: 0x2958, offset: 0x80F1D, size: 0x8, addend: 0x0, symName: _glad_glMultiDrawElements, symObjAddr: 0x18E20, symBinAddr: 0x100050800, symSize: 0x0 }
  - { offsetInCU: 0x29A6, offset: 0x80F6B, size: 0x8, addend: 0x0, symName: _glad_glMultiDrawElementsBaseVertex, symObjAddr: 0x18E28, symBinAddr: 0x100050808, symSize: 0x0 }
  - { offsetInCU: 0x29EF, offset: 0x80FB4, size: 0x8, addend: 0x0, symName: _glad_glMultiTexCoordP1ui, symObjAddr: 0x18E30, symBinAddr: 0x100050810, symSize: 0x0 }
  - { offsetInCU: 0x2A29, offset: 0x80FEE, size: 0x8, addend: 0x0, symName: _glad_glMultiTexCoordP1uiv, symObjAddr: 0x18E38, symBinAddr: 0x100050818, symSize: 0x0 }
  - { offsetInCU: 0x2A63, offset: 0x81028, size: 0x8, addend: 0x0, symName: _glad_glMultiTexCoordP2ui, symObjAddr: 0x18E40, symBinAddr: 0x100050820, symSize: 0x0 }
  - { offsetInCU: 0x2A86, offset: 0x8104B, size: 0x8, addend: 0x0, symName: _glad_glMultiTexCoordP2uiv, symObjAddr: 0x18E48, symBinAddr: 0x100050828, symSize: 0x0 }
  - { offsetInCU: 0x2AA9, offset: 0x8106E, size: 0x8, addend: 0x0, symName: _glad_glMultiTexCoordP3ui, symObjAddr: 0x18E50, symBinAddr: 0x100050830, symSize: 0x0 }
  - { offsetInCU: 0x2ACC, offset: 0x81091, size: 0x8, addend: 0x0, symName: _glad_glMultiTexCoordP3uiv, symObjAddr: 0x18E58, symBinAddr: 0x100050838, symSize: 0x0 }
  - { offsetInCU: 0x2AEF, offset: 0x810B4, size: 0x8, addend: 0x0, symName: _glad_glMultiTexCoordP4ui, symObjAddr: 0x18E60, symBinAddr: 0x100050840, symSize: 0x0 }
  - { offsetInCU: 0x2B12, offset: 0x810D7, size: 0x8, addend: 0x0, symName: _glad_glMultiTexCoordP4uiv, symObjAddr: 0x18E68, symBinAddr: 0x100050848, symSize: 0x0 }
  - { offsetInCU: 0x2B35, offset: 0x810FA, size: 0x8, addend: 0x0, symName: _glad_glNormalP3ui, symObjAddr: 0x18E70, symBinAddr: 0x100050850, symSize: 0x0 }
  - { offsetInCU: 0x2B58, offset: 0x8111D, size: 0x8, addend: 0x0, symName: _glad_glNormalP3uiv, symObjAddr: 0x18E78, symBinAddr: 0x100050858, symSize: 0x0 }
  - { offsetInCU: 0x2B7B, offset: 0x81140, size: 0x8, addend: 0x0, symName: _glad_glPixelStoref, symObjAddr: 0x18E80, symBinAddr: 0x100050860, symSize: 0x0 }
  - { offsetInCU: 0x2BB0, offset: 0x81175, size: 0x8, addend: 0x0, symName: _glad_glPixelStorei, symObjAddr: 0x18E88, symBinAddr: 0x100050868, symSize: 0x0 }
  - { offsetInCU: 0x2BE5, offset: 0x811AA, size: 0x8, addend: 0x0, symName: _glad_glPointParameterf, symObjAddr: 0x18E90, symBinAddr: 0x100050870, symSize: 0x0 }
  - { offsetInCU: 0x2C08, offset: 0x811CD, size: 0x8, addend: 0x0, symName: _glad_glPointParameterfv, symObjAddr: 0x18E98, symBinAddr: 0x100050878, symSize: 0x0 }
  - { offsetInCU: 0x2C3D, offset: 0x81202, size: 0x8, addend: 0x0, symName: _glad_glPointParameteri, symObjAddr: 0x18EA0, symBinAddr: 0x100050880, symSize: 0x0 }
  - { offsetInCU: 0x2C60, offset: 0x81225, size: 0x8, addend: 0x0, symName: _glad_glPointParameteriv, symObjAddr: 0x18EA8, symBinAddr: 0x100050888, symSize: 0x0 }
  - { offsetInCU: 0x2C95, offset: 0x8125A, size: 0x8, addend: 0x0, symName: _glad_glPointSize, symObjAddr: 0x18EB0, symBinAddr: 0x100050890, symSize: 0x0 }
  - { offsetInCU: 0x2CB8, offset: 0x8127D, size: 0x8, addend: 0x0, symName: _glad_glPolygonMode, symObjAddr: 0x18EB8, symBinAddr: 0x100050898, symSize: 0x0 }
  - { offsetInCU: 0x2CDB, offset: 0x812A0, size: 0x8, addend: 0x0, symName: _glad_glPolygonOffset, symObjAddr: 0x18EC0, symBinAddr: 0x1000508A0, symSize: 0x0 }
  - { offsetInCU: 0x2D10, offset: 0x812D5, size: 0x8, addend: 0x0, symName: _glad_glPrimitiveRestartIndex, symObjAddr: 0x18EC8, symBinAddr: 0x1000508A8, symSize: 0x0 }
  - { offsetInCU: 0x2D33, offset: 0x812F8, size: 0x8, addend: 0x0, symName: _glad_glProvokingVertex, symObjAddr: 0x18ED0, symBinAddr: 0x1000508B0, symSize: 0x0 }
  - { offsetInCU: 0x2D56, offset: 0x8131B, size: 0x8, addend: 0x0, symName: _glad_glQueryCounter, symObjAddr: 0x18ED8, symBinAddr: 0x1000508B8, symSize: 0x0 }
  - { offsetInCU: 0x2D79, offset: 0x8133E, size: 0x8, addend: 0x0, symName: _glad_glReadBuffer, symObjAddr: 0x18EE0, symBinAddr: 0x1000508C0, symSize: 0x0 }
  - { offsetInCU: 0x2D9C, offset: 0x81361, size: 0x8, addend: 0x0, symName: _glad_glReadPixels, symObjAddr: 0x18EE8, symBinAddr: 0x1000508C8, symSize: 0x0 }
  - { offsetInCU: 0x2DEA, offset: 0x813AF, size: 0x8, addend: 0x0, symName: _glad_glRenderbufferStorage, symObjAddr: 0x18EF0, symBinAddr: 0x1000508D0, symSize: 0x0 }
  - { offsetInCU: 0x2E29, offset: 0x813EE, size: 0x8, addend: 0x0, symName: _glad_glRenderbufferStorageMultisample, symObjAddr: 0x18EF8, symBinAddr: 0x1000508D8, symSize: 0x0 }
  - { offsetInCU: 0x2E6D, offset: 0x81432, size: 0x8, addend: 0x0, symName: _glad_glSampleCoverage, symObjAddr: 0x18F00, symBinAddr: 0x1000508E0, symSize: 0x0 }
  - { offsetInCU: 0x2EA2, offset: 0x81467, size: 0x8, addend: 0x0, symName: _glad_glSampleMaski, symObjAddr: 0x18F08, symBinAddr: 0x1000508E8, symSize: 0x0 }
  - { offsetInCU: 0x2ED7, offset: 0x8149C, size: 0x8, addend: 0x0, symName: _glad_glSamplerParameterIiv, symObjAddr: 0x18F10, symBinAddr: 0x1000508F0, symSize: 0x0 }
  - { offsetInCU: 0x2F11, offset: 0x814D6, size: 0x8, addend: 0x0, symName: _glad_glSamplerParameterIuiv, symObjAddr: 0x18F18, symBinAddr: 0x1000508F8, symSize: 0x0 }
  - { offsetInCU: 0x2F4B, offset: 0x81510, size: 0x8, addend: 0x0, symName: _glad_glSamplerParameterf, symObjAddr: 0x18F20, symBinAddr: 0x100050900, symSize: 0x0 }
  - { offsetInCU: 0x2F85, offset: 0x8154A, size: 0x8, addend: 0x0, symName: _glad_glSamplerParameterfv, symObjAddr: 0x18F28, symBinAddr: 0x100050908, symSize: 0x0 }
  - { offsetInCU: 0x2FBF, offset: 0x81584, size: 0x8, addend: 0x0, symName: _glad_glSamplerParameteri, symObjAddr: 0x18F30, symBinAddr: 0x100050910, symSize: 0x0 }
  - { offsetInCU: 0x2FF9, offset: 0x815BE, size: 0x8, addend: 0x0, symName: _glad_glSamplerParameteriv, symObjAddr: 0x18F38, symBinAddr: 0x100050918, symSize: 0x0 }
  - { offsetInCU: 0x301C, offset: 0x815E1, size: 0x8, addend: 0x0, symName: _glad_glScissor, symObjAddr: 0x18F40, symBinAddr: 0x100050920, symSize: 0x0 }
  - { offsetInCU: 0x305B, offset: 0x81620, size: 0x8, addend: 0x0, symName: _glad_glSecondaryColorP3ui, symObjAddr: 0x18F48, symBinAddr: 0x100050928, symSize: 0x0 }
  - { offsetInCU: 0x307E, offset: 0x81643, size: 0x8, addend: 0x0, symName: _glad_glSecondaryColorP3uiv, symObjAddr: 0x18F50, symBinAddr: 0x100050930, symSize: 0x0 }
  - { offsetInCU: 0x30A1, offset: 0x81666, size: 0x8, addend: 0x0, symName: _glad_glShaderSource, symObjAddr: 0x18F58, symBinAddr: 0x100050938, symSize: 0x0 }
  - { offsetInCU: 0x30E0, offset: 0x816A5, size: 0x8, addend: 0x0, symName: _glad_glStencilFunc, symObjAddr: 0x18F60, symBinAddr: 0x100050940, symSize: 0x0 }
  - { offsetInCU: 0x311A, offset: 0x816DF, size: 0x8, addend: 0x0, symName: _glad_glStencilFuncSeparate, symObjAddr: 0x18F68, symBinAddr: 0x100050948, symSize: 0x0 }
  - { offsetInCU: 0x3159, offset: 0x8171E, size: 0x8, addend: 0x0, symName: _glad_glStencilMask, symObjAddr: 0x18F70, symBinAddr: 0x100050950, symSize: 0x0 }
  - { offsetInCU: 0x317C, offset: 0x81741, size: 0x8, addend: 0x0, symName: _glad_glStencilMaskSeparate, symObjAddr: 0x18F78, symBinAddr: 0x100050958, symSize: 0x0 }
  - { offsetInCU: 0x319F, offset: 0x81764, size: 0x8, addend: 0x0, symName: _glad_glStencilOp, symObjAddr: 0x18F80, symBinAddr: 0x100050960, symSize: 0x0 }
  - { offsetInCU: 0x31D9, offset: 0x8179E, size: 0x8, addend: 0x0, symName: _glad_glStencilOpSeparate, symObjAddr: 0x18F88, symBinAddr: 0x100050968, symSize: 0x0 }
  - { offsetInCU: 0x31FC, offset: 0x817C1, size: 0x8, addend: 0x0, symName: _glad_glTexBuffer, symObjAddr: 0x18F90, symBinAddr: 0x100050970, symSize: 0x0 }
  - { offsetInCU: 0x321F, offset: 0x817E4, size: 0x8, addend: 0x0, symName: _glad_glTexCoordP1ui, symObjAddr: 0x18F98, symBinAddr: 0x100050978, symSize: 0x0 }
  - { offsetInCU: 0x3242, offset: 0x81807, size: 0x8, addend: 0x0, symName: _glad_glTexCoordP1uiv, symObjAddr: 0x18FA0, symBinAddr: 0x100050980, symSize: 0x0 }
  - { offsetInCU: 0x3265, offset: 0x8182A, size: 0x8, addend: 0x0, symName: _glad_glTexCoordP2ui, symObjAddr: 0x18FA8, symBinAddr: 0x100050988, symSize: 0x0 }
  - { offsetInCU: 0x3288, offset: 0x8184D, size: 0x8, addend: 0x0, symName: _glad_glTexCoordP2uiv, symObjAddr: 0x18FB0, symBinAddr: 0x100050990, symSize: 0x0 }
  - { offsetInCU: 0x32AB, offset: 0x81870, size: 0x8, addend: 0x0, symName: _glad_glTexCoordP3ui, symObjAddr: 0x18FB8, symBinAddr: 0x100050998, symSize: 0x0 }
  - { offsetInCU: 0x32CE, offset: 0x81893, size: 0x8, addend: 0x0, symName: _glad_glTexCoordP3uiv, symObjAddr: 0x18FC0, symBinAddr: 0x1000509A0, symSize: 0x0 }
  - { offsetInCU: 0x32F1, offset: 0x818B6, size: 0x8, addend: 0x0, symName: _glad_glTexCoordP4ui, symObjAddr: 0x18FC8, symBinAddr: 0x1000509A8, symSize: 0x0 }
  - { offsetInCU: 0x3314, offset: 0x818D9, size: 0x8, addend: 0x0, symName: _glad_glTexCoordP4uiv, symObjAddr: 0x18FD0, symBinAddr: 0x1000509B0, symSize: 0x0 }
  - { offsetInCU: 0x3337, offset: 0x818FC, size: 0x8, addend: 0x0, symName: _glad_glTexImage1D, symObjAddr: 0x18FD8, symBinAddr: 0x1000509B8, symSize: 0x0 }
  - { offsetInCU: 0x338A, offset: 0x8194F, size: 0x8, addend: 0x0, symName: _glad_glTexImage2D, symObjAddr: 0x18FE0, symBinAddr: 0x1000509C0, symSize: 0x0 }
  - { offsetInCU: 0x33E2, offset: 0x819A7, size: 0x8, addend: 0x0, symName: _glad_glTexImage2DMultisample, symObjAddr: 0x18FE8, symBinAddr: 0x1000509C8, symSize: 0x0 }
  - { offsetInCU: 0x342B, offset: 0x819F0, size: 0x8, addend: 0x0, symName: _glad_glTexImage3D, symObjAddr: 0x18FF0, symBinAddr: 0x1000509D0, symSize: 0x0 }
  - { offsetInCU: 0x3488, offset: 0x81A4D, size: 0x8, addend: 0x0, symName: _glad_glTexImage3DMultisample, symObjAddr: 0x18FF8, symBinAddr: 0x1000509D8, symSize: 0x0 }
  - { offsetInCU: 0x34D6, offset: 0x81A9B, size: 0x8, addend: 0x0, symName: _glad_glTexParameterIiv, symObjAddr: 0x19000, symBinAddr: 0x1000509E0, symSize: 0x0 }
  - { offsetInCU: 0x3510, offset: 0x81AD5, size: 0x8, addend: 0x0, symName: _glad_glTexParameterIuiv, symObjAddr: 0x19008, symBinAddr: 0x1000509E8, symSize: 0x0 }
  - { offsetInCU: 0x3533, offset: 0x81AF8, size: 0x8, addend: 0x0, symName: _glad_glTexParameterf, symObjAddr: 0x19010, symBinAddr: 0x1000509F0, symSize: 0x0 }
  - { offsetInCU: 0x356D, offset: 0x81B32, size: 0x8, addend: 0x0, symName: _glad_glTexParameterfv, symObjAddr: 0x19018, symBinAddr: 0x1000509F8, symSize: 0x0 }
  - { offsetInCU: 0x35A7, offset: 0x81B6C, size: 0x8, addend: 0x0, symName: _glad_glTexParameteri, symObjAddr: 0x19020, symBinAddr: 0x100050A00, symSize: 0x0 }
  - { offsetInCU: 0x35E1, offset: 0x81BA6, size: 0x8, addend: 0x0, symName: _glad_glTexParameteriv, symObjAddr: 0x19028, symBinAddr: 0x100050A08, symSize: 0x0 }
  - { offsetInCU: 0x3604, offset: 0x81BC9, size: 0x8, addend: 0x0, symName: _glad_glTexSubImage1D, symObjAddr: 0x19030, symBinAddr: 0x100050A10, symSize: 0x0 }
  - { offsetInCU: 0x3652, offset: 0x81C17, size: 0x8, addend: 0x0, symName: _glad_glTexSubImage2D, symObjAddr: 0x19038, symBinAddr: 0x100050A18, symSize: 0x0 }
  - { offsetInCU: 0x36AA, offset: 0x81C6F, size: 0x8, addend: 0x0, symName: _glad_glTexSubImage3D, symObjAddr: 0x19040, symBinAddr: 0x100050A20, symSize: 0x0 }
  - { offsetInCU: 0x370C, offset: 0x81CD1, size: 0x8, addend: 0x0, symName: _glad_glTransformFeedbackVaryings, symObjAddr: 0x19048, symBinAddr: 0x100050A28, symSize: 0x0 }
  - { offsetInCU: 0x374B, offset: 0x81D10, size: 0x8, addend: 0x0, symName: _glad_glUniform1f, symObjAddr: 0x19050, symBinAddr: 0x100050A30, symSize: 0x0 }
  - { offsetInCU: 0x3780, offset: 0x81D45, size: 0x8, addend: 0x0, symName: _glad_glUniform1fv, symObjAddr: 0x19058, symBinAddr: 0x100050A38, symSize: 0x0 }
  - { offsetInCU: 0x37BA, offset: 0x81D7F, size: 0x8, addend: 0x0, symName: _glad_glUniform1i, symObjAddr: 0x19060, symBinAddr: 0x100050A40, symSize: 0x0 }
  - { offsetInCU: 0x37EF, offset: 0x81DB4, size: 0x8, addend: 0x0, symName: _glad_glUniform1iv, symObjAddr: 0x19068, symBinAddr: 0x100050A48, symSize: 0x0 }
  - { offsetInCU: 0x3829, offset: 0x81DEE, size: 0x8, addend: 0x0, symName: _glad_glUniform1ui, symObjAddr: 0x19070, symBinAddr: 0x100050A50, symSize: 0x0 }
  - { offsetInCU: 0x385E, offset: 0x81E23, size: 0x8, addend: 0x0, symName: _glad_glUniform1uiv, symObjAddr: 0x19078, symBinAddr: 0x100050A58, symSize: 0x0 }
  - { offsetInCU: 0x3898, offset: 0x81E5D, size: 0x8, addend: 0x0, symName: _glad_glUniform2f, symObjAddr: 0x19080, symBinAddr: 0x100050A60, symSize: 0x0 }
  - { offsetInCU: 0x38D2, offset: 0x81E97, size: 0x8, addend: 0x0, symName: _glad_glUniform2fv, symObjAddr: 0x19088, symBinAddr: 0x100050A68, symSize: 0x0 }
  - { offsetInCU: 0x38F5, offset: 0x81EBA, size: 0x8, addend: 0x0, symName: _glad_glUniform2i, symObjAddr: 0x19090, symBinAddr: 0x100050A70, symSize: 0x0 }
  - { offsetInCU: 0x392F, offset: 0x81EF4, size: 0x8, addend: 0x0, symName: _glad_glUniform2iv, symObjAddr: 0x19098, symBinAddr: 0x100050A78, symSize: 0x0 }
  - { offsetInCU: 0x3952, offset: 0x81F17, size: 0x8, addend: 0x0, symName: _glad_glUniform2ui, symObjAddr: 0x190A0, symBinAddr: 0x100050A80, symSize: 0x0 }
  - { offsetInCU: 0x398C, offset: 0x81F51, size: 0x8, addend: 0x0, symName: _glad_glUniform2uiv, symObjAddr: 0x190A8, symBinAddr: 0x100050A88, symSize: 0x0 }
  - { offsetInCU: 0x39AF, offset: 0x81F74, size: 0x8, addend: 0x0, symName: _glad_glUniform3f, symObjAddr: 0x190B0, symBinAddr: 0x100050A90, symSize: 0x0 }
  - { offsetInCU: 0x39EE, offset: 0x81FB3, size: 0x8, addend: 0x0, symName: _glad_glUniform3fv, symObjAddr: 0x190B8, symBinAddr: 0x100050A98, symSize: 0x0 }
  - { offsetInCU: 0x3A11, offset: 0x81FD6, size: 0x8, addend: 0x0, symName: _glad_glUniform3i, symObjAddr: 0x190C0, symBinAddr: 0x100050AA0, symSize: 0x0 }
  - { offsetInCU: 0x3A50, offset: 0x82015, size: 0x8, addend: 0x0, symName: _glad_glUniform3iv, symObjAddr: 0x190C8, symBinAddr: 0x100050AA8, symSize: 0x0 }
  - { offsetInCU: 0x3A73, offset: 0x82038, size: 0x8, addend: 0x0, symName: _glad_glUniform3ui, symObjAddr: 0x190D0, symBinAddr: 0x100050AB0, symSize: 0x0 }
  - { offsetInCU: 0x3AB2, offset: 0x82077, size: 0x8, addend: 0x0, symName: _glad_glUniform3uiv, symObjAddr: 0x190D8, symBinAddr: 0x100050AB8, symSize: 0x0 }
  - { offsetInCU: 0x3AD5, offset: 0x8209A, size: 0x8, addend: 0x0, symName: _glad_glUniform4f, symObjAddr: 0x190E0, symBinAddr: 0x100050AC0, symSize: 0x0 }
  - { offsetInCU: 0x3B19, offset: 0x820DE, size: 0x8, addend: 0x0, symName: _glad_glUniform4fv, symObjAddr: 0x190E8, symBinAddr: 0x100050AC8, symSize: 0x0 }
